
RdtOneBLE.elf:     file format elf32-avr

Sections:
Idx Name          Size      VMA       LMA       File off  Algn
  0 .data         00000224  00800100  00005f54  00005fe8  2**0
                  CONTENTS, ALLOC, LOAD, DATA
  1 .text         00005f54  00000000  00000000  00000094  2**1
                  CONTENTS, ALLOC, LOAD, READONLY, CODE
  2 .bss          00000391  00800324  00800324  0000620c  2**0
                  ALLOC
  3 .comment      0000005c  00000000  00000000  0000620c  2**0
                  CONTENTS, READONLY
  4 .note.gnu.avr.deviceinfo 00000040  00000000  00000000  00006268  2**2
                  CONTENTS, READONLY
  5 .debug_aranges 00000e50  00000000  00000000  000062a8  2**0
                  CONTENTS, READONLY, DEBUGGING
  6 .debug_info   00017ad6  00000000  00000000  000070f8  2**0
                  CONTENTS, READONLY, DEBUGGING
  7 .debug_abbrev 00004a76  00000000  00000000  0001ebce  2**0
                  CONTENTS, READONLY, DEBUGGING
  8 .debug_line   00005d13  00000000  00000000  00023644  2**0
                  CONTENTS, READONLY, DEBUGGING
  9 .debug_frame  00002e88  00000000  00000000  00029358  2**2
                  CONTENTS, READONLY, DEBUGGING
 10 .debug_str    000078ac  00000000  00000000  0002c1e0  2**0
                  CONTENTS, READONLY, DEBUGGING
 11 .debug_loc    0000e7d3  00000000  00000000  00033a8c  2**0
                  CONTENTS, READONLY, DEBUGGING
 12 .debug_ranges 00000f40  00000000  00000000  0004225f  2**0
                  CONTENTS, READONLY, DEBUGGING

Disassembly of section .text:

00000000 <__vectors>:
       0:	29 c1       	rjmp	.+594    	; 0x254 <__dtors_end>
       2:	00 00       	nop
       4:	0c 94 98 22 	jmp	0x4530	; 0x4530 <__vector_1>
       8:	4e c1       	rjmp	.+668    	; 0x2a6 <__bad_interrupt>
       a:	00 00       	nop
       c:	4c c1       	rjmp	.+664    	; 0x2a6 <__bad_interrupt>
       e:	00 00       	nop
      10:	4a c1       	rjmp	.+660    	; 0x2a6 <__bad_interrupt>
      12:	00 00       	nop
      14:	48 c1       	rjmp	.+656    	; 0x2a6 <__bad_interrupt>
      16:	00 00       	nop
      18:	46 c1       	rjmp	.+652    	; 0x2a6 <__bad_interrupt>
      1a:	00 00       	nop
      1c:	44 c1       	rjmp	.+648    	; 0x2a6 <__bad_interrupt>
      1e:	00 00       	nop
      20:	42 c1       	rjmp	.+644    	; 0x2a6 <__bad_interrupt>
      22:	00 00       	nop
      24:	40 c1       	rjmp	.+640    	; 0x2a6 <__bad_interrupt>
      26:	00 00       	nop
      28:	3e c1       	rjmp	.+636    	; 0x2a6 <__bad_interrupt>
      2a:	00 00       	nop
      2c:	3c c1       	rjmp	.+632    	; 0x2a6 <__bad_interrupt>
      2e:	00 00       	nop
      30:	3a c1       	rjmp	.+628    	; 0x2a6 <__bad_interrupt>
      32:	00 00       	nop
      34:	38 c1       	rjmp	.+624    	; 0x2a6 <__bad_interrupt>
      36:	00 00       	nop
      38:	36 c1       	rjmp	.+620    	; 0x2a6 <__bad_interrupt>
      3a:	00 00       	nop
      3c:	0c 94 a4 23 	jmp	0x4748	; 0x4748 <__vector_15>
      40:	32 c1       	rjmp	.+612    	; 0x2a6 <__bad_interrupt>
      42:	00 00       	nop
      44:	30 c1       	rjmp	.+608    	; 0x2a6 <__bad_interrupt>
      46:	00 00       	nop
      48:	0c 94 00 1f 	jmp	0x3e00	; 0x3e00 <__vector_18>
      4c:	0c 94 4c 1f 	jmp	0x3e98	; 0x3e98 <__vector_19>
      50:	0c 94 75 1f 	jmp	0x3eea	; 0x3eea <__vector_20>
      54:	0c 94 06 22 	jmp	0x440c	; 0x440c <__vector_21>
      58:	26 c1       	rjmp	.+588    	; 0x2a6 <__bad_interrupt>
      5a:	00 00       	nop
      5c:	24 c1       	rjmp	.+584    	; 0x2a6 <__bad_interrupt>
      5e:	00 00       	nop
      60:	22 c1       	rjmp	.+580    	; 0x2a6 <__bad_interrupt>
      62:	00 00       	nop
      64:	20 c1       	rjmp	.+576    	; 0x2a6 <__bad_interrupt>
      66:	00 00       	nop
      68:	1e c1       	rjmp	.+572    	; 0x2a6 <__bad_interrupt>
      6a:	00 00       	nop
      6c:	1c c1       	rjmp	.+568    	; 0x2a6 <__bad_interrupt>
      6e:	00 00       	nop
      70:	1a c1       	rjmp	.+564    	; 0x2a6 <__bad_interrupt>
      72:	00 00       	nop
      74:	18 c1       	rjmp	.+560    	; 0x2a6 <__bad_interrupt>
      76:	00 00       	nop
      78:	0c 94 cc 20 	jmp	0x4198	; 0x4198 <__vector_30>
      7c:	0c 94 1d 21 	jmp	0x423a	; 0x423a <__vector_31>
      80:	0c 94 46 21 	jmp	0x428c	; 0x428c <__vector_32>
      84:	10 c1       	rjmp	.+544    	; 0x2a6 <__bad_interrupt>
      86:	00 00       	nop
      88:	0e c1       	rjmp	.+540    	; 0x2a6 <__bad_interrupt>
      8a:	00 00       	nop
      8c:	cb 15       	cp	r28, r11
      8e:	f1 15       	cp	r31, r1
      90:	cf 15       	cp	r28, r15
      92:	f1 15       	cp	r31, r1
      94:	d3 15       	cp	r29, r3
      96:	f1 15       	cp	r31, r1
      98:	d7 15       	cp	r29, r7
      9a:	f1 15       	cp	r31, r1
      9c:	dd 15       	cp	r29, r13
      9e:	f1 15       	cp	r31, r1
      a0:	dd 15       	cp	r29, r13
      a2:	f1 15       	cp	r31, r1
      a4:	f1 15       	cp	r31, r1
      a6:	f1 15       	cp	r31, r1
      a8:	da 15       	cp	r29, r10
      aa:	f1 15       	cp	r31, r1
      ac:	e2 15       	cp	r30, r2
      ae:	f1 15       	cp	r31, r1
      b0:	f1 15       	cp	r31, r1
      b2:	f1 15       	cp	r31, r1
      b4:	e7 15       	cp	r30, r7
      b6:	f1 15       	cp	r31, r1
      b8:	ea 15       	cp	r30, r10
      ba:	f1 15       	cp	r31, r1
      bc:	f1 15       	cp	r31, r1
      be:	f1 15       	cp	r31, r1
      c0:	f1 15       	cp	r31, r1
      c2:	f1 15       	cp	r31, r1
      c4:	ed 15       	cp	r30, r13
      c6:	f1 15       	cp	r31, r1
      c8:	f1 15       	cp	r31, r1
      ca:	f1 15       	cp	r31, r1
      cc:	f1 15       	cp	r31, r1
      ce:	f1 15       	cp	r31, r1
      d0:	f1 15       	cp	r31, r1
      d2:	f1 15       	cp	r31, r1
      d4:	f1 15       	cp	r31, r1
      d6:	f1 15       	cp	r31, r1
      d8:	f1 15       	cp	r31, r1
      da:	f1 15       	cp	r31, r1
      dc:	f1 15       	cp	r31, r1
      de:	f1 15       	cp	r31, r1
      e0:	f1 15       	cp	r31, r1
      e2:	f1 15       	cp	r31, r1
      e4:	f1 15       	cp	r31, r1
      e6:	f1 15       	cp	r31, r1
      e8:	f1 15       	cp	r31, r1
      ea:	f1 15       	cp	r31, r1
      ec:	f1 15       	cp	r31, r1
      ee:	f1 15       	cp	r31, r1
      f0:	f1 15       	cp	r31, r1
      f2:	f1 15       	cp	r31, r1
      f4:	f1 15       	cp	r31, r1
      f6:	f1 15       	cp	r31, r1
      f8:	f1 15       	cp	r31, r1
      fa:	f1 15       	cp	r31, r1
      fc:	f1 15       	cp	r31, r1
      fe:	f1 15       	cp	r31, r1
     100:	f1 15       	cp	r31, r1
     102:	f1 15       	cp	r31, r1
     104:	f1 15       	cp	r31, r1
     106:	f1 15       	cp	r31, r1
     108:	f1 15       	cp	r31, r1
     10a:	f1 15       	cp	r31, r1
     10c:	f1 15       	cp	r31, r1
     10e:	f1 15       	cp	r31, r1
     110:	f1 15       	cp	r31, r1
     112:	f1 15       	cp	r31, r1
     114:	f1 15       	cp	r31, r1
     116:	f1 15       	cp	r31, r1
     118:	f1 15       	cp	r31, r1
     11a:	f1 15       	cp	r31, r1
     11c:	f1 15       	cp	r31, r1
     11e:	f1 15       	cp	r31, r1
     120:	f1 15       	cp	r31, r1
     122:	f1 15       	cp	r31, r1
     124:	f1 15       	cp	r31, r1
     126:	f1 15       	cp	r31, r1
     128:	f1 15       	cp	r31, r1
     12a:	f1 15       	cp	r31, r1
     12c:	e2 15       	cp	r30, r2

0000012e <__trampolines_end>:
     12e:	6e 61       	ori	r22, 0x1E	; 30
     130:	6e 00       	.word	0x006e	; ????

00000132 <__c.2332>:
     132:	69 6e 66 00 00 40 7a 10 f3 5a 00 a0 72 4e 18 09     inf..@z..Z..rN..
     142:	00 10 a5 d4 e8 00 00 e8 76 48 17 00 00 e4 0b 54     ........vH.....T
     152:	02 00 00 ca 9a 3b 00 00 00 e1 f5 05 00 00 80 96     .....;..........
     162:	98 00 00 00 40 42 0f 00 00 00 a0 86 01 00 00 00     ....@B..........
     172:	10 27 00 00 00 00 e8 03 00 00 00 00 64 00 00 00     .'..........d...
     182:	00 00 0a 00 00 00 00 00 01 00 00 00 00 00 2c 76     ..............,v
     192:	d8 88 dc 67 4f 08 23 df c1 df ae 59 e1 b1 b7 96     ...gO.#....Y....
     1a2:	e5 e3 e4 53 c6 3a e6 51 99 76 96 e8 e6 c2 84 26     ...S.:.Q.v.....&
     1b2:	eb 89 8c 9b 62 ed 40 7c 6f fc ef bc 9c 9f 40 f2     ....b.@|o.....@.
     1c2:	ba a5 6f a5 f4 90 05 5a 2a f7 5c 93 6b 6c f9 67     ..o....Z*.\.kl.g
     1d2:	6d c1 1b fc e0 e4 0d 47 fe f5 20 e6 b5 00 d0 ed     m......G.. .....
     1e2:	90 2e 03 00 94 35 77 05 00 80 84 1e 08 00 00 20     .....5w........ 
     1f2:	4e 0a 00 00 00 c8 0c 33 33 33 33 0f 98 6e 12 83     N......3333..n..
     202:	11 41 ef 8d 21 14 89 3b e6 55 16 cf fe e6 db 18     .A..!..;.U......
     212:	d1 84 4b 38 1b f7 7c 1d 90 1d a4 bb e4 24 20 32     ..K8..|......$ 2
     222:	84 72 5e 22 81 00 c9 f1 24 ec a1 e5 3d 27           .r^"....$...='

00000230 <__ctors_start>:
     230:	29 02       	muls	r18, r25
     232:	be 05       	cpc	r27, r14
     234:	fe 15       	cp	r31, r14
     236:	64 17       	cp	r22, r20
     238:	bd 18       	sub	r11, r13
     23a:	ae 1c       	adc	r10, r14
     23c:	21 1d       	adc	r18, r1
     23e:	04 1e       	adc	r0, r20
     240:	cc 1f       	adc	r28, r28
     242:	6f 21       	and	r22, r15
     244:	2f 22       	and	r2, r31
     246:	c1 22       	and	r12, r17
     248:	cd 23       	and	r28, r29

0000024a <__ctors_end>:
     24a:	35 02       	muls	r19, r21
     24c:	c2 05       	cpc	r28, r2
     24e:	03 16       	cp	r0, r19
     250:	f2 18       	sub	r15, r2
     252:	d8 23       	and	r29, r24

00000254 <__dtors_end>:
     254:	11 24       	eor	r1, r1
     256:	1f be       	out	0x3f, r1	; 63
     258:	cf ef       	ldi	r28, 0xFF	; 255
     25a:	d0 e1       	ldi	r29, 0x10	; 16
     25c:	de bf       	out	0x3e, r29	; 62
     25e:	cd bf       	out	0x3d, r28	; 61

00000260 <__do_copy_data>:
     260:	13 e0       	ldi	r17, 0x03	; 3
     262:	a0 e0       	ldi	r26, 0x00	; 0
     264:	b1 e0       	ldi	r27, 0x01	; 1
     266:	e4 e5       	ldi	r30, 0x54	; 84
     268:	ff e5       	ldi	r31, 0x5F	; 95
     26a:	00 e0       	ldi	r16, 0x00	; 0
     26c:	0b bf       	out	0x3b, r16	; 59
     26e:	02 c0       	rjmp	.+4      	; 0x274 <__do_copy_data+0x14>
     270:	07 90       	elpm	r0, Z+
     272:	0d 92       	st	X+, r0
     274:	a4 32       	cpi	r26, 0x24	; 36
     276:	b1 07       	cpc	r27, r17
     278:	d9 f7       	brne	.-10     	; 0x270 <__do_copy_data+0x10>

0000027a <__do_clear_bss>:
     27a:	26 e0       	ldi	r18, 0x06	; 6
     27c:	a4 e2       	ldi	r26, 0x24	; 36
     27e:	b3 e0       	ldi	r27, 0x03	; 3
     280:	01 c0       	rjmp	.+2      	; 0x284 <.do_clear_bss_start>

00000282 <.do_clear_bss_loop>:
     282:	1d 92       	st	X+, r1

00000284 <.do_clear_bss_start>:
     284:	a5 3b       	cpi	r26, 0xB5	; 181
     286:	b2 07       	cpc	r27, r18
     288:	e1 f7       	brne	.-8      	; 0x282 <.do_clear_bss_loop>

0000028a <__do_global_ctors>:
     28a:	11 e0       	ldi	r17, 0x01	; 1
     28c:	c5 e2       	ldi	r28, 0x25	; 37
     28e:	d1 e0       	ldi	r29, 0x01	; 1
     290:	04 c0       	rjmp	.+8      	; 0x29a <__do_global_ctors+0x10>
     292:	21 97       	sbiw	r28, 0x01	; 1
     294:	fe 01       	movw	r30, r28
     296:	0e 94 92 2a 	call	0x5524	; 0x5524 <__tablejump2__>
     29a:	c8 31       	cpi	r28, 0x18	; 24
     29c:	d1 07       	cpc	r29, r17
     29e:	c9 f7       	brne	.-14     	; 0x292 <__do_global_ctors+0x8>
     2a0:	82 d0       	rcall	.+260    	; 0x3a6 <main>
     2a2:	0c 94 9e 2f 	jmp	0x5f3c	; 0x5f3c <__do_global_dtors>

000002a6 <__bad_interrupt>:
     2a6:	ac ce       	rjmp	.-680    	; 0x0 <__vectors>

000002a8 <_ZN22BLETypedCharacteristicIhED1Ev>:
#define BLETYPEDCHARACTERISTIC_H_

#include <string.h>
#include "profile/BLECharacteristic.h"

template<typename T> class BLETypedCharacteristic : public BLECharacteristic
     2a8:	22 ef       	ldi	r18, 0xF2	; 242
     2aa:	31 e0       	ldi	r19, 0x01	; 1
     2ac:	fc 01       	movw	r30, r24
     2ae:	31 83       	std	Z+1, r19	; 0x01
     2b0:	20 83       	st	Z, r18
     2b2:	9e c5       	rjmp	.+2876   	; 0xdf0 <_ZN17BLECharacteristicD1Ev>
     2b4:	08 95       	ret

000002b6 <_ZN22BLETypedCharacteristicIhED0Ev>:
     2b6:	cf 93       	push	r28
     2b8:	df 93       	push	r29
     2ba:	ec 01       	movw	r28, r24
     2bc:	82 ef       	ldi	r24, 0xF2	; 242
     2be:	91 e0       	ldi	r25, 0x01	; 1
     2c0:	99 83       	std	Y+1, r25	; 0x01
     2c2:	88 83       	st	Y, r24
     2c4:	ce 01       	movw	r24, r28
     2c6:	94 d5       	rcall	.+2856   	; 0xdf0 <_ZN17BLECharacteristicD1Ev>
     2c8:	ce 01       	movw	r24, r28
     2ca:	0e 94 de 23 	call	0x47bc	; 0x47bc <_ZdlPv>
     2ce:	df 91       	pop	r29
     2d0:	cf 91       	pop	r28
     2d2:	08 95       	ret

000002d4 <_ZN29BLEUnsignedCharCharacteristicD1Ev>:
     2d4:	22 ef       	ldi	r18, 0xF2	; 242
     2d6:	31 e0       	ldi	r19, 0x01	; 1
     2d8:	fc 01       	movw	r30, r24
     2da:	31 83       	std	Z+1, r19	; 0x01
     2dc:	20 83       	st	Z, r18
     2de:	88 c5       	rjmp	.+2832   	; 0xdf0 <_ZN17BLECharacteristicD1Ev>
     2e0:	08 95       	ret

000002e2 <_ZN29BLEUnsignedCharCharacteristicD0Ev>:
{
public:
    BLECharCharacteristic(const char* uuid, unsigned char properties);
};

class BLEUnsignedCharCharacteristic : public BLETypedCharacteristic<unsigned char>
     2e2:	cf 93       	push	r28
     2e4:	df 93       	push	r29
     2e6:	ec 01       	movw	r28, r24
     2e8:	82 ef       	ldi	r24, 0xF2	; 242
     2ea:	91 e0       	ldi	r25, 0x01	; 1
     2ec:	99 83       	std	Y+1, r25	; 0x01
     2ee:	88 83       	st	Y, r24
     2f0:	ce 01       	movw	r24, r28
     2f2:	7e d5       	rcall	.+2812   	; 0xdf0 <_ZN17BLECharacteristicD1Ev>
     2f4:	ce 01       	movw	r24, r28
     2f6:	0e 94 de 23 	call	0x47bc	; 0x47bc <_ZdlPv>
     2fa:	df 91       	pop	r29
     2fc:	cf 91       	pop	r28
     2fe:	08 95       	ret

00000300 <_Z4helpv>:
    }
}

void help()
{
    x_console.write("\n");
     300:	62 ee       	ldi	r22, 0xE2	; 226
     302:	71 e0       	ldi	r23, 0x01	; 1
     304:	8a e0       	ldi	r24, 0x0A	; 10
     306:	96 e0       	ldi	r25, 0x06	; 6
     308:	0e 94 92 20 	call	0x4124	; 0x4124 <_ZN11ConsoleUART5writeEPKc>
    x_console.write("! : help message\n");
     30c:	66 e0       	ldi	r22, 0x06	; 6
     30e:	71 e0       	ldi	r23, 0x01	; 1
     310:	8a e0       	ldi	r24, 0x0A	; 10
     312:	96 e0       	ldi	r25, 0x06	; 6
     314:	0e 94 92 20 	call	0x4124	; 0x4124 <_ZN11ConsoleUART5writeEPKc>
    x_console.write("@ : show-up sensing activity on/off\n");
     318:	68 e1       	ldi	r22, 0x18	; 24
     31a:	71 e0       	ldi	r23, 0x01	; 1
     31c:	8a e0       	ldi	r24, 0x0A	; 10
     31e:	96 e0       	ldi	r25, 0x06	; 6
     320:	0e 94 92 20 	call	0x4124	; 0x4124 <_ZN11ConsoleUART5writeEPKc>
    x_console.write("# : manual event mode on/off\n");
     324:	6d e3       	ldi	r22, 0x3D	; 61
     326:	71 e0       	ldi	r23, 0x01	; 1
     328:	8a e0       	ldi	r24, 0x0A	; 10
     32a:	96 e0       	ldi	r25, 0x06	; 6
     32c:	0e 94 92 20 	call	0x4124	; 0x4124 <_ZN11ConsoleUART5writeEPKc>
    x_console.write("+ : increase interval\n");
     330:	6b e5       	ldi	r22, 0x5B	; 91
     332:	71 e0       	ldi	r23, 0x01	; 1
     334:	8a e0       	ldi	r24, 0x0A	; 10
     336:	96 e0       	ldi	r25, 0x06	; 6
     338:	0e 94 92 20 	call	0x4124	; 0x4124 <_ZN11ConsoleUART5writeEPKc>
    x_console.write("- : decrease interval\n");
     33c:	62 e7       	ldi	r22, 0x72	; 114
     33e:	71 e0       	ldi	r23, 0x01	; 1
     340:	8a e0       	ldi	r24, 0x0A	; 10
     342:	96 e0       	ldi	r25, 0x06	; 6
     344:	0c 94 92 20 	jmp	0x4124	; 0x4124 <_ZN11ConsoleUART5writeEPKc>
     348:	08 95       	ret

0000034a <_Z12toggleShowupv>:
}

void toggleShowup()
{
    if (x_showup) {
     34a:	80 91 2d 03 	lds	r24, 0x032D	; 0x80032d <x_showup>
     34e:	88 23       	and	r24, r24
     350:	49 f0       	breq	.+18     	; 0x364 <_Z12toggleShowupv+0x1a>
        x_showup = false;
     352:	10 92 2d 03 	sts	0x032D, r1	; 0x80032d <x_showup>
        x_console.write("\nshow-up disabled\n");
     356:	69 e8       	ldi	r22, 0x89	; 137
     358:	71 e0       	ldi	r23, 0x01	; 1
     35a:	8a e0       	ldi	r24, 0x0A	; 10
     35c:	96 e0       	ldi	r25, 0x06	; 6
     35e:	0c 94 92 20 	jmp	0x4124	; 0x4124 <_ZN11ConsoleUART5writeEPKc>
     362:	08 95       	ret
    }
    else {
        x_showup = true;
     364:	81 e0       	ldi	r24, 0x01	; 1
     366:	80 93 2d 03 	sts	0x032D, r24	; 0x80032d <x_showup>
        x_console.write("\nshow-up enabled\n");
     36a:	6c e9       	ldi	r22, 0x9C	; 156
     36c:	71 e0       	ldi	r23, 0x01	; 1
     36e:	8a e0       	ldi	r24, 0x0A	; 10
     370:	96 e0       	ldi	r25, 0x06	; 6
     372:	0c 94 92 20 	jmp	0x4124	; 0x4124 <_ZN11ConsoleUART5writeEPKc>
     376:	08 95       	ret

00000378 <_Z16toggleManualModev>:
    }
}

void toggleManualMode()
{
    if (x_manual_mode) {
     378:	80 91 2c 03 	lds	r24, 0x032C	; 0x80032c <x_manual_mode>
     37c:	88 23       	and	r24, r24
     37e:	49 f0       	breq	.+18     	; 0x392 <_Z16toggleManualModev+0x1a>
        x_manual_mode = false;
     380:	10 92 2c 03 	sts	0x032C, r1	; 0x80032c <x_manual_mode>
        x_console.write("\nexit manual mode\n");
     384:	6e ea       	ldi	r22, 0xAE	; 174
     386:	71 e0       	ldi	r23, 0x01	; 1
     388:	8a e0       	ldi	r24, 0x0A	; 10
     38a:	96 e0       	ldi	r25, 0x06	; 6
     38c:	0c 94 92 20 	jmp	0x4124	; 0x4124 <_ZN11ConsoleUART5writeEPKc>
     390:	08 95       	ret
    }
    else {
        x_manual_mode = true;
     392:	81 e0       	ldi	r24, 0x01	; 1
     394:	80 93 2c 03 	sts	0x032C, r24	; 0x80032c <x_manual_mode>
        x_console.write("\nenter manual mode\n");
     398:	61 ec       	ldi	r22, 0xC1	; 193
     39a:	71 e0       	ldi	r23, 0x01	; 1
     39c:	8a e0       	ldi	r24, 0x0A	; 10
     39e:	96 e0       	ldi	r25, 0x06	; 6
     3a0:	0c 94 92 20 	jmp	0x4124	; 0x4124 <_ZN11ConsoleUART5writeEPKc>
     3a4:	08 95       	ret

000003a6 <main>:
BLEService g_xService("180F");
BLEUnsignedCharCharacteristic g_xLevelChar("2A19", BPP_READ | BPP_NOTIPY);

int main(void)
{
    x_showup = false;
     3a6:	10 92 2d 03 	sts	0x032D, r1	; 0x80032d <x_showup>
    x_manual_mode = false;
     3aa:	10 92 2c 03 	sts	0x032C, r1	; 0x80032c <x_manual_mode>
    
    x_console.begin(BAUDRATE_CONSOLE);
     3ae:	40 e0       	ldi	r20, 0x00	; 0
     3b0:	52 ec       	ldi	r21, 0xC2	; 194
     3b2:	61 e0       	ldi	r22, 0x01	; 1
     3b4:	70 e0       	ldi	r23, 0x00	; 0
     3b6:	8a e0       	ldi	r24, 0x0A	; 10
     3b8:	96 e0       	ldi	r25, 0x06	; 6
     3ba:	0e 94 d5 1f 	call	0x3faa	; 0x3faa <_ZN11ConsoleUART5beginEm>
    x_bluetooth.begin(BAUDRATE_BLUETOOTH);
     3be:	40 e0       	ldi	r20, 0x00	; 0
     3c0:	52 ec       	ldi	r21, 0xC2	; 194
     3c2:	61 e0       	ldi	r22, 0x01	; 1
     3c4:	70 e0       	ldi	r23, 0x00	; 0
     3c6:	86 e8       	ldi	r24, 0x86	; 134
     3c8:	95 e0       	ldi	r25, 0x05	; 5
     3ca:	0e 94 0f 1e 	call	0x3c1e	; 0x3c1e <_ZN13BluetoothUART5beginEm>
    x_tick.begin(TICK_INTERVAL);
     3ce:	64 e1       	ldi	r22, 0x14	; 20
     3d0:	70 e0       	ldi	r23, 0x00	; 0
     3d2:	85 ea       	ldi	r24, 0xA5	; 165
     3d4:	96 e0       	ldi	r25, 0x06	; 6
     3d6:	0e 94 c5 22 	call	0x458a	; 0x458a <_ZN9TickTIMER5beginEj>
    x_rotation.begin();
     3da:	8b e9       	ldi	r24, 0x9B	; 155
     3dc:	96 e0       	ldi	r25, 0x06	; 6
     3de:	0e 94 3f 22 	call	0x447e	; 0x447e <_ZN12RotationINTR5beginEv>
    x_distance.begin();
     3e2:	8e e8       	ldi	r24, 0x8E	; 142
     3e4:	96 e0       	ldi	r25, 0x06	; 6
     3e6:	0e 94 8d 21 	call	0x431a	; 0x431a <_ZN11DistanceADC5beginEv>
    
    sei();
     3ea:	78 94       	sei
    
    x_console.write("\nhello world!\n");
     3ec:	65 ed       	ldi	r22, 0xD5	; 213
     3ee:	71 e0       	ldi	r23, 0x01	; 1
     3f0:	8a e0       	ldi	r24, 0x0A	; 10
     3f2:	96 e0       	ldi	r25, 0x06	; 6
     3f4:	0e 94 92 20 	call	0x4124	; 0x4124 <_ZN11ConsoleUART5writeEPKc>
    x_bluetooth.write("\nhello world!\n");
     3f8:	65 ed       	ldi	r22, 0xD5	; 213
     3fa:	71 e0       	ldi	r23, 0x01	; 1
     3fc:	86 e8       	ldi	r24, 0x86	; 134
     3fe:	95 e0       	ldi	r25, 0x05	; 5
     400:	0e 94 d5 1e 	call	0x3daa	; 0x3daa <_ZN13BluetoothUART5writeEPKc>
    help();
     404:	7d df       	rcall	.-262    	; 0x300 <_Z4helpv>
    g_bleDevice.advertise();
    */
    
    while (1)
    {
        c = (char)(x_console.read() & 0xff);
     406:	8a e0       	ldi	r24, 0x0A	; 10
     408:	96 e0       	ldi	r25, 0x06	; 6
     40a:	0e 94 04 20 	call	0x4008	; 0x4008 <_ZN11ConsoleUART4readEv>
        switch (c) {
     40e:	99 27       	eor	r25, r25
     410:	8b 32       	cpi	r24, 0x2B	; 43
     412:	91 05       	cpc	r25, r1
     414:	a1 f0       	breq	.+40     	; 0x43e <__LOCK_REGION_LENGTH__+0x3e>
     416:	34 f4       	brge	.+12     	; 0x424 <__LOCK_REGION_LENGTH__+0x24>
     418:	81 32       	cpi	r24, 0x21	; 33
     41a:	91 05       	cpc	r25, r1
     41c:	51 f0       	breq	.+20     	; 0x432 <__LOCK_REGION_LENGTH__+0x32>
     41e:	83 97       	sbiw	r24, 0x23	; 35
     420:	61 f0       	breq	.+24     	; 0x43a <__LOCK_REGION_LENGTH__+0x3a>
     422:	f1 cf       	rjmp	.-30     	; 0x406 <__LOCK_REGION_LENGTH__+0x6>
     424:	8d 32       	cpi	r24, 0x2D	; 45
     426:	91 05       	cpc	r25, r1
     428:	79 f0       	breq	.+30     	; 0x448 <__LOCK_REGION_LENGTH__+0x48>
     42a:	80 34       	cpi	r24, 0x40	; 64
     42c:	91 05       	cpc	r25, r1
     42e:	19 f0       	breq	.+6      	; 0x436 <__LOCK_REGION_LENGTH__+0x36>
            case '!': help(); break;
     430:	ea cf       	rjmp	.-44     	; 0x406 <__LOCK_REGION_LENGTH__+0x6>
     432:	66 df       	rcall	.-308    	; 0x300 <_Z4helpv>
            case '@': toggleShowup(); break;
     434:	e8 cf       	rjmp	.-48     	; 0x406 <__LOCK_REGION_LENGTH__+0x6>
     436:	89 df       	rcall	.-238    	; 0x34a <_Z12toggleShowupv>
            case '#': toggleManualMode(); break;
     438:	e6 cf       	rjmp	.-52     	; 0x406 <__LOCK_REGION_LENGTH__+0x6>
     43a:	9e df       	rcall	.-196    	; 0x378 <_Z16toggleManualModev>
     43c:	e4 cf       	rjmp	.-56     	; 0x406 <__LOCK_REGION_LENGTH__+0x6>
            case '+': x_tick.incInterval(); break;
     43e:	85 ea       	ldi	r24, 0xA5	; 165
     440:	96 e0       	ldi	r25, 0x06	; 6
     442:	0e 94 df 22 	call	0x45be	; 0x45be <_ZN9TickTIMER11incIntervalEv>
     446:	df cf       	rjmp	.-66     	; 0x406 <__LOCK_REGION_LENGTH__+0x6>
            case '-': x_tick.decInterval(); break;
     448:	85 ea       	ldi	r24, 0xA5	; 165
     44a:	96 e0       	ldi	r25, 0x06	; 6
     44c:	0e 94 0d 23 	call	0x461a	; 0x461a <_ZN9TickTIMER11decIntervalEv>
     450:	da cf       	rjmp	.-76     	; 0x406 <__LOCK_REGION_LENGTH__+0x6>

00000452 <_GLOBAL__sub_I_x_showup>:
void toggleManualMode();

bool x_showup;
bool x_manual_mode;

BLEService g_xService("180F");
     452:	64 ee       	ldi	r22, 0xE4	; 228
     454:	71 e0       	ldi	r23, 0x01	; 1
     456:	88 e2       	ldi	r24, 0x28	; 40
     458:	93 e0       	ldi	r25, 0x03	; 3
     45a:	4e d6       	rcall	.+3228   	; 0x10f8 <_ZN10BLEServiceC1EPKc>
BLEUnsignedCharCharacteristic g_xLevelChar("2A19", BPP_READ | BPP_NOTIPY);
     45c:	42 e1       	ldi	r20, 0x12	; 18
     45e:	69 ee       	ldi	r22, 0xE9	; 233
     460:	71 e0       	ldi	r23, 0x01	; 1
     462:	84 e2       	ldi	r24, 0x24	; 36
     464:	93 e0       	ldi	r25, 0x03	; 3
     466:	8a c6       	rjmp	.+3348   	; 0x117c <_ZN29BLEUnsignedCharCharacteristicC1EPKch>
     468:	08 95       	ret

0000046a <_GLOBAL__sub_D_x_showup>:
     46a:	82 ef       	ldi	r24, 0xF2	; 242
     46c:	91 e0       	ldi	r25, 0x01	; 1
     46e:	90 93 25 03 	sts	0x0325, r25	; 0x800325 <__data_end+0x1>
     472:	80 93 24 03 	sts	0x0324, r24	; 0x800324 <__data_end>
     476:	84 e2       	ldi	r24, 0x24	; 36
     478:	93 e0       	ldi	r25, 0x03	; 3
     47a:	ba d4       	rcall	.+2420   	; 0xdf0 <_ZN17BLECharacteristicD1Ev>
void toggleManualMode();

bool x_showup;
bool x_manual_mode;

BLEService g_xService("180F");
     47c:	88 e2       	ldi	r24, 0x28	; 40
     47e:	93 e0       	ldi	r25, 0x03	; 3
     480:	13 c6       	rjmp	.+3110   	; 0x10a8 <_ZN10BLEServiceD1Ev>
     482:	08 95       	ret

00000484 <_ZN19LocalCharacteristic4typeEv>:
    LocalDescriptor* localDescriptor = descriptor.local();
    if (localDescriptor) {
        localDescriptor->retain();
        m_descriptors.add(localDescriptor);
    }
}
     484:	83 e0       	ldi	r24, 0x03	; 3
     486:	98 e2       	ldi	r25, 0x28	; 40
     488:	08 95       	ret

0000048a <_ZN19LocalCharacteristic10propertiesEv>:
     48a:	fc 01       	movw	r30, r24
     48c:	87 89       	ldd	r24, Z+23	; 0x17
     48e:	08 95       	ret

00000490 <_ZN19LocalCharacteristic9valueSizeEv>:
     490:	fc 01       	movw	r30, r24
     492:	80 8d       	ldd	r24, Z+24	; 0x18
     494:	91 8d       	ldd	r25, Z+25	; 0x19
     496:	08 95       	ret

00000498 <_ZN19LocalCharacteristic5valueEv>:
     498:	fc 01       	movw	r30, r24
     49a:	82 a1       	ldd	r24, Z+34	; 0x22
     49c:	93 a1       	ldd	r25, Z+35	; 0x23
     49e:	08 95       	ret

000004a0 <_ZN19LocalCharacteristic11valueLengthEv>:
     4a0:	fc 01       	movw	r30, r24
     4a2:	82 8d       	ldd	r24, Z+26	; 0x1a
     4a4:	90 e0       	ldi	r25, 0x00	; 0
     4a6:	08 95       	ret

000004a8 <_ZN19LocalCharacteristic10writeValueEPKhi>:
     4a8:	ef 92       	push	r14
     4aa:	ff 92       	push	r15
     4ac:	0f 93       	push	r16
     4ae:	1f 93       	push	r17
     4b0:	cf 93       	push	r28
     4b2:	df 93       	push	r29
     4b4:	ec 01       	movw	r28, r24
     4b6:	7b 01       	movw	r14, r22
     4b8:	8a 01       	movw	r16, r20
     4ba:	48 8d       	ldd	r20, Y+24	; 0x18
     4bc:	59 8d       	ldd	r21, Y+25	; 0x19
     4be:	04 17       	cp	r16, r20
     4c0:	15 07       	cpc	r17, r21
     4c2:	0c f4       	brge	.+2      	; 0x4c6 <_ZN19LocalCharacteristic10writeValueEPKhi+0x1e>
     4c4:	40 2f       	mov	r20, r16
     4c6:	4a 8f       	std	Y+26, r20	; 0x1a
     4c8:	50 e0       	ldi	r21, 0x00	; 0
     4ca:	b7 01       	movw	r22, r14
     4cc:	8a a1       	ldd	r24, Y+34	; 0x22
     4ce:	9b a1       	ldd	r25, Y+35	; 0x23
     4d0:	0e 94 b7 2e 	call	0x5d6e	; 0x5d6e <memcpy>
     4d4:	8b 8d       	ldd	r24, Y+27	; 0x1b
     4d6:	88 23       	and	r24, r24
     4d8:	11 f0       	breq	.+4      	; 0x4de <_ZN19LocalCharacteristic10writeValueEPKhi+0x36>
     4da:	88 8d       	ldd	r24, Y+24	; 0x18
     4dc:	8a 8f       	std	Y+26, r24	; 0x1a
     4de:	8f 89       	ldd	r24, Y+23	; 0x17
     4e0:	85 ff       	sbrs	r24, 5
     4e2:	11 c0       	rjmp	.+34     	; 0x506 <_ZN19LocalCharacteristic10writeValueEPKhi+0x5e>
     4e4:	98 a1       	ldd	r25, Y+32	; 0x20
     4e6:	91 ff       	sbrs	r25, 1
     4e8:	0e c0       	rjmp	.+28     	; 0x506 <_ZN19LocalCharacteristic10writeValueEPKhi+0x5e>
     4ea:	2a 8d       	ldd	r18, Y+26	; 0x1a
     4ec:	30 e0       	ldi	r19, 0x00	; 0
     4ee:	4a a1       	ldd	r20, Y+34	; 0x22
     4f0:	5b a1       	ldd	r21, Y+35	; 0x23
     4f2:	6c 8d       	ldd	r22, Y+28	; 0x1c
     4f4:	7d 8d       	ldd	r23, Y+29	; 0x1d
     4f6:	6f 5f       	subi	r22, 0xFF	; 255
     4f8:	7f 4f       	sbci	r23, 0xFF	; 255
     4fa:	8c e5       	ldi	r24, 0x5C	; 92
     4fc:	93 e0       	ldi	r25, 0x03	; 3
     4fe:	0e 94 34 0b 	call	0x1668	; 0x1668 <_ZN8ATTClass9handleIndEjPKhi>
     502:	90 e0       	ldi	r25, 0x00	; 0
     504:	3c c0       	rjmp	.+120    	; 0x57e <_ZN19LocalCharacteristic10writeValueEPKhi+0xd6>
     506:	84 ff       	sbrs	r24, 4
     508:	11 c0       	rjmp	.+34     	; 0x52c <_ZN19LocalCharacteristic10writeValueEPKhi+0x84>
     50a:	88 a1       	ldd	r24, Y+32	; 0x20
     50c:	80 ff       	sbrs	r24, 0
     50e:	0e c0       	rjmp	.+28     	; 0x52c <_ZN19LocalCharacteristic10writeValueEPKhi+0x84>
     510:	2a 8d       	ldd	r18, Y+26	; 0x1a
     512:	30 e0       	ldi	r19, 0x00	; 0
     514:	4a a1       	ldd	r20, Y+34	; 0x22
     516:	5b a1       	ldd	r21, Y+35	; 0x23
     518:	6c 8d       	ldd	r22, Y+28	; 0x1c
     51a:	7d 8d       	ldd	r23, Y+29	; 0x1d
     51c:	6f 5f       	subi	r22, 0xFF	; 255
     51e:	7f 4f       	sbci	r23, 0xFF	; 255
     520:	8c e5       	ldi	r24, 0x5C	; 92
     522:	93 e0       	ldi	r25, 0x03	; 3
     524:	0e 94 cc 0a 	call	0x1598	; 0x1598 <_ZN8ATTClass12handleNotifyEjPKhi>
     528:	90 e0       	ldi	r25, 0x00	; 0
     52a:	29 c0       	rjmp	.+82     	; 0x57e <_ZN19LocalCharacteristic10writeValueEPKhi+0xd6>
     52c:	8e 8d       	ldd	r24, Y+30	; 0x1e
     52e:	88 23       	and	r24, r24
     530:	f1 f0       	breq	.+60     	; 0x56e <_ZN19LocalCharacteristic10writeValueEPKhi+0xc6>
     532:	be 01       	movw	r22, r28
     534:	89 e8       	ldi	r24, 0x89	; 137
     536:	93 e0       	ldi	r25, 0x03	; 3
     538:	0e 94 fa 17 	call	0x2ff4	; 0x2ff4 <_ZN9GATTClass28serviceUuidForCharacteristicEP19LocalCharacteristic>
     53c:	98 01       	movw	r18, r16
     53e:	a7 01       	movw	r20, r14
     540:	bc 01       	movw	r22, r24
     542:	85 e7       	ldi	r24, 0x75	; 117
     544:	93 e0       	ldi	r25, 0x03	; 3
     546:	0e 94 5c 17 	call	0x2eb8	; 0x2eb8 <_ZN8GAPClass24setAdvertisedServiceDataEjPKhi>
     54a:	8c e5       	ldi	r24, 0x5C	; 92
     54c:	93 e0       	ldi	r25, 0x03	; 3
     54e:	ce d7       	rcall	.+3996   	; 0x14ec <_ZN8ATTClass9connectedEv>
     550:	81 11       	cpse	r24, r1
     552:	10 c0       	rjmp	.+32     	; 0x574 <_ZN19LocalCharacteristic10writeValueEPKhi+0xcc>
     554:	85 e7       	ldi	r24, 0x75	; 117
     556:	93 e0       	ldi	r25, 0x03	; 3
     558:	0e 94 25 16 	call	0x2c4a	; 0x2c4a <_ZN8GAPClass11advertisingEv>
     55c:	88 23       	and	r24, r24
     55e:	69 f0       	breq	.+26     	; 0x57a <_ZN19LocalCharacteristic10writeValueEPKhi+0xd2>
     560:	85 e7       	ldi	r24, 0x75	; 117
     562:	93 e0       	ldi	r25, 0x03	; 3
     564:	0e 94 28 16 	call	0x2c50	; 0x2c50 <_ZN8GAPClass9advertiseEv>
     568:	81 e0       	ldi	r24, 0x01	; 1
     56a:	90 e0       	ldi	r25, 0x00	; 0
     56c:	08 c0       	rjmp	.+16     	; 0x57e <_ZN19LocalCharacteristic10writeValueEPKhi+0xd6>
     56e:	81 e0       	ldi	r24, 0x01	; 1
     570:	90 e0       	ldi	r25, 0x00	; 0
     572:	05 c0       	rjmp	.+10     	; 0x57e <_ZN19LocalCharacteristic10writeValueEPKhi+0xd6>
     574:	81 e0       	ldi	r24, 0x01	; 1
     576:	90 e0       	ldi	r25, 0x00	; 0
     578:	02 c0       	rjmp	.+4      	; 0x57e <_ZN19LocalCharacteristic10writeValueEPKhi+0xd6>
     57a:	81 e0       	ldi	r24, 0x01	; 1
     57c:	90 e0       	ldi	r25, 0x00	; 0
     57e:	df 91       	pop	r29
     580:	cf 91       	pop	r28
     582:	1f 91       	pop	r17
     584:	0f 91       	pop	r16
     586:	ff 90       	pop	r15
     588:	ef 90       	pop	r14
     58a:	08 95       	ret

0000058c <_ZN19LocalCharacteristic6handleEv>:
     58c:	fc 01       	movw	r30, r24
     58e:	84 8d       	ldd	r24, Z+28	; 0x1c
     590:	95 8d       	ldd	r25, Z+29	; 0x1d
     592:	08 95       	ret

00000594 <_ZN19LocalCharacteristic11valueHandleEv>:
     594:	fc 01       	movw	r30, r24
     596:	84 8d       	ldd	r24, Z+28	; 0x1c
     598:	95 8d       	ldd	r25, Z+29	; 0x1d
     59a:	01 96       	adiw	r24, 0x01	; 1
     59c:	08 95       	ret

0000059e <_ZN19LocalCharacteristic10descriptorEj>:
     59e:	dc 01       	movw	r26, r24
     5a0:	94 96       	adiw	r26, 0x24	; 36
     5a2:	2d 91       	ld	r18, X+
     5a4:	3c 91       	ld	r19, X
     5a6:	95 97       	sbiw	r26, 0x25	; 37
     5a8:	62 17       	cp	r22, r18
     5aa:	73 07       	cpc	r23, r19
     5ac:	98 f4       	brcc	.+38     	; 0x5d4 <_ZN19LocalCharacteristic10descriptorEj+0x36>
     5ae:	96 96       	adiw	r26, 0x26	; 38
     5b0:	ed 91       	ld	r30, X+
     5b2:	fc 91       	ld	r31, X
     5b4:	97 97       	sbiw	r26, 0x27	; 39
     5b6:	61 15       	cp	r22, r1
     5b8:	71 05       	cpc	r23, r1
     5ba:	49 f0       	breq	.+18     	; 0x5ce <_ZN19LocalCharacteristic10descriptorEj+0x30>
     5bc:	80 e0       	ldi	r24, 0x00	; 0
     5be:	90 e0       	ldi	r25, 0x00	; 0
     5c0:	02 80       	ldd	r0, Z+2	; 0x02
     5c2:	f3 81       	ldd	r31, Z+3	; 0x03
     5c4:	e0 2d       	mov	r30, r0
     5c6:	01 96       	adiw	r24, 0x01	; 1
     5c8:	68 17       	cp	r22, r24
     5ca:	79 07       	cpc	r23, r25
     5cc:	c9 f7       	brne	.-14     	; 0x5c0 <_ZN19LocalCharacteristic10descriptorEj+0x22>
     5ce:	80 81       	ld	r24, Z
     5d0:	91 81       	ldd	r25, Z+1	; 0x01
     5d2:	08 95       	ret
     5d4:	80 e0       	ldi	r24, 0x00	; 0
     5d6:	90 e0       	ldi	r25, 0x00	; 0
     5d8:	08 95       	ret

000005da <_ZN10LinkedListIP15LocalDescriptorE3addES1_>:
     5da:	0f 93       	push	r16
     5dc:	1f 93       	push	r17
     5de:	cf 93       	push	r28
     5e0:	df 93       	push	r29
     5e2:	ec 01       	movw	r28, r24
     5e4:	8b 01       	movw	r16, r22
     5e6:	84 e0       	ldi	r24, 0x04	; 4
     5e8:	90 e0       	ldi	r25, 0x00	; 0
     5ea:	0e 94 dc 23 	call	0x47b8	; 0x47b8 <_Znwj>
     5ee:	fc 01       	movw	r30, r24
     5f0:	13 82       	std	Z+3, r1	; 0x03
     5f2:	12 82       	std	Z+2, r1	; 0x02
     5f4:	11 83       	std	Z+1, r17	; 0x01
     5f6:	00 83       	st	Z, r16
     5f8:	2a 81       	ldd	r18, Y+2	; 0x02
     5fa:	3b 81       	ldd	r19, Y+3	; 0x03
     5fc:	23 2b       	or	r18, r19
     5fe:	19 f4       	brne	.+6      	; 0x606 <_ZN10LinkedListIP15LocalDescriptorE3addES1_+0x2c>
     600:	9b 83       	std	Y+3, r25	; 0x03
     602:	8a 83       	std	Y+2, r24	; 0x02
     604:	04 c0       	rjmp	.+8      	; 0x60e <_ZN10LinkedListIP15LocalDescriptorE3addES1_+0x34>
     606:	ec 81       	ldd	r30, Y+4	; 0x04
     608:	fd 81       	ldd	r31, Y+5	; 0x05
     60a:	93 83       	std	Z+3, r25	; 0x03
     60c:	82 83       	std	Z+2, r24	; 0x02
     60e:	9d 83       	std	Y+5, r25	; 0x05
     610:	8c 83       	std	Y+4, r24	; 0x04
     612:	88 81       	ld	r24, Y
     614:	99 81       	ldd	r25, Y+1	; 0x01
     616:	01 96       	adiw	r24, 0x01	; 1
     618:	99 83       	std	Y+1, r25	; 0x01
     61a:	88 83       	st	Y, r24
     61c:	df 91       	pop	r29
     61e:	cf 91       	pop	r28
     620:	1f 91       	pop	r17
     622:	0f 91       	pop	r16
     624:	08 95       	ret

00000626 <_ZN19LocalCharacteristicC1EPKchib>:
     626:	ef 92       	push	r14
     628:	ff 92       	push	r15
     62a:	0f 93       	push	r16
     62c:	1f 93       	push	r17
     62e:	cf 93       	push	r28
     630:	df 93       	push	r29
     632:	ec 01       	movw	r28, r24
     634:	14 2f       	mov	r17, r20
     636:	79 01       	movw	r14, r18
     638:	b6 d3       	rcall	.+1900   	; 0xda6 <_ZN12BLEAttributeC1EPKc>
     63a:	8f ef       	ldi	r24, 0xFF	; 255
     63c:	91 e0       	ldi	r25, 0x01	; 1
     63e:	99 83       	std	Y+1, r25	; 0x01
     640:	88 83       	st	Y, r24
     642:	1f 8b       	std	Y+23, r17	; 0x17
     644:	9e 2d       	mov	r25, r14
     646:	8f 2d       	mov	r24, r15
     648:	21 e0       	ldi	r18, 0x01	; 1
     64a:	e2 16       	cp	r14, r18
     64c:	22 e0       	ldi	r18, 0x02	; 2
     64e:	f2 06       	cpc	r15, r18
     650:	14 f0       	brlt	.+4      	; 0x656 <_ZN19LocalCharacteristicC1EPKchib+0x30>
     652:	90 e0       	ldi	r25, 0x00	; 0
     654:	82 e0       	ldi	r24, 0x02	; 2
     656:	98 8f       	std	Y+24, r25	; 0x18
     658:	89 8f       	std	Y+25, r24	; 0x19
     65a:	1a 8e       	std	Y+26, r1	; 0x1a
     65c:	0b 8f       	std	Y+27, r16	; 0x1b
     65e:	1d 8e       	std	Y+29, r1	; 0x1d
     660:	1c 8e       	std	Y+28, r1	; 0x1c
     662:	1e 8e       	std	Y+30, r1	; 0x1e
     664:	1f 8e       	std	Y+31, r1	; 0x1f
     666:	19 a2       	std	Y+33, r1	; 0x21
     668:	18 a2       	std	Y+32, r1	; 0x20
     66a:	1d a2       	std	Y+37, r1	; 0x25
     66c:	1c a2       	std	Y+36, r1	; 0x24
     66e:	1f a2       	std	Y+39, r1	; 0x27
     670:	1e a2       	std	Y+38, r1	; 0x26
     672:	19 a6       	std	Y+41, r1	; 0x29
     674:	18 a6       	std	Y+40, r1	; 0x28
     676:	88 e0       	ldi	r24, 0x08	; 8
     678:	fe 01       	movw	r30, r28
     67a:	ba 96       	adiw	r30, 0x2a	; 42
     67c:	df 01       	movw	r26, r30
     67e:	1d 92       	st	X+, r1
     680:	8a 95       	dec	r24
     682:	e9 f7       	brne	.-6      	; 0x67e <_ZN19LocalCharacteristicC1EPKchib+0x58>
     684:	10 73       	andi	r17, 0x30	; 48
     686:	89 f0       	breq	.+34     	; 0x6aa <_ZN19LocalCharacteristicC1EPKchib+0x84>
     688:	8d e1       	ldi	r24, 0x1D	; 29
     68a:	90 e0       	ldi	r25, 0x00	; 0
     68c:	0e 94 dc 23 	call	0x47b8	; 0x47b8 <_Znwj>
     690:	8c 01       	movw	r16, r24
     692:	22 e0       	ldi	r18, 0x02	; 2
     694:	30 e0       	ldi	r19, 0x00	; 0
     696:	ae 01       	movw	r20, r28
     698:	40 5e       	subi	r20, 0xE0	; 224
     69a:	5f 4f       	sbci	r21, 0xFF	; 255
     69c:	66 ef       	ldi	r22, 0xF6	; 246
     69e:	71 e0       	ldi	r23, 0x01	; 1
     6a0:	c6 d1       	rcall	.+908    	; 0xa2e <_ZN15LocalDescriptorC1EPKcPKhi>
     6a2:	b8 01       	movw	r22, r16
     6a4:	ce 01       	movw	r24, r28
     6a6:	84 96       	adiw	r24, 0x24	; 36
     6a8:	98 df       	rcall	.-208    	; 0x5da <_ZN10LinkedListIP15LocalDescriptorE3addES1_>
     6aa:	c7 01       	movw	r24, r14
     6ac:	0e 94 b4 2a 	call	0x5568	; 0x5568 <malloc>
     6b0:	9b a3       	std	Y+35, r25	; 0x23
     6b2:	8a a3       	std	Y+34, r24	; 0x22
     6b4:	df 91       	pop	r29
     6b6:	cf 91       	pop	r28
     6b8:	1f 91       	pop	r17
     6ba:	0f 91       	pop	r16
     6bc:	ff 90       	pop	r15
     6be:	ef 90       	pop	r14
     6c0:	08 95       	ret

000006c2 <_ZN10LinkedListIP15LocalDescriptorE5clearEv>:
        itemNode = itemNode->next;
    }
    return itemNode->data;
}

template <typename T> void LinkedList<T>::clear()
     6c2:	ef 92       	push	r14
     6c4:	ff 92       	push	r15
     6c6:	0f 93       	push	r16
     6c8:	1f 93       	push	r17
     6ca:	cf 93       	push	r28
     6cc:	df 93       	push	r29
     6ce:	7c 01       	movw	r14, r24
{
    LinkedListNode<T>* itemNode = m_root;
     6d0:	fc 01       	movw	r30, r24
     6d2:	82 81       	ldd	r24, Z+2	; 0x02
     6d4:	93 81       	ldd	r25, Z+3	; 0x03
    for (unsigned int i = 0; i < m_size; i++) {
     6d6:	20 81       	ld	r18, Z
     6d8:	31 81       	ldd	r19, Z+1	; 0x01
     6da:	23 2b       	or	r18, r19
     6dc:	81 f0       	breq	.+32     	; 0x6fe <_ZN10LinkedListIP15LocalDescriptorE5clearEv+0x3c>
     6de:	c0 e0       	ldi	r28, 0x00	; 0
     6e0:	d0 e0       	ldi	r29, 0x00	; 0
        LinkedListNode<T>* n = itemNode;
        itemNode = itemNode->next;
     6e2:	fc 01       	movw	r30, r24
     6e4:	02 81       	ldd	r16, Z+2	; 0x02
     6e6:	13 81       	ldd	r17, Z+3	; 0x03
        delete n;
     6e8:	0e 94 de 23 	call	0x47bc	; 0x47bc <_ZdlPv>
}

template <typename T> void LinkedList<T>::clear()
{
    LinkedListNode<T>* itemNode = m_root;
    for (unsigned int i = 0; i < m_size; i++) {
     6ec:	21 96       	adiw	r28, 0x01	; 1
        LinkedListNode<T>* n = itemNode;
        itemNode = itemNode->next;
     6ee:	80 2f       	mov	r24, r16
     6f0:	91 2f       	mov	r25, r17
}

template <typename T> void LinkedList<T>::clear()
{
    LinkedListNode<T>* itemNode = m_root;
    for (unsigned int i = 0; i < m_size; i++) {
     6f2:	f7 01       	movw	r30, r14
     6f4:	20 81       	ld	r18, Z
     6f6:	31 81       	ldd	r19, Z+1	; 0x01
     6f8:	c2 17       	cp	r28, r18
     6fa:	d3 07       	cpc	r29, r19
     6fc:	90 f3       	brcs	.-28     	; 0x6e2 <_ZN10LinkedListIP15LocalDescriptorE5clearEv+0x20>
        LinkedListNode<T>* n = itemNode;
        itemNode = itemNode->next;
        delete n;
    }
    m_size = 0;
     6fe:	f7 01       	movw	r30, r14
     700:	11 82       	std	Z+1, r1	; 0x01
     702:	10 82       	st	Z, r1
    m_root = NULL;
     704:	13 82       	std	Z+3, r1	; 0x03
     706:	12 82       	std	Z+2, r1	; 0x02
    m_last = NULL;
     708:	15 82       	std	Z+5, r1	; 0x05
     70a:	14 82       	std	Z+4, r1	; 0x04
}
     70c:	df 91       	pop	r29
     70e:	cf 91       	pop	r28
     710:	1f 91       	pop	r17
     712:	0f 91       	pop	r16
     714:	ff 90       	pop	r15
     716:	ef 90       	pop	r14
     718:	08 95       	ret

0000071a <_ZN19LocalCharacteristicD1Ev>:
LocalCharacteristic::LocalCharacteristic(const char* uuid, uint8_t properties, const char* value) : LocalCharacteristic(uuid, properties, strlen(value))
{
    writeValue(value);
}

LocalCharacteristic::~LocalCharacteristic()
     71a:	ef 92       	push	r14
     71c:	ff 92       	push	r15
     71e:	0f 93       	push	r16
     720:	1f 93       	push	r17
     722:	cf 93       	push	r28
     724:	df 93       	push	r29
     726:	7c 01       	movw	r14, r24
     728:	8f ef       	ldi	r24, 0xFF	; 255
     72a:	91 e0       	ldi	r25, 0x01	; 1
     72c:	d7 01       	movw	r26, r14
     72e:	11 96       	adiw	r26, 0x01	; 1
     730:	9c 93       	st	X, r25
     732:	8e 93       	st	-X, r24
{
    for (unsigned int i = 0; i < descriptorCount(); i++) {
     734:	94 96       	adiw	r26, 0x24	; 36
     736:	8d 91       	ld	r24, X+
     738:	9c 91       	ld	r25, X
     73a:	95 97       	sbiw	r26, 0x25	; 37
     73c:	89 2b       	or	r24, r25
     73e:	e1 f0       	breq	.+56     	; 0x778 <_ZN19LocalCharacteristicD1Ev+0x5e>
     740:	c0 e0       	ldi	r28, 0x00	; 0
     742:	d0 e0       	ldi	r29, 0x00	; 0
        LocalDescriptor* d = descriptor(i);
     744:	be 01       	movw	r22, r28
     746:	c7 01       	movw	r24, r14
     748:	2a df       	rcall	.-428    	; 0x59e <_ZN19LocalCharacteristic10descriptorEj>
     74a:	8c 01       	movw	r16, r24
        if (d->release() <= 0) {
     74c:	49 d3       	rcall	.+1682   	; 0xde0 <_ZN12BLEAttribute7releaseEv>
     74e:	18 16       	cp	r1, r24
     750:	19 06       	cpc	r1, r25
     752:	5c f0       	brlt	.+22     	; 0x76a <_ZN19LocalCharacteristicD1Ev+0x50>
     754:	01 15       	cp	r16, r1
            delete d;
     756:	11 05       	cpc	r17, r1
     758:	41 f0       	breq	.+16     	; 0x76a <_ZN19LocalCharacteristicD1Ev+0x50>
     75a:	d8 01       	movw	r26, r16
     75c:	ed 91       	ld	r30, X+
     75e:	fc 91       	ld	r31, X
     760:	02 80       	ldd	r0, Z+2	; 0x02
     762:	f3 81       	ldd	r31, Z+3	; 0x03
     764:	e0 2d       	mov	r30, r0
     766:	c8 01       	movw	r24, r16
     768:	09 95       	icall
     76a:	21 96       	adiw	r28, 0x01	; 1
    writeValue(value);
}

LocalCharacteristic::~LocalCharacteristic()
{
    for (unsigned int i = 0; i < descriptorCount(); i++) {
     76c:	f7 01       	movw	r30, r14
     76e:	84 a1       	ldd	r24, Z+36	; 0x24
     770:	95 a1       	ldd	r25, Z+37	; 0x25
     772:	c8 17       	cp	r28, r24
     774:	d9 07       	cpc	r29, r25
     776:	30 f3       	brcs	.-52     	; 0x744 <_ZN19LocalCharacteristicD1Ev+0x2a>
     778:	e7 01       	movw	r28, r14
        LocalDescriptor* d = descriptor(i);
        if (d->release() <= 0) {
            delete d;
        }
    }
    m_descriptors.clear();
     77a:	a4 96       	adiw	r28, 0x24	; 36
     77c:	ce 01       	movw	r24, r28
     77e:	a1 df       	rcall	.-190    	; 0x6c2 <_ZN10LinkedListIP15LocalDescriptorE5clearEv>
     780:	d7 01       	movw	r26, r14
    if (m_value) {
     782:	92 96       	adiw	r26, 0x22	; 34
     784:	8d 91       	ld	r24, X+
     786:	9c 91       	ld	r25, X
     788:	93 97       	sbiw	r26, 0x23	; 35
     78a:	00 97       	sbiw	r24, 0x00	; 0
     78c:	11 f0       	breq	.+4      	; 0x792 <_ZN19LocalCharacteristicD1Ev+0x78>
     78e:	0e 94 4c 2b 	call	0x5698	; 0x5698 <free>
{
}

template <typename T> LinkedList<T>::~LinkedList()
{
    clear();
     792:	ce 01       	movw	r24, r28
     794:	96 df       	rcall	.-212    	; 0x6c2 <_ZN10LinkedListIP15LocalDescriptorE5clearEv>
LocalCharacteristic::LocalCharacteristic(const char* uuid, uint8_t properties, const char* value) : LocalCharacteristic(uuid, properties, strlen(value))
{
    writeValue(value);
}

LocalCharacteristic::~LocalCharacteristic()
     796:	c7 01       	movw	r24, r14
     798:	ff d2       	rcall	.+1534   	; 0xd98 <_ZN12BLEAttributeD1Ev>
     79a:	df 91       	pop	r29
    }
    m_descriptors.clear();
    if (m_value) {
        free(m_value);
    }
}
     79c:	cf 91       	pop	r28
     79e:	1f 91       	pop	r17
     7a0:	0f 91       	pop	r16
     7a2:	ff 90       	pop	r15
     7a4:	ef 90       	pop	r14
     7a6:	08 95       	ret

000007a8 <_ZN19LocalCharacteristicD0Ev>:
     7a8:	cf 93       	push	r28
LocalCharacteristic::LocalCharacteristic(const char* uuid, uint8_t properties, const char* value) : LocalCharacteristic(uuid, properties, strlen(value))
{
    writeValue(value);
}

LocalCharacteristic::~LocalCharacteristic()
     7aa:	df 93       	push	r29
     7ac:	ec 01       	movw	r28, r24
    }
    m_descriptors.clear();
    if (m_value) {
        free(m_value);
    }
}
     7ae:	b5 df       	rcall	.-150    	; 0x71a <_ZN19LocalCharacteristicD1Ev>
     7b0:	ce 01       	movw	r24, r28
     7b2:	0e 94 de 23 	call	0x47bc	; 0x47bc <_ZdlPv>
     7b6:	df 91       	pop	r29
     7b8:	cf 91       	pop	r28
     7ba:	08 95       	ret

000007bc <_ZN19LocalCharacteristic9readValueE9BLEDevicejPhi>:
{
    return m_descriptors.get(index);
}

void LocalCharacteristic::readValue(BLEDevice device, uint16_t offset, uint8_t value[], int length)
{
     7bc:	6f 92       	push	r6
     7be:	7f 92       	push	r7
     7c0:	8f 92       	push	r8
     7c2:	9f 92       	push	r9
     7c4:	af 92       	push	r10
     7c6:	bf 92       	push	r11
     7c8:	cf 92       	push	r12
     7ca:	df 92       	push	r13
     7cc:	ef 92       	push	r14
     7ce:	ff 92       	push	r15
     7d0:	0f 93       	push	r16
     7d2:	1f 93       	push	r17
     7d4:	cf 93       	push	r28
     7d6:	df 93       	push	r29
     7d8:	cd b7       	in	r28, 0x3d	; 61
     7da:	de b7       	in	r29, 0x3e	; 62
     7dc:	a0 97       	sbiw	r28, 0x20	; 32
     7de:	0f b6       	in	r0, 0x3f	; 63
     7e0:	f8 94       	cli
     7e2:	de bf       	out	0x3e, r29	; 62
     7e4:	0f be       	out	0x3f, r0	; 63
     7e6:	cd bf       	out	0x3d, r28	; 61
     7e8:	7c 01       	movw	r14, r24
     7ea:	6b 01       	movw	r12, r22
     7ec:	3a 01       	movw	r6, r20
     7ee:	49 01       	movw	r8, r18
    if (m_eventHandlers[BC_READ]) {
     7f0:	fc 01       	movw	r30, r24
     7f2:	a6 a4       	ldd	r10, Z+46	; 0x2e
     7f4:	b7 a4       	ldd	r11, Z+47	; 0x2f
     7f6:	a1 14       	cp	r10, r1
     7f8:	b1 04       	cpc	r11, r1
     7fa:	59 f1       	breq	.+86     	; 0x852 <_ZN19LocalCharacteristic9readValueE9BLEDevicejPhi+0x96>
        m_eventHandlers[BC_READ](device, BLECharacteristic(this));
     7fc:	bc 01       	movw	r22, r24
     7fe:	ce 01       	movw	r24, r28
     800:	4d 96       	adiw	r24, 0x1d	; 29
     802:	1e d3       	rcall	.+1596   	; 0xe40 <_ZN17BLECharacteristicC1EP19LocalCharacteristic>
    BD_CONNECTED = 0,
    BD_DISCONNECTED = 1,
    BD_EVENT_LAST
};

class BLEDevice
     804:	87 e6       	ldi	r24, 0x67	; 103
     806:	92 e0       	ldi	r25, 0x02	; 2
     808:	9a 83       	std	Y+2, r25	; 0x02
     80a:	89 83       	std	Y+1, r24	; 0x01
     80c:	82 e1       	ldi	r24, 0x12	; 18
     80e:	f6 01       	movw	r30, r12
     810:	32 96       	adiw	r30, 0x02	; 2
     812:	de 01       	movw	r26, r28
     814:	13 96       	adiw	r26, 0x03	; 3
     816:	01 90       	ld	r0, Z+
     818:	0d 92       	st	X+, r0
     81a:	8a 95       	dec	r24
     81c:	e1 f7       	brne	.-8      	; 0x816 <_ZN19LocalCharacteristic9readValueE9BLEDevicejPhi+0x5a>
     81e:	f6 01       	movw	r30, r12
     820:	84 89       	ldd	r24, Z+20	; 0x14
     822:	95 89       	ldd	r25, Z+21	; 0x15
     824:	9e 8b       	std	Y+22, r25	; 0x16
     826:	8d 8b       	std	Y+21, r24	; 0x15
     828:	86 e0       	ldi	r24, 0x06	; 6
     82a:	76 96       	adiw	r30, 0x16	; 22
     82c:	de 01       	movw	r26, r28
     82e:	57 96       	adiw	r26, 0x17	; 23
     830:	01 90       	ld	r0, Z+
     832:	0d 92       	st	X+, r0
     834:	8a 95       	dec	r24
     836:	e1 f7       	brne	.-8      	; 0x830 <_ZN19LocalCharacteristic9readValueE9BLEDevicejPhi+0x74>
     838:	be 01       	movw	r22, r28
     83a:	63 5e       	subi	r22, 0xE3	; 227
     83c:	7f 4f       	sbci	r23, 0xFF	; 255
     83e:	ce 01       	movw	r24, r28
     840:	01 96       	adiw	r24, 0x01	; 1
     842:	f5 01       	movw	r30, r10
     844:	09 95       	icall
     846:	ce 01       	movw	r24, r28
     848:	01 96       	adiw	r24, 0x01	; 1
     84a:	36 d3       	rcall	.+1644   	; 0xeb8 <_ZN9BLEDeviceD1Ev>
     84c:	ce 01       	movw	r24, r28
     84e:	4d 96       	adiw	r24, 0x1d	; 29
     850:	cf d2       	rcall	.+1438   	; 0xdf0 <_ZN17BLECharacteristicD1Ev>
    }
    memcpy(value, m_value + offset, length);
     852:	f7 01       	movw	r30, r14
     854:	62 a1       	ldd	r22, Z+34	; 0x22
     856:	73 a1       	ldd	r23, Z+35	; 0x23
     858:	66 0d       	add	r22, r6
     85a:	77 1d       	adc	r23, r7
     85c:	a8 01       	movw	r20, r16
     85e:	c4 01       	movw	r24, r8
     860:	0e 94 b7 2e 	call	0x5d6e	; 0x5d6e <memcpy>
}
     864:	a0 96       	adiw	r28, 0x20	; 32
     866:	0f b6       	in	r0, 0x3f	; 63
     868:	f8 94       	cli
     86a:	de bf       	out	0x3e, r29	; 62
     86c:	0f be       	out	0x3f, r0	; 63
     86e:	cd bf       	out	0x3d, r28	; 61
     870:	df 91       	pop	r29
     872:	cf 91       	pop	r28
     874:	1f 91       	pop	r17
     876:	0f 91       	pop	r16
     878:	ff 90       	pop	r15
     87a:	ef 90       	pop	r14
     87c:	df 90       	pop	r13
     87e:	cf 90       	pop	r12
     880:	bf 90       	pop	r11
     882:	af 90       	pop	r10
     884:	9f 90       	pop	r9
     886:	8f 90       	pop	r8
     888:	7f 90       	pop	r7
     88a:	6f 90       	pop	r6
     88c:	08 95       	ret

0000088e <_ZN19LocalCharacteristic10writeValueE9BLEDevicePKhi>:

void LocalCharacteristic::writeValue(BLEDevice device, const uint8_t value[], int length)
{
     88e:	cf 92       	push	r12
     890:	df 92       	push	r13
     892:	ef 92       	push	r14
     894:	ff 92       	push	r15
     896:	0f 93       	push	r16
     898:	1f 93       	push	r17
     89a:	cf 93       	push	r28
     89c:	df 93       	push	r29
     89e:	cd b7       	in	r28, 0x3d	; 61
     8a0:	de b7       	in	r29, 0x3e	; 62
     8a2:	a0 97       	sbiw	r28, 0x20	; 32
     8a4:	0f b6       	in	r0, 0x3f	; 63
     8a6:	f8 94       	cli
     8a8:	de bf       	out	0x3e, r29	; 62
     8aa:	0f be       	out	0x3f, r0	; 63
     8ac:	cd bf       	out	0x3d, r28	; 61
     8ae:	8c 01       	movw	r16, r24
     8b0:	7b 01       	movw	r14, r22
     8b2:	ba 01       	movw	r22, r20
    m_written = true;
     8b4:	81 e0       	ldi	r24, 0x01	; 1
     8b6:	f8 01       	movw	r30, r16
     8b8:	87 8f       	std	Z+31, r24	; 0x1f
    writeValue(value, length);
     8ba:	a9 01       	movw	r20, r18
     8bc:	c8 01       	movw	r24, r16
     8be:	f4 dd       	rcall	.-1048   	; 0x4a8 <_ZN19LocalCharacteristic10writeValueEPKhi>
    if (m_eventHandlers[BC_WRITTEN]) {
     8c0:	f8 01       	movw	r30, r16
     8c2:	c0 a8       	ldd	r12, Z+48	; 0x30
     8c4:	d1 a8       	ldd	r13, Z+49	; 0x31
     8c6:	c1 14       	cp	r12, r1
     8c8:	d1 04       	cpc	r13, r1
     8ca:	59 f1       	breq	.+86     	; 0x922 <_ZN19LocalCharacteristic10writeValueE9BLEDevicePKhi+0x94>
        m_eventHandlers[BC_WRITTEN](device, BLECharacteristic(this));
     8cc:	b8 01       	movw	r22, r16
     8ce:	ce 01       	movw	r24, r28
     8d0:	4d 96       	adiw	r24, 0x1d	; 29
     8d2:	b6 d2       	rcall	.+1388   	; 0xe40 <_ZN17BLECharacteristicC1EP19LocalCharacteristic>
     8d4:	87 e6       	ldi	r24, 0x67	; 103
     8d6:	92 e0       	ldi	r25, 0x02	; 2
     8d8:	9a 83       	std	Y+2, r25	; 0x02
     8da:	89 83       	std	Y+1, r24	; 0x01
     8dc:	82 e1       	ldi	r24, 0x12	; 18
     8de:	f7 01       	movw	r30, r14
     8e0:	32 96       	adiw	r30, 0x02	; 2
     8e2:	de 01       	movw	r26, r28
     8e4:	13 96       	adiw	r26, 0x03	; 3
     8e6:	01 90       	ld	r0, Z+
     8e8:	0d 92       	st	X+, r0
     8ea:	8a 95       	dec	r24
     8ec:	e1 f7       	brne	.-8      	; 0x8e6 <_ZN19LocalCharacteristic10writeValueE9BLEDevicePKhi+0x58>
     8ee:	f7 01       	movw	r30, r14
     8f0:	84 89       	ldd	r24, Z+20	; 0x14
     8f2:	95 89       	ldd	r25, Z+21	; 0x15
     8f4:	9e 8b       	std	Y+22, r25	; 0x16
     8f6:	8d 8b       	std	Y+21, r24	; 0x15
     8f8:	86 e0       	ldi	r24, 0x06	; 6
     8fa:	76 96       	adiw	r30, 0x16	; 22
     8fc:	de 01       	movw	r26, r28
     8fe:	57 96       	adiw	r26, 0x17	; 23
     900:	01 90       	ld	r0, Z+
     902:	0d 92       	st	X+, r0
     904:	8a 95       	dec	r24
     906:	e1 f7       	brne	.-8      	; 0x900 <_ZN19LocalCharacteristic10writeValueE9BLEDevicePKhi+0x72>
     908:	be 01       	movw	r22, r28
     90a:	63 5e       	subi	r22, 0xE3	; 227
     90c:	7f 4f       	sbci	r23, 0xFF	; 255
     90e:	ce 01       	movw	r24, r28
     910:	01 96       	adiw	r24, 0x01	; 1
     912:	f6 01       	movw	r30, r12
     914:	09 95       	icall
     916:	ce 01       	movw	r24, r28
     918:	01 96       	adiw	r24, 0x01	; 1
     91a:	ce d2       	rcall	.+1436   	; 0xeb8 <_ZN9BLEDeviceD1Ev>
     91c:	ce 01       	movw	r24, r28
     91e:	4d 96       	adiw	r24, 0x1d	; 29
     920:	67 d2       	rcall	.+1230   	; 0xdf0 <_ZN17BLECharacteristicD1Ev>
    }
}
     922:	a0 96       	adiw	r28, 0x20	; 32
     924:	0f b6       	in	r0, 0x3f	; 63
     926:	f8 94       	cli
     928:	de bf       	out	0x3e, r29	; 62
     92a:	0f be       	out	0x3f, r0	; 63
     92c:	cd bf       	out	0x3d, r28	; 61
     92e:	df 91       	pop	r29
     930:	cf 91       	pop	r28
     932:	1f 91       	pop	r17
     934:	0f 91       	pop	r16
     936:	ff 90       	pop	r15
     938:	ef 90       	pop	r14
     93a:	df 90       	pop	r13
     93c:	cf 90       	pop	r12
     93e:	08 95       	ret

00000940 <_ZN19LocalCharacteristic14writeCccdValueE9BLEDevicej>:

void LocalCharacteristic::writeCccdValue(BLEDevice device, uint16_t value)
{
     940:	ef 92       	push	r14
     942:	ff 92       	push	r15
     944:	0f 93       	push	r16
     946:	1f 93       	push	r17
     948:	cf 93       	push	r28
     94a:	df 93       	push	r29
     94c:	cd b7       	in	r28, 0x3d	; 61
     94e:	de b7       	in	r29, 0x3e	; 62
     950:	a0 97       	sbiw	r28, 0x20	; 32
     952:	0f b6       	in	r0, 0x3f	; 63
     954:	f8 94       	cli
     956:	de bf       	out	0x3e, r29	; 62
     958:	0f be       	out	0x3f, r0	; 63
     95a:	cd bf       	out	0x3d, r28	; 61
    value &= 0x0003;
     95c:	43 70       	andi	r20, 0x03	; 3
     95e:	55 27       	eor	r21, r21
    if (m_cccdValue != value) {
     960:	fc 01       	movw	r30, r24
     962:	20 a1       	ldd	r18, Z+32	; 0x20
     964:	31 a1       	ldd	r19, Z+33	; 0x21
     966:	42 17       	cp	r20, r18
     968:	53 07       	cpc	r21, r19
     96a:	09 f4       	brne	.+2      	; 0x96e <_ZN19LocalCharacteristic14writeCccdValueE9BLEDevicej+0x2e>
     96c:	3f c0       	rjmp	.+126    	; 0x9ec <_ZN19LocalCharacteristic14writeCccdValueE9BLEDevicej+0xac>
        m_cccdValue = value;
     96e:	51 a3       	std	Z+33, r21	; 0x21
     970:	40 a3       	std	Z+32, r20	; 0x20
        BLECharacteristicEvent event = (m_cccdValue) ? BC_SUBSCRIBED : BC_UNSUBSCRIBED;
        if (m_eventHandlers[event]) {
     972:	21 e0       	ldi	r18, 0x01	; 1
     974:	30 e0       	ldi	r19, 0x00	; 0
     976:	45 2b       	or	r20, r21
     978:	11 f0       	breq	.+4      	; 0x97e <_ZN19LocalCharacteristic14writeCccdValueE9BLEDevicej+0x3e>
     97a:	20 e0       	ldi	r18, 0x00	; 0
     97c:	30 e0       	ldi	r19, 0x00	; 0
     97e:	d9 01       	movw	r26, r18
     980:	55 96       	adiw	r26, 0x15	; 21
     982:	aa 0f       	add	r26, r26
     984:	bb 1f       	adc	r27, r27
     986:	a8 0f       	add	r26, r24
     988:	b9 1f       	adc	r27, r25
     98a:	ed 90       	ld	r14, X+
     98c:	fc 90       	ld	r15, X
     98e:	e1 14       	cp	r14, r1
     990:	f1 04       	cpc	r15, r1
     992:	61 f1       	breq	.+88     	; 0x9ec <_ZN19LocalCharacteristic14writeCccdValueE9BLEDevicej+0xac>
     994:	8b 01       	movw	r16, r22
     996:	bc 01       	movw	r22, r24
            m_eventHandlers[event](device, BLECharacteristic(this));
     998:	ce 01       	movw	r24, r28
     99a:	4d 96       	adiw	r24, 0x1d	; 29
     99c:	51 d2       	rcall	.+1186   	; 0xe40 <_ZN17BLECharacteristicC1EP19LocalCharacteristic>
     99e:	87 e6       	ldi	r24, 0x67	; 103
     9a0:	92 e0       	ldi	r25, 0x02	; 2
     9a2:	9a 83       	std	Y+2, r25	; 0x02
     9a4:	89 83       	std	Y+1, r24	; 0x01
     9a6:	82 e1       	ldi	r24, 0x12	; 18
     9a8:	f8 01       	movw	r30, r16
     9aa:	32 96       	adiw	r30, 0x02	; 2
     9ac:	de 01       	movw	r26, r28
     9ae:	13 96       	adiw	r26, 0x03	; 3
     9b0:	01 90       	ld	r0, Z+
     9b2:	0d 92       	st	X+, r0
     9b4:	8a 95       	dec	r24
     9b6:	e1 f7       	brne	.-8      	; 0x9b0 <_ZN19LocalCharacteristic14writeCccdValueE9BLEDevicej+0x70>
     9b8:	f8 01       	movw	r30, r16
     9ba:	84 89       	ldd	r24, Z+20	; 0x14
     9bc:	95 89       	ldd	r25, Z+21	; 0x15
     9be:	9e 8b       	std	Y+22, r25	; 0x16
     9c0:	8d 8b       	std	Y+21, r24	; 0x15
     9c2:	86 e0       	ldi	r24, 0x06	; 6
     9c4:	76 96       	adiw	r30, 0x16	; 22
     9c6:	de 01       	movw	r26, r28
     9c8:	57 96       	adiw	r26, 0x17	; 23
     9ca:	01 90       	ld	r0, Z+
     9cc:	0d 92       	st	X+, r0
     9ce:	8a 95       	dec	r24
     9d0:	e1 f7       	brne	.-8      	; 0x9ca <_ZN19LocalCharacteristic14writeCccdValueE9BLEDevicej+0x8a>
     9d2:	be 01       	movw	r22, r28
     9d4:	63 5e       	subi	r22, 0xE3	; 227
     9d6:	7f 4f       	sbci	r23, 0xFF	; 255
     9d8:	ce 01       	movw	r24, r28
     9da:	01 96       	adiw	r24, 0x01	; 1
     9dc:	f7 01       	movw	r30, r14
     9de:	09 95       	icall
     9e0:	ce 01       	movw	r24, r28
     9e2:	01 96       	adiw	r24, 0x01	; 1
     9e4:	69 d2       	rcall	.+1234   	; 0xeb8 <_ZN9BLEDeviceD1Ev>
     9e6:	ce 01       	movw	r24, r28
     9e8:	4d 96       	adiw	r24, 0x1d	; 29
     9ea:	02 d2       	rcall	.+1028   	; 0xdf0 <_ZN17BLECharacteristicD1Ev>
        }
    }
}
     9ec:	a0 96       	adiw	r28, 0x20	; 32
     9ee:	0f b6       	in	r0, 0x3f	; 63
     9f0:	f8 94       	cli
     9f2:	de bf       	out	0x3e, r29	; 62
     9f4:	0f be       	out	0x3f, r0	; 63
     9f6:	cd bf       	out	0x3d, r28	; 61
     9f8:	df 91       	pop	r29
     9fa:	cf 91       	pop	r28
     9fc:	1f 91       	pop	r17
     9fe:	0f 91       	pop	r16
     a00:	ff 90       	pop	r15
     a02:	ef 90       	pop	r14
     a04:	08 95       	ret

00000a06 <_ZN15LocalDescriptor4typeEv>:
m_value(value), m_valueSize(min(valueSize, 512)), m_handle(0x0000)
{
    //
}

LocalDescriptor::LocalDescriptor(const char* uuid, const char* value) : LocalDescriptor(uuid, (const uint8_t*)value, strlen(value))
     a06:	80 e0       	ldi	r24, 0x00	; 0
     a08:	99 e2       	ldi	r25, 0x29	; 41
     a0a:	08 95       	ret

00000a0c <_ZN15LocalDescriptorD1Ev>:
     a0c:	29 e0       	ldi	r18, 0x09	; 9
     a0e:	32 e0       	ldi	r19, 0x02	; 2
     a10:	fc 01       	movw	r30, r24
     a12:	31 83       	std	Z+1, r19	; 0x01
     a14:	20 83       	st	Z, r18
     a16:	c0 c1       	rjmp	.+896    	; 0xd98 <_ZN12BLEAttributeD1Ev>
     a18:	08 95       	ret

00000a1a <_ZN15LocalDescriptorD0Ev>:
     a1a:	cf 93       	push	r28
     a1c:	df 93       	push	r29
     a1e:	ec 01       	movw	r28, r24
     a20:	f5 df       	rcall	.-22     	; 0xa0c <_ZN15LocalDescriptorD1Ev>
     a22:	ce 01       	movw	r24, r28
     a24:	0e 94 de 23 	call	0x47bc	; 0x47bc <_ZdlPv>
     a28:	df 91       	pop	r29
     a2a:	cf 91       	pop	r28
     a2c:	08 95       	ret

00000a2e <_ZN15LocalDescriptorC1EPKcPKhi>:
     a2e:	ef 92       	push	r14
     a30:	ff 92       	push	r15
     a32:	0f 93       	push	r16
     a34:	1f 93       	push	r17
     a36:	cf 93       	push	r28
     a38:	df 93       	push	r29
     a3a:	ec 01       	movw	r28, r24
     a3c:	7a 01       	movw	r14, r20
     a3e:	02 2f       	mov	r16, r18
     a40:	13 2f       	mov	r17, r19
     a42:	b1 d1       	rcall	.+866    	; 0xda6 <_ZN12BLEAttributeC1EPKc>
     a44:	89 e0       	ldi	r24, 0x09	; 9
     a46:	92 e0       	ldi	r25, 0x02	; 2
     a48:	99 83       	std	Y+1, r25	; 0x01
     a4a:	88 83       	st	Y, r24
     a4c:	f8 8e       	std	Y+24, r15	; 0x18
     a4e:	ef 8a       	std	Y+23, r14	; 0x17
     a50:	80 2f       	mov	r24, r16
     a52:	91 2f       	mov	r25, r17
     a54:	81 30       	cpi	r24, 0x01	; 1
     a56:	22 e0       	ldi	r18, 0x02	; 2
     a58:	92 07       	cpc	r25, r18
     a5a:	14 f0       	brlt	.+4      	; 0xa60 <_ZN15LocalDescriptorC1EPKcPKhi+0x32>
     a5c:	80 e0       	ldi	r24, 0x00	; 0
     a5e:	92 e0       	ldi	r25, 0x02	; 2
     a60:	9a 8f       	std	Y+26, r25	; 0x1a
     a62:	89 8f       	std	Y+25, r24	; 0x19
     a64:	1c 8e       	std	Y+28, r1	; 0x1c
     a66:	1b 8e       	std	Y+27, r1	; 0x1b
     a68:	df 91       	pop	r29
     a6a:	cf 91       	pop	r28
     a6c:	1f 91       	pop	r17
     a6e:	0f 91       	pop	r16
     a70:	ff 90       	pop	r15
     a72:	ef 90       	pop	r14
     a74:	08 95       	ret

00000a76 <_ZN15LocalDescriptor9valueSizeEv>:
}

int LocalDescriptor::valueSize()
{
    return m_valueSize;
}
     a76:	fc 01       	movw	r30, r24
     a78:	81 8d       	ldd	r24, Z+25	; 0x19
     a7a:	92 8d       	ldd	r25, Z+26	; 0x1a
     a7c:	08 95       	ret

00000a7e <_ZN15LocalDescriptor5valueEv>:

const uint8_t* LocalDescriptor::value()
{
    return m_value;
}
     a7e:	fc 01       	movw	r30, r24
     a80:	87 89       	ldd	r24, Z+23	; 0x17
     a82:	90 8d       	ldd	r25, Z+24	; 0x18
     a84:	08 95       	ret

00000a86 <_ZN11LocalDevicecvbEv>:
    x_l2capSignaling.setConnectionInterval(minimumConnectionInterval, maximumConnectionInterval);
}

void LocalDevice::setConnectable(bool connectable)
{
    x_gap.setConnectable(connectable);
     a86:	81 e0       	ldi	r24, 0x01	; 1
     a88:	08 95       	ret

00000a8a <_ZN11LocalDeviceeqER9BLEDevice>:
     a8a:	21 e0       	ldi	r18, 0x01	; 1
     a8c:	68 17       	cp	r22, r24
     a8e:	79 07       	cpc	r23, r25
     a90:	09 f0       	breq	.+2      	; 0xa94 <_ZN11LocalDeviceeqER9BLEDevice+0xa>
     a92:	20 e0       	ldi	r18, 0x00	; 0
     a94:	82 2f       	mov	r24, r18
     a96:	08 95       	ret

00000a98 <_ZN11LocalDeviceneER9BLEDevice>:
     a98:	21 e0       	ldi	r18, 0x01	; 1
     a9a:	68 17       	cp	r22, r24
     a9c:	79 07       	cpc	r23, r25
     a9e:	09 f4       	brne	.+2      	; 0xaa2 <_ZN11LocalDeviceneER9BLEDevice+0xa>
     aa0:	20 e0       	ldi	r18, 0x00	; 0
     aa2:	82 2f       	mov	r24, r18
     aa4:	08 95       	ret

00000aa6 <_ZN11LocalDeviceD1Ev>:
     aa6:	21 e3       	ldi	r18, 0x31	; 49
     aa8:	32 e0       	ldi	r19, 0x02	; 2
     aaa:	fc 01       	movw	r30, r24
     aac:	31 83       	std	Z+1, r19	; 0x01
     aae:	20 83       	st	Z, r18
     ab0:	03 c2       	rjmp	.+1030   	; 0xeb8 <_ZN9BLEDeviceD1Ev>
     ab2:	08 95       	ret

00000ab4 <_ZN11LocalDeviceD0Ev>:
     ab4:	cf 93       	push	r28
     ab6:	df 93       	push	r29
     ab8:	ec 01       	movw	r28, r24
     aba:	f5 df       	rcall	.-22     	; 0xaa6 <_ZN11LocalDeviceD1Ev>
     abc:	ce 01       	movw	r24, r28
     abe:	0e 94 de 23 	call	0x47bc	; 0x47bc <_ZdlPv>
     ac2:	df 91       	pop	r29
     ac4:	cf 91       	pop	r28
     ac6:	08 95       	ret

00000ac8 <_ZN11LocalDevice9connectedEv>:
     ac8:	89 e6       	ldi	r24, 0x69	; 105
     aca:	94 e0       	ldi	r25, 0x04	; 4
     acc:	0e 94 04 1a 	call	0x3408	; 0x3408 <_ZN8HCIClass4pollEv>
     ad0:	8c e5       	ldi	r24, 0x5C	; 92
     ad2:	93 e0       	ldi	r25, 0x03	; 3
     ad4:	0b c5       	rjmp	.+2582   	; 0x14ec <_ZN8ATTClass9connectedEv>
     ad6:	08 95       	ret

00000ad8 <_ZN11LocalDevice10disconnectEv>:
     ad8:	8c e5       	ldi	r24, 0x5C	; 92
     ada:	93 e0       	ldi	r25, 0x03	; 3
     adc:	24 c5       	rjmp	.+2632   	; 0x1526 <_ZN8ATTClass10disconnectEv>
     ade:	08 95       	ret

00000ae0 <_ZN11LocalDevice7addressEv>:
     ae0:	0f 93       	push	r16
     ae2:	1f 93       	push	r17
     ae4:	cf 93       	push	r28
     ae6:	df 93       	push	r29
     ae8:	00 d0       	rcall	.+0      	; 0xaea <_ZN11LocalDevice7addressEv+0xa>
     aea:	00 d0       	rcall	.+0      	; 0xaec <_ZN11LocalDevice7addressEv+0xc>
     aec:	00 d0       	rcall	.+0      	; 0xaee <_ZN11LocalDevice7addressEv+0xe>
     aee:	cd b7       	in	r28, 0x3d	; 61
     af0:	de b7       	in	r29, 0x3e	; 62
     af2:	8c 01       	movw	r16, r24
     af4:	be 01       	movw	r22, r28
     af6:	6f 5f       	subi	r22, 0xFF	; 255
     af8:	7f 4f       	sbci	r23, 0xFF	; 255
     afa:	86 e0       	ldi	r24, 0x06	; 6
     afc:	fb 01       	movw	r30, r22
     afe:	11 92       	st	Z+, r1
     b00:	8a 95       	dec	r24
     b02:	e9 f7       	brne	.-6      	; 0xafe <_ZN11LocalDevice7addressEv+0x1e>
     b04:	89 e6       	ldi	r24, 0x69	; 105
     b06:	94 e0       	ldi	r25, 0x04	; 4
     b08:	0e 94 67 1b 	call	0x36ce	; 0x36ce <_ZN8HCIClass10readBDAddrEPh>
     b0c:	04 5e       	subi	r16, 0xE4	; 228
     b0e:	1f 4f       	sbci	r17, 0xFF	; 255
     b10:	89 81       	ldd	r24, Y+1	; 0x01
     b12:	1f 92       	push	r1
     b14:	8f 93       	push	r24
     b16:	8a 81       	ldd	r24, Y+2	; 0x02
     b18:	1f 92       	push	r1
     b1a:	8f 93       	push	r24
     b1c:	8b 81       	ldd	r24, Y+3	; 0x03
     b1e:	1f 92       	push	r1
     b20:	8f 93       	push	r24
     b22:	8c 81       	ldd	r24, Y+4	; 0x04
     b24:	1f 92       	push	r1
     b26:	8f 93       	push	r24
     b28:	8d 81       	ldd	r24, Y+5	; 0x05
     b2a:	1f 92       	push	r1
     b2c:	8f 93       	push	r24
     b2e:	8e 81       	ldd	r24, Y+6	; 0x06
     b30:	1f 92       	push	r1
     b32:	8f 93       	push	r24
     b34:	8f e0       	ldi	r24, 0x0F	; 15
     b36:	92 e0       	ldi	r25, 0x02	; 2
     b38:	9f 93       	push	r25
     b3a:	8f 93       	push	r24
     b3c:	1f 93       	push	r17
     b3e:	0f 93       	push	r16
     b40:	0e 94 0e 2f 	call	0x5e1c	; 0x5e1c <sprintf>
     b44:	0f b6       	in	r0, 0x3f	; 63
     b46:	f8 94       	cli
     b48:	de bf       	out	0x3e, r29	; 62
     b4a:	0f be       	out	0x3f, r0	; 63
     b4c:	cd bf       	out	0x3d, r28	; 61
     b4e:	c8 01       	movw	r24, r16
     b50:	26 96       	adiw	r28, 0x06	; 6
     b52:	0f b6       	in	r0, 0x3f	; 63
     b54:	f8 94       	cli
     b56:	de bf       	out	0x3e, r29	; 62
     b58:	0f be       	out	0x3f, r0	; 63
     b5a:	cd bf       	out	0x3d, r28	; 61
     b5c:	df 91       	pop	r29
     b5e:	cf 91       	pop	r28
     b60:	1f 91       	pop	r17
     b62:	0f 91       	pop	r16
     b64:	08 95       	ret

00000b66 <_ZN11LocalDeviceC1Ev>:
     b66:	cf 93       	push	r28
     b68:	df 93       	push	r29
     b6a:	ec 01       	movw	r28, r24
     b6c:	77 d2       	rcall	.+1262   	; 0x105c <_ZN9BLEDeviceC1Ev>
     b6e:	81 e3       	ldi	r24, 0x31	; 49
     b70:	92 e0       	ldi	r25, 0x02	; 2
     b72:	99 83       	std	Y+1, r25	; 0x01
     b74:	88 83       	st	Y, r24
     b76:	df 91       	pop	r29
     b78:	cf 91       	pop	r28
     b7a:	08 95       	ret

00000b7c <_GLOBAL__sub_I__ZN11LocalDeviceC2Ev>:
bool LocalDevice::operator!=(BLEDevice& rhs)
{
    return (this != &rhs);
}

LocalDevice g_bleDevice;
     b7c:	8e e2       	ldi	r24, 0x2E	; 46
     b7e:	93 e0       	ldi	r25, 0x03	; 3
     b80:	f2 cf       	rjmp	.-28     	; 0xb66 <_ZN11LocalDeviceC1Ev>
     b82:	08 95       	ret

00000b84 <_GLOBAL__sub_D__ZN11LocalDeviceC2Ev>:
     b84:	8e e2       	ldi	r24, 0x2E	; 46
     b86:	93 e0       	ldi	r25, 0x03	; 3
     b88:	8e cf       	rjmp	.-228    	; 0xaa6 <_ZN11LocalDeviceD1Ev>
     b8a:	08 95       	ret

00000b8c <_ZN11LocalDevice4rssiEv>:
    sprintf(m_addrString, "%02x:%02x:%02x:%02x:%02x:%02x", addr[5], addr[4], addr[3], addr[2], addr[1], addr[0]);
    return  m_addrString;
}

int LocalDevice::rssi()
{
     b8c:	0f 93       	push	r16
     b8e:	1f 93       	push	r17
     b90:	cf 93       	push	r28
     b92:	df 93       	push	r29
     b94:	cd b7       	in	r28, 0x3d	; 61
     b96:	de b7       	in	r29, 0x3e	; 62
     b98:	6c 97       	sbiw	r28, 0x1c	; 28
     b9a:	0f b6       	in	r0, 0x3f	; 63
     b9c:	f8 94       	cli
     b9e:	de bf       	out	0x3e, r29	; 62
     ba0:	0f be       	out	0x3f, r0	; 63
     ba2:	cd bf       	out	0x3d, r28	; 61
    BLEDevice central = x_att.central();
     ba4:	6c e5       	ldi	r22, 0x5C	; 92
     ba6:	73 e0       	ldi	r23, 0x03	; 3
     ba8:	ce 01       	movw	r24, r28
     baa:	01 96       	adiw	r24, 0x01	; 1
     bac:	de d4       	rcall	.+2492   	; 0x156a <_ZN8ATTClass7centralEv>
    if (central) {
     bae:	ce 01       	movw	r24, r28
     bb0:	01 96       	adiw	r24, 0x01	; 1
     bb2:	f5 d1       	rcall	.+1002   	; 0xf9e <_ZN9BLEDevicecvbEv>
     bb4:	88 23       	and	r24, r24
     bb6:	29 f0       	breq	.+10     	; 0xbc2 <_ZN11LocalDevice4rssiEv+0x36>
        return central.rssi();
     bb8:	ce 01       	movw	r24, r28
     bba:	01 96       	adiw	r24, 0x01	; 1
     bbc:	e1 d1       	rcall	.+962    	; 0xf80 <_ZN9BLEDevice4rssiEv>
     bbe:	8c 01       	movw	r16, r24
     bc0:	02 c0       	rjmp	.+4      	; 0xbc6 <_ZN11LocalDevice4rssiEv+0x3a>
    }
    return 127;
     bc2:	0f e7       	ldi	r16, 0x7F	; 127
    return  m_addrString;
}

int LocalDevice::rssi()
{
    BLEDevice central = x_att.central();
     bc4:	10 e0       	ldi	r17, 0x00	; 0
     bc6:	ce 01       	movw	r24, r28
     bc8:	01 96       	adiw	r24, 0x01	; 1
     bca:	76 d1       	rcall	.+748    	; 0xeb8 <_ZN9BLEDeviceD1Ev>
    if (central) {
        return central.rssi();
    }
    return 127;
}
     bcc:	c8 01       	movw	r24, r16
     bce:	6c 96       	adiw	r28, 0x1c	; 28
     bd0:	0f b6       	in	r0, 0x3f	; 63
     bd2:	f8 94       	cli
     bd4:	de bf       	out	0x3e, r29	; 62
     bd6:	0f be       	out	0x3f, r0	; 63
     bd8:	cd bf       	out	0x3d, r28	; 61
     bda:	df 91       	pop	r29
     bdc:	cf 91       	pop	r28
     bde:	1f 91       	pop	r17
     be0:	0f 91       	pop	r16
     be2:	08 95       	ret

00000be4 <_ZN12LocalService4typeEv>:
{
    LocalCharacteristic* localCharacteristic = characteristic.local();
    if (localCharacteristic) {
        addCharacteristic(localCharacteristic);
    }
}
     be4:	80 e0       	ldi	r24, 0x00	; 0
     be6:	98 e2       	ldi	r25, 0x28	; 40
     be8:	08 95       	ret

00000bea <_ZN12LocalServiceC1EPKc>:
     bea:	cf 93       	push	r28
     bec:	df 93       	push	r29
     bee:	ec 01       	movw	r28, r24
     bf0:	da d0       	rcall	.+436    	; 0xda6 <_ZN12BLEAttributeC1EPKc>
     bf2:	8b e4       	ldi	r24, 0x4B	; 75
     bf4:	92 e0       	ldi	r25, 0x02	; 2
     bf6:	99 83       	std	Y+1, r25	; 0x01
     bf8:	88 83       	st	Y, r24
     bfa:	18 8e       	std	Y+24, r1	; 0x18
     bfc:	1f 8a       	std	Y+23, r1	; 0x17
     bfe:	1a 8e       	std	Y+26, r1	; 0x1a
     c00:	19 8e       	std	Y+25, r1	; 0x19
     c02:	1c 8e       	std	Y+28, r1	; 0x1c
     c04:	1b 8e       	std	Y+27, r1	; 0x1b
     c06:	1e 8e       	std	Y+30, r1	; 0x1e
     c08:	1d 8e       	std	Y+29, r1	; 0x1d
     c0a:	18 a2       	std	Y+32, r1	; 0x20
     c0c:	1f 8e       	std	Y+31, r1	; 0x1f
     c0e:	df 91       	pop	r29
     c10:	cf 91       	pop	r28
     c12:	08 95       	ret

00000c14 <_ZN12LocalService11startHandleEv>:
     c14:	fc 01       	movw	r30, r24
     c16:	87 89       	ldd	r24, Z+23	; 0x17
     c18:	90 8d       	ldd	r25, Z+24	; 0x18
     c1a:	08 95       	ret

00000c1c <_ZN12LocalService9endHandleEv>:
     c1c:	fc 01       	movw	r30, r24
     c1e:	81 8d       	ldd	r24, Z+25	; 0x19
     c20:	92 8d       	ldd	r25, Z+26	; 0x1a
     c22:	08 95       	ret

00000c24 <_ZN12LocalService14characteristicEj>:
     c24:	dc 01       	movw	r26, r24
     c26:	5b 96       	adiw	r26, 0x1b	; 27
     c28:	2d 91       	ld	r18, X+
     c2a:	3c 91       	ld	r19, X
     c2c:	5c 97       	sbiw	r26, 0x1c	; 28
     c2e:	62 17       	cp	r22, r18
     c30:	73 07       	cpc	r23, r19
     c32:	98 f4       	brcc	.+38     	; 0xc5a <_ZN12LocalService14characteristicEj+0x36>
     c34:	5d 96       	adiw	r26, 0x1d	; 29
     c36:	ed 91       	ld	r30, X+
     c38:	fc 91       	ld	r31, X
     c3a:	5e 97       	sbiw	r26, 0x1e	; 30
     c3c:	61 15       	cp	r22, r1
     c3e:	71 05       	cpc	r23, r1
     c40:	49 f0       	breq	.+18     	; 0xc54 <_ZN12LocalService14characteristicEj+0x30>
     c42:	80 e0       	ldi	r24, 0x00	; 0
     c44:	90 e0       	ldi	r25, 0x00	; 0
     c46:	02 80       	ldd	r0, Z+2	; 0x02
     c48:	f3 81       	ldd	r31, Z+3	; 0x03
     c4a:	e0 2d       	mov	r30, r0
     c4c:	01 96       	adiw	r24, 0x01	; 1
     c4e:	68 17       	cp	r22, r24
     c50:	79 07       	cpc	r23, r25
     c52:	c9 f7       	brne	.-14     	; 0xc46 <_ZN12LocalService14characteristicEj+0x22>
     c54:	80 81       	ld	r24, Z
     c56:	91 81       	ldd	r25, Z+1	; 0x01
     c58:	08 95       	ret
     c5a:	80 e0       	ldi	r24, 0x00	; 0
     c5c:	90 e0       	ldi	r25, 0x00	; 0
     c5e:	08 95       	ret

00000c60 <_ZN12LocalService17addCharacteristicEP19LocalCharacteristic>:
     c60:	0f 93       	push	r16
     c62:	1f 93       	push	r17
     c64:	cf 93       	push	r28
     c66:	df 93       	push	r29
     c68:	ec 01       	movw	r28, r24
     c6a:	8b 01       	movw	r16, r22
     c6c:	cb 01       	movw	r24, r22
     c6e:	b0 d0       	rcall	.+352    	; 0xdd0 <_ZN12BLEAttribute6retainEv>
     c70:	84 e0       	ldi	r24, 0x04	; 4
     c72:	90 e0       	ldi	r25, 0x00	; 0
     c74:	0e 94 dc 23 	call	0x47b8	; 0x47b8 <_Znwj>
     c78:	fc 01       	movw	r30, r24
     c7a:	13 82       	std	Z+3, r1	; 0x03
     c7c:	12 82       	std	Z+2, r1	; 0x02
     c7e:	11 83       	std	Z+1, r17	; 0x01
     c80:	00 83       	st	Z, r16
     c82:	2d 8d       	ldd	r18, Y+29	; 0x1d
     c84:	3e 8d       	ldd	r19, Y+30	; 0x1e
     c86:	23 2b       	or	r18, r19
     c88:	19 f4       	brne	.+6      	; 0xc90 <_ZN12LocalService17addCharacteristicEP19LocalCharacteristic+0x30>
     c8a:	9e 8f       	std	Y+30, r25	; 0x1e
     c8c:	8d 8f       	std	Y+29, r24	; 0x1d
     c8e:	04 c0       	rjmp	.+8      	; 0xc98 <_ZN12LocalService17addCharacteristicEP19LocalCharacteristic+0x38>
     c90:	ef 8d       	ldd	r30, Y+31	; 0x1f
     c92:	f8 a1       	ldd	r31, Y+32	; 0x20
     c94:	93 83       	std	Z+3, r25	; 0x03
     c96:	82 83       	std	Z+2, r24	; 0x02
     c98:	98 a3       	std	Y+32, r25	; 0x20
     c9a:	8f 8f       	std	Y+31, r24	; 0x1f
     c9c:	8b 8d       	ldd	r24, Y+27	; 0x1b
     c9e:	9c 8d       	ldd	r25, Y+28	; 0x1c
     ca0:	01 96       	adiw	r24, 0x01	; 1
     ca2:	9c 8f       	std	Y+28, r25	; 0x1c
     ca4:	8b 8f       	std	Y+27, r24	; 0x1b
     ca6:	df 91       	pop	r29
     ca8:	cf 91       	pop	r28
     caa:	1f 91       	pop	r17
     cac:	0f 91       	pop	r16
     cae:	08 95       	ret

00000cb0 <_ZN10LinkedListIP19LocalCharacteristicE5clearEv>:
        itemNode = itemNode->next;
    }
    return itemNode->data;
}

template <typename T> void LinkedList<T>::clear()
     cb0:	ef 92       	push	r14
     cb2:	ff 92       	push	r15
     cb4:	0f 93       	push	r16
     cb6:	1f 93       	push	r17
     cb8:	cf 93       	push	r28
     cba:	df 93       	push	r29
     cbc:	7c 01       	movw	r14, r24
{
    LinkedListNode<T>* itemNode = m_root;
     cbe:	fc 01       	movw	r30, r24
     cc0:	82 81       	ldd	r24, Z+2	; 0x02
     cc2:	93 81       	ldd	r25, Z+3	; 0x03
    for (unsigned int i = 0; i < m_size; i++) {
     cc4:	20 81       	ld	r18, Z
     cc6:	31 81       	ldd	r19, Z+1	; 0x01
     cc8:	23 2b       	or	r18, r19
     cca:	81 f0       	breq	.+32     	; 0xcec <_ZN10LinkedListIP19LocalCharacteristicE5clearEv+0x3c>
     ccc:	c0 e0       	ldi	r28, 0x00	; 0
     cce:	d0 e0       	ldi	r29, 0x00	; 0
        LinkedListNode<T>* n = itemNode;
        itemNode = itemNode->next;
     cd0:	fc 01       	movw	r30, r24
     cd2:	02 81       	ldd	r16, Z+2	; 0x02
     cd4:	13 81       	ldd	r17, Z+3	; 0x03
        delete n;
     cd6:	0e 94 de 23 	call	0x47bc	; 0x47bc <_ZdlPv>
}

template <typename T> void LinkedList<T>::clear()
{
    LinkedListNode<T>* itemNode = m_root;
    for (unsigned int i = 0; i < m_size; i++) {
     cda:	21 96       	adiw	r28, 0x01	; 1
        LinkedListNode<T>* n = itemNode;
        itemNode = itemNode->next;
     cdc:	80 2f       	mov	r24, r16
     cde:	91 2f       	mov	r25, r17
}

template <typename T> void LinkedList<T>::clear()
{
    LinkedListNode<T>* itemNode = m_root;
    for (unsigned int i = 0; i < m_size; i++) {
     ce0:	f7 01       	movw	r30, r14
     ce2:	20 81       	ld	r18, Z
     ce4:	31 81       	ldd	r19, Z+1	; 0x01
     ce6:	c2 17       	cp	r28, r18
     ce8:	d3 07       	cpc	r29, r19
     cea:	90 f3       	brcs	.-28     	; 0xcd0 <_ZN10LinkedListIP19LocalCharacteristicE5clearEv+0x20>
        LinkedListNode<T>* n = itemNode;
        itemNode = itemNode->next;
        delete n;
    }
    m_size = 0;
     cec:	f7 01       	movw	r30, r14
     cee:	11 82       	std	Z+1, r1	; 0x01
     cf0:	10 82       	st	Z, r1
    m_root = NULL;
     cf2:	13 82       	std	Z+3, r1	; 0x03
     cf4:	12 82       	std	Z+2, r1	; 0x02
    m_last = NULL;
     cf6:	15 82       	std	Z+5, r1	; 0x05
     cf8:	14 82       	std	Z+4, r1	; 0x04
}
     cfa:	df 91       	pop	r29
     cfc:	cf 91       	pop	r28
     cfe:	1f 91       	pop	r17
     d00:	0f 91       	pop	r16
     d02:	ff 90       	pop	r15
     d04:	ef 90       	pop	r14
     d06:	08 95       	ret

00000d08 <_ZN12LocalServiceD1Ev>:
LocalService::LocalService(const char* uuid) : BLEAttribute(uuid), m_startHandle(0x0000), m_endHandle(0x0000)
{
    //
}

LocalService::~LocalService()
     d08:	ef 92       	push	r14
     d0a:	ff 92       	push	r15
     d0c:	0f 93       	push	r16
     d0e:	1f 93       	push	r17
     d10:	cf 93       	push	r28
     d12:	df 93       	push	r29
     d14:	7c 01       	movw	r14, r24
     d16:	8b e4       	ldi	r24, 0x4B	; 75
     d18:	92 e0       	ldi	r25, 0x02	; 2
     d1a:	d7 01       	movw	r26, r14
     d1c:	11 96       	adiw	r26, 0x01	; 1
     d1e:	9c 93       	st	X, r25
     d20:	8e 93       	st	-X, r24
{
    for (unsigned int i = 0; i < characteristicCount(); i++) {
     d22:	5b 96       	adiw	r26, 0x1b	; 27
     d24:	8d 91       	ld	r24, X+
     d26:	9c 91       	ld	r25, X
     d28:	5c 97       	sbiw	r26, 0x1c	; 28
     d2a:	89 2b       	or	r24, r25
     d2c:	e1 f0       	breq	.+56     	; 0xd66 <_ZN12LocalServiceD1Ev+0x5e>
     d2e:	c0 e0       	ldi	r28, 0x00	; 0
     d30:	d0 e0       	ldi	r29, 0x00	; 0
        LocalCharacteristic* c = characteristic(i);
     d32:	be 01       	movw	r22, r28
     d34:	c7 01       	movw	r24, r14
     d36:	76 df       	rcall	.-276    	; 0xc24 <_ZN12LocalService14characteristicEj>
     d38:	8c 01       	movw	r16, r24
        if (c->release() <= 0) {
     d3a:	52 d0       	rcall	.+164    	; 0xde0 <_ZN12BLEAttribute7releaseEv>
     d3c:	18 16       	cp	r1, r24
     d3e:	19 06       	cpc	r1, r25
     d40:	5c f0       	brlt	.+22     	; 0xd58 <_ZN12LocalServiceD1Ev+0x50>
     d42:	01 15       	cp	r16, r1
            delete c;
     d44:	11 05       	cpc	r17, r1
     d46:	41 f0       	breq	.+16     	; 0xd58 <_ZN12LocalServiceD1Ev+0x50>
     d48:	d8 01       	movw	r26, r16
     d4a:	ed 91       	ld	r30, X+
     d4c:	fc 91       	ld	r31, X
     d4e:	02 80       	ldd	r0, Z+2	; 0x02
     d50:	f3 81       	ldd	r31, Z+3	; 0x03
     d52:	e0 2d       	mov	r30, r0
     d54:	c8 01       	movw	r24, r16
     d56:	09 95       	icall
     d58:	21 96       	adiw	r28, 0x01	; 1
    //
}

LocalService::~LocalService()
{
    for (unsigned int i = 0; i < characteristicCount(); i++) {
     d5a:	f7 01       	movw	r30, r14
     d5c:	83 8d       	ldd	r24, Z+27	; 0x1b
     d5e:	94 8d       	ldd	r25, Z+28	; 0x1c
     d60:	c8 17       	cp	r28, r24
     d62:	d9 07       	cpc	r29, r25
     d64:	30 f3       	brcs	.-52     	; 0xd32 <_ZN12LocalServiceD1Ev+0x2a>
     d66:	e7 01       	movw	r28, r14
        LocalCharacteristic* c = characteristic(i);
        if (c->release() <= 0) {
            delete c;
        }
    }
    m_characteristics.clear();
     d68:	6b 96       	adiw	r28, 0x1b	; 27
     d6a:	ce 01       	movw	r24, r28
     d6c:	a1 df       	rcall	.-190    	; 0xcb0 <_ZN10LinkedListIP19LocalCharacteristicE5clearEv>
{
}

template <typename T> LinkedList<T>::~LinkedList()
{
    clear();
     d6e:	ce 01       	movw	r24, r28
     d70:	9f df       	rcall	.-194    	; 0xcb0 <_ZN10LinkedListIP19LocalCharacteristicE5clearEv>
LocalService::LocalService(const char* uuid) : BLEAttribute(uuid), m_startHandle(0x0000), m_endHandle(0x0000)
{
    //
}

LocalService::~LocalService()
     d72:	c7 01       	movw	r24, r14
     d74:	11 d0       	rcall	.+34     	; 0xd98 <_ZN12BLEAttributeD1Ev>
     d76:	df 91       	pop	r29
        if (c->release() <= 0) {
            delete c;
        }
    }
    m_characteristics.clear();
}
     d78:	cf 91       	pop	r28
     d7a:	1f 91       	pop	r17
     d7c:	0f 91       	pop	r16
     d7e:	ff 90       	pop	r15
     d80:	ef 90       	pop	r14
     d82:	08 95       	ret

00000d84 <_ZN12LocalServiceD0Ev>:
     d84:	cf 93       	push	r28
LocalService::LocalService(const char* uuid) : BLEAttribute(uuid), m_startHandle(0x0000), m_endHandle(0x0000)
{
    //
}

LocalService::~LocalService()
     d86:	df 93       	push	r29
     d88:	ec 01       	movw	r28, r24
        if (c->release() <= 0) {
            delete c;
        }
    }
    m_characteristics.clear();
}
     d8a:	be df       	rcall	.-132    	; 0xd08 <_ZN12LocalServiceD1Ev>
     d8c:	ce 01       	movw	r24, r28
     d8e:	0e 94 de 23 	call	0x47bc	; 0x47bc <_ZdlPv>
     d92:	df 91       	pop	r29
     d94:	cf 91       	pop	r28
     d96:	08 95       	ret

00000d98 <_ZN12BLEAttributeD1Ev>:
}

const char* BLEAttribute::uuid()
{
    return m_uuid.str();
}
     d98:	08 95       	ret

00000d9a <_ZN12BLEAttribute4typeEv>:
     d9a:	80 e0       	ldi	r24, 0x00	; 0
     d9c:	90 e0       	ldi	r25, 0x00	; 0
     d9e:	08 95       	ret

00000da0 <_ZN12BLEAttributeD0Ev>:
     da0:	0c 94 de 23 	jmp	0x47bc	; 0x47bc <_ZdlPv>
     da4:	08 95       	ret

00000da6 <_ZN12BLEAttributeC1EPKc>:
     da6:	cf 93       	push	r28
     da8:	df 93       	push	r29
     daa:	ec 01       	movw	r28, r24
     dac:	25 e5       	ldi	r18, 0x55	; 85
     dae:	32 e0       	ldi	r19, 0x02	; 2
     db0:	fc 01       	movw	r30, r24
     db2:	21 93       	st	Z+, r18
     db4:	31 93       	st	Z+, r19
     db6:	cf 01       	movw	r24, r30
     db8:	ec d1       	rcall	.+984    	; 0x1192 <_ZN7BLEUUIDC1EPKc>
     dba:	1e 8a       	std	Y+22, r1	; 0x16
     dbc:	1d 8a       	std	Y+21, r1	; 0x15
     dbe:	df 91       	pop	r29
     dc0:	cf 91       	pop	r28
     dc2:	08 95       	ret

00000dc4 <_ZN12BLEAttribute8uuidDataEv>:

const uint8_t* BLEAttribute::uuidData()
{
    return m_uuid.data();
     dc4:	02 96       	adiw	r24, 0x02	; 2
     dc6:	50 c2       	rjmp	.+1184   	; 0x1268 <_ZN7BLEUUID4dataEv>
}
     dc8:	08 95       	ret

00000dca <_ZN12BLEAttribute10uuidLengthEv>:

uint8_t BLEAttribute::uuidLength()
{
    return m_uuid.length();
     dca:	02 96       	adiw	r24, 0x02	; 2
     dcc:	4f c2       	rjmp	.+1182   	; 0x126c <_ZN7BLEUUID6lengthEv>
}
     dce:	08 95       	ret

00000dd0 <_ZN12BLEAttribute6retainEv>:
{
    return BATT_UNKNOWN;
}

int BLEAttribute::retain()
{
     dd0:	fc 01       	movw	r30, r24
    m_refCount++;
     dd2:	25 89       	ldd	r18, Z+21	; 0x15
     dd4:	36 89       	ldd	r19, Z+22	; 0x16
     dd6:	c9 01       	movw	r24, r18
     dd8:	01 96       	adiw	r24, 0x01	; 1
     dda:	96 8b       	std	Z+22, r25	; 0x16
     ddc:	85 8b       	std	Z+21, r24	; 0x15
    return m_refCount;
}
     dde:	08 95       	ret

00000de0 <_ZN12BLEAttribute7releaseEv>:

int BLEAttribute::release()
{
     de0:	fc 01       	movw	r30, r24
    m_refCount--;
     de2:	25 89       	ldd	r18, Z+21	; 0x15
     de4:	36 89       	ldd	r19, Z+22	; 0x16
     de6:	c9 01       	movw	r24, r18
     de8:	01 97       	sbiw	r24, 0x01	; 1
     dea:	96 8b       	std	Z+22, r25	; 0x16
     dec:	85 8b       	std	Z+21, r24	; 0x15
    return m_refCount;
}
     dee:	08 95       	ret

00000df0 <_ZN17BLECharacteristicD1Ev>:
{
    if (m_local) {
        return (*m_local)[offset];
    }
    return 0;
}
     df0:	cf 93       	push	r28
     df2:	df 93       	push	r29
     df4:	fc 01       	movw	r30, r24
     df6:	8f e5       	ldi	r24, 0x5F	; 95
     df8:	92 e0       	ldi	r25, 0x02	; 2
     dfa:	91 83       	std	Z+1, r25	; 0x01
     dfc:	80 83       	st	Z, r24
     dfe:	82 81       	ldd	r24, Z+2	; 0x02
     e00:	93 81       	ldd	r25, Z+3	; 0x03
     e02:	00 97       	sbiw	r24, 0x00	; 0
     e04:	81 f0       	breq	.+32     	; 0xe26 <_ZN17BLECharacteristicD1Ev+0x36>
     e06:	ef 01       	movw	r28, r30
     e08:	eb df       	rcall	.-42     	; 0xde0 <_ZN12BLEAttribute7releaseEv>
     e0a:	18 16       	cp	r1, r24
     e0c:	19 06       	cpc	r1, r25
     e0e:	5c f0       	brlt	.+22     	; 0xe26 <_ZN17BLECharacteristicD1Ev+0x36>
     e10:	8a 81       	ldd	r24, Y+2	; 0x02
     e12:	9b 81       	ldd	r25, Y+3	; 0x03
     e14:	00 97       	sbiw	r24, 0x00	; 0
     e16:	39 f0       	breq	.+14     	; 0xe26 <_ZN17BLECharacteristicD1Ev+0x36>
     e18:	dc 01       	movw	r26, r24
     e1a:	ed 91       	ld	r30, X+
     e1c:	fc 91       	ld	r31, X
     e1e:	02 80       	ldd	r0, Z+2	; 0x02
     e20:	f3 81       	ldd	r31, Z+3	; 0x03
     e22:	e0 2d       	mov	r30, r0
     e24:	09 95       	icall
     e26:	df 91       	pop	r29
     e28:	cf 91       	pop	r28
     e2a:	08 95       	ret

00000e2c <_ZN17BLECharacteristicD0Ev>:
     e2c:	cf 93       	push	r28
     e2e:	df 93       	push	r29
     e30:	ec 01       	movw	r28, r24
     e32:	de df       	rcall	.-68     	; 0xdf0 <_ZN17BLECharacteristicD1Ev>
     e34:	ce 01       	movw	r24, r28
     e36:	0e 94 de 23 	call	0x47bc	; 0x47bc <_ZdlPv>
     e3a:	df 91       	pop	r29
     e3c:	cf 91       	pop	r28
     e3e:	08 95       	ret

00000e40 <_ZN17BLECharacteristicC1EP19LocalCharacteristic>:
     e40:	2f e5       	ldi	r18, 0x5F	; 95
     e42:	32 e0       	ldi	r19, 0x02	; 2
     e44:	fc 01       	movw	r30, r24
     e46:	31 83       	std	Z+1, r19	; 0x01
     e48:	20 83       	st	Z, r18
     e4a:	73 83       	std	Z+3, r23	; 0x03
     e4c:	62 83       	std	Z+2, r22	; 0x02
     e4e:	61 15       	cp	r22, r1
     e50:	71 05       	cpc	r23, r1
     e52:	11 f0       	breq	.+4      	; 0xe58 <_ZN17BLECharacteristicC1EP19LocalCharacteristic+0x18>
     e54:	cb 01       	movw	r24, r22
     e56:	bc cf       	rjmp	.-136    	; 0xdd0 <_ZN12BLEAttribute6retainEv>
     e58:	08 95       	ret

00000e5a <_ZN17BLECharacteristicC1EPKchib>:
     e5a:	af 92       	push	r10
     e5c:	bf 92       	push	r11
     e5e:	cf 92       	push	r12
     e60:	df 92       	push	r13
     e62:	ef 92       	push	r14
     e64:	ff 92       	push	r15
     e66:	0f 93       	push	r16
     e68:	1f 93       	push	r17
     e6a:	cf 93       	push	r28
     e6c:	df 93       	push	r29
     e6e:	7c 01       	movw	r14, r24
     e70:	6b 01       	movw	r12, r22
     e72:	14 2f       	mov	r17, r20
     e74:	59 01       	movw	r10, r18
     e76:	82 e3       	ldi	r24, 0x32	; 50
     e78:	90 e0       	ldi	r25, 0x00	; 0
     e7a:	0e 94 dc 23 	call	0x47b8	; 0x47b8 <_Znwj>
     e7e:	ec 01       	movw	r28, r24
     e80:	95 01       	movw	r18, r10
     e82:	41 2f       	mov	r20, r17
     e84:	b6 01       	movw	r22, r12
     e86:	cf db       	rcall	.-2146   	; 0x626 <_ZN19LocalCharacteristicC1EPKchib>
     e88:	be 01       	movw	r22, r28
     e8a:	c7 01       	movw	r24, r14
     e8c:	d9 df       	rcall	.-78     	; 0xe40 <_ZN17BLECharacteristicC1EP19LocalCharacteristic>
     e8e:	df 91       	pop	r29
     e90:	cf 91       	pop	r28
     e92:	1f 91       	pop	r17
     e94:	0f 91       	pop	r16
     e96:	ff 90       	pop	r15
     e98:	ef 90       	pop	r14
     e9a:	df 90       	pop	r13
     e9c:	cf 90       	pop	r12
     e9e:	bf 90       	pop	r11
     ea0:	af 90       	pop	r10
     ea2:	08 95       	ret

00000ea4 <_ZN17BLECharacteristic10writeValueEPKhi>:

int BLECharacteristic::writeValue(const uint8_t value[], int length)
{
    if (m_local) {
     ea4:	fc 01       	movw	r30, r24
     ea6:	82 81       	ldd	r24, Z+2	; 0x02
     ea8:	93 81       	ldd	r25, Z+3	; 0x03
     eaa:	00 97       	sbiw	r24, 0x00	; 0
     eac:	11 f0       	breq	.+4      	; 0xeb2 <_ZN17BLECharacteristic10writeValueEPKhi+0xe>
        return m_local->writeValue(value, length);
     eae:	fc ca       	rjmp	.-2568   	; 0x4a8 <_ZN19LocalCharacteristic10writeValueEPKhi>
     eb0:	08 95       	ret
    }
    return 0;
     eb2:	80 e0       	ldi	r24, 0x00	; 0
     eb4:	90 e0       	ldi	r25, 0x00	; 0
}
     eb6:	08 95       	ret

00000eb8 <_ZN9BLEDeviceD1Ev>:
BLEDevice::BLEDevice(uint16_t handle, uint8_t address[6]) : m_handle(handle)
{
    memcpy(m_address, address, sizeof(m_address));
}

BLEDevice::~BLEDevice()
     eb8:	08 95       	ret

00000eba <_ZN9BLEDevice4pollEv>:
    //
}

void BLEDevice::poll()
{
    x_hci.poll();
     eba:	89 e6       	ldi	r24, 0x69	; 105
     ebc:	94 e0       	ldi	r25, 0x04	; 4
     ebe:	0c 94 04 1a 	jmp	0x3408	; 0x3408 <_ZN8HCIClass4pollEv>
     ec2:	08 95       	ret

00000ec4 <_ZN9BLEDevice4pollEm>:
}

void BLEDevice::poll(unsigned long timeout)
{
    x_hci.poll(timeout);
     ec4:	89 e6       	ldi	r24, 0x69	; 105
     ec6:	94 e0       	ldi	r25, 0x04	; 4
     ec8:	0c 94 94 19 	jmp	0x3328	; 0x3328 <_ZN8HCIClass4pollEm>
     ecc:	08 95       	ret

00000ece <_ZN9BLEDevice9connectedEv>:
}

bool BLEDevice::connected()
{
     ece:	cf 93       	push	r28
     ed0:	df 93       	push	r29
     ed2:	ec 01       	movw	r28, r24
    x_hci.poll();
     ed4:	89 e6       	ldi	r24, 0x69	; 105
     ed6:	94 e0       	ldi	r25, 0x04	; 4
     ed8:	0e 94 04 1a 	call	0x3408	; 0x3408 <_ZN8HCIClass4pollEv>
    if (!(*this)) {
     edc:	e8 81       	ld	r30, Y
     ede:	f9 81       	ldd	r31, Y+1	; 0x01
     ee0:	00 88       	ldd	r0, Z+16	; 0x10
     ee2:	f1 89       	ldd	r31, Z+17	; 0x11
     ee4:	e0 2d       	mov	r30, r0
     ee6:	ce 01       	movw	r24, r28
     ee8:	09 95       	icall
     eea:	88 23       	and	r24, r24
     eec:	41 f0       	breq	.+16     	; 0xefe <_ZN9BLEDevice9connectedEv+0x30>
        return false;
    }
    return x_att.connected(m_handle, m_address);
     eee:	ae 01       	movw	r20, r28
     ef0:	4a 5e       	subi	r20, 0xEA	; 234
     ef2:	5f 4f       	sbci	r21, 0xFF	; 255
     ef4:	6c 89       	ldd	r22, Y+20	; 0x14
     ef6:	7d 89       	ldd	r23, Y+21	; 0x15
     ef8:	8c e5       	ldi	r24, 0x5C	; 92
     efa:	93 e0       	ldi	r25, 0x03	; 3
     efc:	00 d3       	rcall	.+1536   	; 0x14fe <_ZN8ATTClass9connectedEjPKh>
}
     efe:	df 91       	pop	r29
     f00:	cf 91       	pop	r28
     f02:	08 95       	ret

00000f04 <_ZN9BLEDevice10disconnectEv>:

bool BLEDevice::disconnect()
{
    if (m_handle != 0xffff) {
     f04:	fc 01       	movw	r30, r24
     f06:	64 89       	ldd	r22, Z+20	; 0x14
     f08:	75 89       	ldd	r23, Z+21	; 0x15
     f0a:	6f 3f       	cpi	r22, 0xFF	; 255
     f0c:	ff ef       	ldi	r31, 0xFF	; 255
     f0e:	7f 07       	cpc	r23, r31
     f10:	49 f0       	breq	.+18     	; 0xf24 <_ZN9BLEDevice10disconnectEv+0x20>
        return x_hci.disconnect(m_handle);
     f12:	89 e6       	ldi	r24, 0x69	; 105
     f14:	94 e0       	ldi	r25, 0x04	; 4
     f16:	0e 94 97 1c 	call	0x392e	; 0x392e <_ZN8HCIClass10disconnectEj>
     f1a:	21 e0       	ldi	r18, 0x01	; 1
     f1c:	89 2b       	or	r24, r25
     f1e:	19 f4       	brne	.+6      	; 0xf26 <_ZN9BLEDevice10disconnectEv+0x22>
     f20:	20 e0       	ldi	r18, 0x00	; 0
     f22:	01 c0       	rjmp	.+2      	; 0xf26 <_ZN9BLEDevice10disconnectEv+0x22>
    }
    return false;
     f24:	20 e0       	ldi	r18, 0x00	; 0
}
     f26:	82 2f       	mov	r24, r18
     f28:	08 95       	ret

00000f2a <_ZN9BLEDevice7addressEv>:

char* BLEDevice::address()
{
     f2a:	cf 93       	push	r28
     f2c:	df 93       	push	r29
     f2e:	fc 01       	movw	r30, r24
    sprintf(m_addrString, "%02x:%02x:%02x:%02x:%02x:%02x", m_address[5], m_address[4], m_address[3], m_address[2], m_address[1], m_address[0]);
     f30:	ec 01       	movw	r28, r24
     f32:	22 96       	adiw	r28, 0x02	; 2
     f34:	86 89       	ldd	r24, Z+22	; 0x16
     f36:	1f 92       	push	r1
     f38:	8f 93       	push	r24
     f3a:	87 89       	ldd	r24, Z+23	; 0x17
     f3c:	1f 92       	push	r1
     f3e:	8f 93       	push	r24
     f40:	80 8d       	ldd	r24, Z+24	; 0x18
     f42:	1f 92       	push	r1
     f44:	8f 93       	push	r24
     f46:	81 8d       	ldd	r24, Z+25	; 0x19
     f48:	1f 92       	push	r1
     f4a:	8f 93       	push	r24
     f4c:	82 8d       	ldd	r24, Z+26	; 0x1a
     f4e:	1f 92       	push	r1
     f50:	8f 93       	push	r24
     f52:	83 8d       	ldd	r24, Z+27	; 0x1b
     f54:	1f 92       	push	r1
     f56:	8f 93       	push	r24
     f58:	8f e0       	ldi	r24, 0x0F	; 15
     f5a:	92 e0       	ldi	r25, 0x02	; 2
     f5c:	9f 93       	push	r25
     f5e:	8f 93       	push	r24
     f60:	df 93       	push	r29
     f62:	cf 93       	push	r28
     f64:	0e 94 0e 2f 	call	0x5e1c	; 0x5e1c <sprintf>
    return  m_addrString;
     f68:	8d b7       	in	r24, 0x3d	; 61
     f6a:	9e b7       	in	r25, 0x3e	; 62
     f6c:	40 96       	adiw	r24, 0x10	; 16
     f6e:	0f b6       	in	r0, 0x3f	; 63
     f70:	f8 94       	cli
     f72:	9e bf       	out	0x3e, r25	; 62
     f74:	0f be       	out	0x3f, r0	; 63
     f76:	8d bf       	out	0x3d, r24	; 61
}
     f78:	ce 01       	movw	r24, r28
     f7a:	df 91       	pop	r29
     f7c:	cf 91       	pop	r28
     f7e:	08 95       	ret

00000f80 <_ZN9BLEDevice4rssiEv>:

int BLEDevice::rssi()
{
    if (m_handle != 0xffff) {
     f80:	fc 01       	movw	r30, r24
     f82:	64 89       	ldd	r22, Z+20	; 0x14
     f84:	75 89       	ldd	r23, Z+21	; 0x15
     f86:	6f 3f       	cpi	r22, 0xFF	; 255
     f88:	ff ef       	ldi	r31, 0xFF	; 255
     f8a:	7f 07       	cpc	r23, r31
     f8c:	29 f0       	breq	.+10     	; 0xf98 <_ZN9BLEDevice4rssiEv+0x18>
        return x_hci.readRssi(m_handle);
     f8e:	89 e6       	ldi	r24, 0x69	; 105
     f90:	94 e0       	ldi	r25, 0x04	; 4
     f92:	0c 94 84 1b 	jmp	0x3708	; 0x3708 <_ZN8HCIClass8readRssiEj>
     f96:	08 95       	ret
    }
    return 127;
     f98:	8f e7       	ldi	r24, 0x7F	; 127
     f9a:	90 e0       	ldi	r25, 0x00	; 0
}
     f9c:	08 95       	ret

00000f9e <_ZN9BLEDevicecvbEv>:

BLEDevice::operator bool()
{
     f9e:	cf 93       	push	r28
     fa0:	df 93       	push	r29
     fa2:	00 d0       	rcall	.+0      	; 0xfa4 <_ZN9BLEDevicecvbEv+0x6>
     fa4:	00 d0       	rcall	.+0      	; 0xfa6 <_ZN9BLEDevicecvbEv+0x8>
     fa6:	00 d0       	rcall	.+0      	; 0xfa8 <_ZN9BLEDevicecvbEv+0xa>
     fa8:	cd b7       	in	r28, 0x3d	; 61
     faa:	de b7       	in	r29, 0x3e	; 62
    uint8_t zeros[6] = { 0x00, 0x00, 0x00, 0x00, 0x00, 0x00, };
     fac:	fe 01       	movw	r30, r28
     fae:	31 96       	adiw	r30, 0x01	; 1
     fb0:	26 e0       	ldi	r18, 0x06	; 6
     fb2:	df 01       	movw	r26, r30
     fb4:	1d 92       	st	X+, r1
     fb6:	2a 95       	dec	r18
     fb8:	e9 f7       	brne	.-6      	; 0xfb4 <_ZN9BLEDevicecvbEv+0x16>
    return ((m_handle != 0xffff) && memcmp(m_address, zeros, sizeof(zeros)) != 0);
     fba:	fc 01       	movw	r30, r24
     fbc:	24 89       	ldd	r18, Z+20	; 0x14
     fbe:	35 89       	ldd	r19, Z+21	; 0x15
     fc0:	2f 3f       	cpi	r18, 0xFF	; 255
     fc2:	3f 4f       	sbci	r19, 0xFF	; 255
     fc4:	69 f0       	breq	.+26     	; 0xfe0 <_ZN9BLEDevicecvbEv+0x42>
     fc6:	46 e0       	ldi	r20, 0x06	; 6
     fc8:	50 e0       	ldi	r21, 0x00	; 0
     fca:	be 01       	movw	r22, r28
     fcc:	6f 5f       	subi	r22, 0xFF	; 255
     fce:	7f 4f       	sbci	r23, 0xFF	; 255
     fd0:	46 96       	adiw	r24, 0x16	; 22
     fd2:	0e 94 aa 2e 	call	0x5d54	; 0x5d54 <memcmp>
     fd6:	21 e0       	ldi	r18, 0x01	; 1
     fd8:	89 2b       	or	r24, r25
     fda:	19 f4       	brne	.+6      	; 0xfe2 <_ZN9BLEDevicecvbEv+0x44>
     fdc:	20 e0       	ldi	r18, 0x00	; 0
     fde:	01 c0       	rjmp	.+2      	; 0xfe2 <_ZN9BLEDevicecvbEv+0x44>
     fe0:	20 e0       	ldi	r18, 0x00	; 0
}
     fe2:	82 2f       	mov	r24, r18
     fe4:	26 96       	adiw	r28, 0x06	; 6
     fe6:	0f b6       	in	r0, 0x3f	; 63
     fe8:	f8 94       	cli
     fea:	de bf       	out	0x3e, r29	; 62
     fec:	0f be       	out	0x3f, r0	; 63
     fee:	cd bf       	out	0x3d, r28	; 61
     ff0:	df 91       	pop	r29
     ff2:	cf 91       	pop	r28
     ff4:	08 95       	ret

00000ff6 <_ZN9BLEDeviceeqERS_>:

bool BLEDevice::operator==(BLEDevice& rhs)
{
    return ((m_handle == rhs.m_handle) && memcmp(m_address, rhs.m_address, sizeof(m_address)) == 0);
     ff6:	fc 01       	movw	r30, r24
     ff8:	44 89       	ldd	r20, Z+20	; 0x14
     ffa:	55 89       	ldd	r21, Z+21	; 0x15
     ffc:	fb 01       	movw	r30, r22
     ffe:	24 89       	ldd	r18, Z+20	; 0x14
    1000:	35 89       	ldd	r19, Z+21	; 0x15
    1002:	42 17       	cp	r20, r18
    1004:	53 07       	cpc	r21, r19
    1006:	61 f4       	brne	.+24     	; 0x1020 <_ZN9BLEDeviceeqERS_+0x2a>
    1008:	6a 5e       	subi	r22, 0xEA	; 234
    100a:	7f 4f       	sbci	r23, 0xFF	; 255
    100c:	46 e0       	ldi	r20, 0x06	; 6
    100e:	50 e0       	ldi	r21, 0x00	; 0
    1010:	46 96       	adiw	r24, 0x16	; 22
    1012:	0e 94 aa 2e 	call	0x5d54	; 0x5d54 <memcmp>
    1016:	21 e0       	ldi	r18, 0x01	; 1
    1018:	89 2b       	or	r24, r25
    101a:	19 f0       	breq	.+6      	; 0x1022 <_ZN9BLEDeviceeqERS_+0x2c>
    101c:	20 e0       	ldi	r18, 0x00	; 0
    101e:	01 c0       	rjmp	.+2      	; 0x1022 <_ZN9BLEDeviceeqERS_+0x2c>
    1020:	20 e0       	ldi	r18, 0x00	; 0
}
    1022:	82 2f       	mov	r24, r18
    1024:	08 95       	ret

00001026 <_ZN9BLEDeviceneERS_>:

bool BLEDevice::operator!=(BLEDevice& rhs)
{
    return ((m_handle != rhs.m_handle) || memcmp(m_address, rhs.m_address, sizeof(m_address)) != 0);
    1026:	fc 01       	movw	r30, r24
    1028:	44 89       	ldd	r20, Z+20	; 0x14
    102a:	55 89       	ldd	r21, Z+21	; 0x15
    102c:	fb 01       	movw	r30, r22
    102e:	24 89       	ldd	r18, Z+20	; 0x14
    1030:	35 89       	ldd	r19, Z+21	; 0x15
    1032:	42 17       	cp	r20, r18
    1034:	53 07       	cpc	r21, r19
    1036:	61 f4       	brne	.+24     	; 0x1050 <_ZN9BLEDeviceneERS_+0x2a>
    1038:	6a 5e       	subi	r22, 0xEA	; 234
    103a:	7f 4f       	sbci	r23, 0xFF	; 255
    103c:	46 e0       	ldi	r20, 0x06	; 6
    103e:	50 e0       	ldi	r21, 0x00	; 0
    1040:	46 96       	adiw	r24, 0x16	; 22
    1042:	0e 94 aa 2e 	call	0x5d54	; 0x5d54 <memcmp>
    1046:	21 e0       	ldi	r18, 0x01	; 1
    1048:	89 2b       	or	r24, r25
    104a:	19 f4       	brne	.+6      	; 0x1052 <_ZN9BLEDeviceneERS_+0x2c>
    104c:	20 e0       	ldi	r18, 0x00	; 0
    104e:	01 c0       	rjmp	.+2      	; 0x1052 <_ZN9BLEDeviceneERS_+0x2c>
    1050:	21 e0       	ldi	r18, 0x01	; 1
}
    1052:	82 2f       	mov	r24, r18
    1054:	08 95       	ret

00001056 <_ZN9BLEDeviceD0Ev>:
}

BLEDevice::~BLEDevice()
{
    //
}
    1056:	0c 94 de 23 	jmp	0x47bc	; 0x47bc <_ZdlPv>
    105a:	08 95       	ret

0000105c <_ZN9BLEDeviceC1Ev>:
#include <string.h>
#include "protocol/HCI.h"
#include "protocol/ATT.h"
#include "profile/BLEDevice.h"

BLEDevice::BLEDevice() : m_handle(0xffff)
    105c:	27 e6       	ldi	r18, 0x67	; 103
    105e:	32 e0       	ldi	r19, 0x02	; 2
    1060:	dc 01       	movw	r26, r24
    1062:	11 96       	adiw	r26, 0x01	; 1
    1064:	3c 93       	st	X, r19
    1066:	2e 93       	st	-X, r18
    1068:	2f ef       	ldi	r18, 0xFF	; 255
    106a:	3f ef       	ldi	r19, 0xFF	; 255
    106c:	55 96       	adiw	r26, 0x15	; 21
    106e:	3c 93       	st	X, r19
    1070:	2e 93       	st	-X, r18
    1072:	54 97       	sbiw	r26, 0x14	; 20
{
    memset(m_address, 0x00, sizeof(m_address));
    1074:	fc 01       	movw	r30, r24
    1076:	76 96       	adiw	r30, 0x16	; 22
    1078:	26 e0       	ldi	r18, 0x06	; 6
    107a:	df 01       	movw	r26, r30
    107c:	1d 92       	st	X+, r1
    107e:	2a 95       	dec	r18
    1080:	e9 f7       	brne	.-6      	; 0x107c <_ZN9BLEDeviceC1Ev+0x20>
    1082:	08 95       	ret

00001084 <_ZN9BLEDeviceC1EjPh>:
}

BLEDevice::BLEDevice(uint16_t handle, uint8_t address[6]) : m_handle(handle)
    1084:	dc 01       	movw	r26, r24
    1086:	87 e6       	ldi	r24, 0x67	; 103
    1088:	92 e0       	ldi	r25, 0x02	; 2
    108a:	11 96       	adiw	r26, 0x01	; 1
    108c:	9c 93       	st	X, r25
    108e:	8e 93       	st	-X, r24
    1090:	55 96       	adiw	r26, 0x15	; 21
    1092:	7c 93       	st	X, r23
    1094:	6e 93       	st	-X, r22
    1096:	54 97       	sbiw	r26, 0x14	; 20
{
    memcpy(m_address, address, sizeof(m_address));
    1098:	56 96       	adiw	r26, 0x16	; 22
    109a:	86 e0       	ldi	r24, 0x06	; 6
    109c:	fa 01       	movw	r30, r20
    109e:	01 90       	ld	r0, Z+
    10a0:	0d 92       	st	X+, r0
    10a2:	8a 95       	dec	r24
    10a4:	e1 f7       	brne	.-8      	; 0x109e <_ZN9BLEDeviceC1EjPh+0x1a>
    10a6:	08 95       	ret

000010a8 <_ZN10BLEServiceD1Ev>:
}

BLEService::BLEService(LocalService* local) : m_local(local)
{
    if (m_local) {
        m_local->retain();
    10a8:	cf 93       	push	r28
    10aa:	df 93       	push	r29
    10ac:	fc 01       	movw	r30, r24
    10ae:	81 e8       	ldi	r24, 0x81	; 129
    10b0:	92 e0       	ldi	r25, 0x02	; 2
    10b2:	91 83       	std	Z+1, r25	; 0x01
    10b4:	80 83       	st	Z, r24
    10b6:	82 81       	ldd	r24, Z+2	; 0x02
    10b8:	93 81       	ldd	r25, Z+3	; 0x03
    10ba:	00 97       	sbiw	r24, 0x00	; 0
    10bc:	81 f0       	breq	.+32     	; 0x10de <_ZN10BLEServiceD1Ev+0x36>
    10be:	ef 01       	movw	r28, r30
    10c0:	8f de       	rcall	.-738    	; 0xde0 <_ZN12BLEAttribute7releaseEv>
    10c2:	18 16       	cp	r1, r24
    10c4:	19 06       	cpc	r1, r25
    10c6:	5c f0       	brlt	.+22     	; 0x10de <_ZN10BLEServiceD1Ev+0x36>
    10c8:	8a 81       	ldd	r24, Y+2	; 0x02
    10ca:	9b 81       	ldd	r25, Y+3	; 0x03
    10cc:	00 97       	sbiw	r24, 0x00	; 0
    10ce:	39 f0       	breq	.+14     	; 0x10de <_ZN10BLEServiceD1Ev+0x36>
    10d0:	dc 01       	movw	r26, r24
    10d2:	ed 91       	ld	r30, X+
    10d4:	fc 91       	ld	r31, X
    10d6:	02 80       	ldd	r0, Z+2	; 0x02
    10d8:	f3 81       	ldd	r31, Z+3	; 0x03
    10da:	e0 2d       	mov	r30, r0
    10dc:	09 95       	icall
    10de:	df 91       	pop	r29
    10e0:	cf 91       	pop	r28
    10e2:	08 95       	ret

000010e4 <_ZN10BLEServiceD0Ev>:
    10e4:	cf 93       	push	r28
    10e6:	df 93       	push	r29
    10e8:	ec 01       	movw	r28, r24
    10ea:	de df       	rcall	.-68     	; 0x10a8 <_ZN10BLEServiceD1Ev>
    10ec:	ce 01       	movw	r24, r28
    10ee:	0e 94 de 23 	call	0x47bc	; 0x47bc <_ZdlPv>
    10f2:	df 91       	pop	r29
    10f4:	cf 91       	pop	r28
    10f6:	08 95       	ret

000010f8 <_ZN10BLEServiceC1EPKc>:
    }
}

BLEService::BLEService(const char* uuid) : BLEService(new LocalService(uuid))
    10f8:	ef 92       	push	r14
    10fa:	ff 92       	push	r15
    10fc:	0f 93       	push	r16
    10fe:	1f 93       	push	r17
    1100:	cf 93       	push	r28
    1102:	df 93       	push	r29
    1104:	8c 01       	movw	r16, r24
    1106:	7b 01       	movw	r14, r22
    1108:	81 e2       	ldi	r24, 0x21	; 33
    110a:	90 e0       	ldi	r25, 0x00	; 0
    110c:	0e 94 dc 23 	call	0x47b8	; 0x47b8 <_Znwj>
    1110:	ec 01       	movw	r28, r24
    1112:	b7 01       	movw	r22, r14
    1114:	6a dd       	rcall	.-1324   	; 0xbea <_ZN12LocalServiceC1EPKc>
BLEService::BLEService() : BLEService((LocalService*)NULL)
{
    //
}

BLEService::BLEService(LocalService* local) : m_local(local)
    1116:	81 e8       	ldi	r24, 0x81	; 129
    1118:	92 e0       	ldi	r25, 0x02	; 2
    111a:	f8 01       	movw	r30, r16
    111c:	91 83       	std	Z+1, r25	; 0x01
    111e:	80 83       	st	Z, r24
    1120:	d3 83       	std	Z+3, r29	; 0x03
    1122:	c2 83       	std	Z+2, r28	; 0x02
{
    if (m_local) {
    1124:	20 97       	sbiw	r28, 0x00	; 0
    1126:	11 f0       	breq	.+4      	; 0x112c <__stack+0x2d>
        m_local->retain();
    1128:	ce 01       	movw	r24, r28
    112a:	52 de       	rcall	.-860    	; 0xdd0 <_ZN12BLEAttribute6retainEv>
}

BLEService::BLEService(const char* uuid) : BLEService(new LocalService(uuid))
{
    //
}
    112c:	df 91       	pop	r29
    112e:	cf 91       	pop	r28
    1130:	1f 91       	pop	r17
    1132:	0f 91       	pop	r16
    1134:	ff 90       	pop	r15
    1136:	ef 90       	pop	r14
    1138:	08 95       	ret

0000113a <_ZN22BLETypedCharacteristicIhEC1EPKch>:
    T   valueBE(void);
private:
    T   byteSwap(T value);
};

template<typename T> BLETypedCharacteristic<T>::BLETypedCharacteristic(const char* uuid, unsigned char properties) : BLECharacteristic(uuid, properties, sizeof(T), true)
    113a:	ef 92       	push	r14
    113c:	ff 92       	push	r15
    113e:	0f 93       	push	r16
    1140:	cf 93       	push	r28
    1142:	df 93       	push	r29
    1144:	1f 92       	push	r1
    1146:	cd b7       	in	r28, 0x3d	; 61
    1148:	de b7       	in	r29, 0x3e	; 62
    114a:	7c 01       	movw	r14, r24
    114c:	01 e0       	ldi	r16, 0x01	; 1
    114e:	21 e0       	ldi	r18, 0x01	; 1
    1150:	30 e0       	ldi	r19, 0x00	; 0
    1152:	83 de       	rcall	.-762    	; 0xe5a <_ZN17BLECharacteristicC1EPKchib>
    1154:	82 ef       	ldi	r24, 0xF2	; 242
    1156:	91 e0       	ldi	r25, 0x01	; 1
    1158:	f7 01       	movw	r30, r14
    115a:	91 83       	std	Z+1, r25	; 0x01
    115c:	80 83       	st	Z, r24
    115e:	19 82       	std	Y+1, r1	; 0x01
    writeValue(value);
}

template<typename T> int BLETypedCharacteristic<T>::writeValue(T value)
{
    return BLECharacteristic::writeValue((uint8_t*)&value, sizeof(T));
    1160:	41 e0       	ldi	r20, 0x01	; 1
    1162:	50 e0       	ldi	r21, 0x00	; 0
    1164:	be 01       	movw	r22, r28
    1166:	6f 5f       	subi	r22, 0xFF	; 255
    1168:	7f 4f       	sbci	r23, 0xFF	; 255
    116a:	c7 01       	movw	r24, r14
    116c:	9b de       	rcall	.-714    	; 0xea4 <_ZN17BLECharacteristic10writeValueEPKhi>
template<typename T> BLETypedCharacteristic<T>::BLETypedCharacteristic(const char* uuid, unsigned char properties) : BLECharacteristic(uuid, properties, sizeof(T), true)
{
    T value;
    memset(&value, 0x00, sizeof(value));
    writeValue(value);
}
    116e:	0f 90       	pop	r0
    1170:	df 91       	pop	r29
    1172:	cf 91       	pop	r28
    1174:	0f 91       	pop	r16
    1176:	ff 90       	pop	r15
    1178:	ef 90       	pop	r14
    117a:	08 95       	ret

0000117c <_ZN29BLEUnsignedCharCharacteristicC1EPKch>:
#include "BLETypedCharacteristics.h"

BLEBoolCharacteristic::BLEBoolCharacteristic(const char* uuid, unsigned char properties) :       BLETypedCharacteristic<bool>(uuid, properties) { }
BLEBooleanCharacteristic::BLEBooleanCharacteristic(const char* uuid, unsigned char properties) : BLETypedCharacteristic<bool>(uuid, properties) { }
BLECharCharacteristic::BLECharCharacteristic(const char* uuid, unsigned char properties) :       BLETypedCharacteristic<char>(uuid, properties) { }
BLEUnsignedCharCharacteristic::BLEUnsignedCharCharacteristic(const char* uuid, unsigned char properties)   : BLETypedCharacteristic<unsigned char>(uuid, properties) { }
    117c:	cf 93       	push	r28
    117e:	df 93       	push	r29
    1180:	ec 01       	movw	r28, r24
    1182:	db df       	rcall	.-74     	; 0x113a <_ZN22BLETypedCharacteristicIhEC1EPKch>
    1184:	89 e8       	ldi	r24, 0x89	; 137
    1186:	92 e0       	ldi	r25, 0x02	; 2
    1188:	99 83       	std	Y+1, r25	; 0x01
    118a:	88 83       	st	Y, r24
    118c:	df 91       	pop	r29
    118e:	cf 91       	pop	r28
    1190:	08 95       	ret

00001192 <_ZN7BLEUUIDC1EPKc>:
}

const char* BLEUUID::str()
{
    return m_str;
}
    1192:	af 92       	push	r10
    1194:	bf 92       	push	r11
    1196:	df 92       	push	r13
    1198:	ef 92       	push	r14
    119a:	ff 92       	push	r15
    119c:	0f 93       	push	r16
    119e:	1f 93       	push	r17
    11a0:	cf 93       	push	r28
    11a2:	df 93       	push	r29
    11a4:	00 d0       	rcall	.+0      	; 0x11a6 <_ZN7BLEUUIDC1EPKc+0x14>
    11a6:	1f 92       	push	r1
    11a8:	cd b7       	in	r28, 0x3d	; 61
    11aa:	de b7       	in	r29, 0x3e	; 62
    11ac:	7c 01       	movw	r14, r24
    11ae:	5b 01       	movw	r10, r22
    11b0:	fc 01       	movw	r30, r24
    11b2:	61 93       	st	Z+, r22
    11b4:	71 93       	st	Z+, r23
    11b6:	19 82       	std	Y+1, r1	; 0x01
    11b8:	1a 82       	std	Y+2, r1	; 0x02
    11ba:	1b 82       	std	Y+3, r1	; 0x03
    11bc:	80 e1       	ldi	r24, 0x10	; 16
    11be:	df 01       	movw	r26, r30
    11c0:	1d 92       	st	X+, r1
    11c2:	8a 95       	dec	r24
    11c4:	e9 f7       	brne	.-6      	; 0x11c0 <_ZN7BLEUUIDC1EPKc+0x2e>
    11c6:	f7 01       	movw	r30, r14
    11c8:	12 8a       	std	Z+18, r1	; 0x12
    11ca:	fb 01       	movw	r30, r22
    11cc:	01 90       	ld	r0, Z+
    11ce:	00 20       	and	r0, r0
    11d0:	e9 f7       	brne	.-6      	; 0x11cc <_ZN7BLEUUIDC1EPKc+0x3a>
    11d2:	8f 01       	movw	r16, r30
    11d4:	06 1b       	sub	r16, r22
    11d6:	17 0b       	sbc	r17, r23
    11d8:	02 50       	subi	r16, 0x02	; 2
    11da:	11 09       	sbc	r17, r1
    11dc:	82 f1       	brmi	.+96     	; 0x123e <_ZN7BLEUUIDC1EPKc+0xac>
    11de:	d1 2c       	mov	r13, r1
    11e0:	06 c0       	rjmp	.+12     	; 0x11ee <_ZN7BLEUUIDC1EPKc+0x5c>
    11e2:	d7 01       	movw	r26, r14
    11e4:	52 96       	adiw	r26, 0x12	; 18
    11e6:	dc 90       	ld	r13, X
    11e8:	bf e0       	ldi	r27, 0x0F	; 15
    11ea:	bd 15       	cp	r27, r13
    11ec:	18 f1       	brcs	.+70     	; 0x1234 <_ZN7BLEUUIDC1EPKc+0xa2>
    11ee:	f5 01       	movw	r30, r10
    11f0:	e0 0f       	add	r30, r16
    11f2:	f1 1f       	adc	r31, r17
    11f4:	80 81       	ld	r24, Z
    11f6:	8d 32       	cpi	r24, 0x2D	; 45
    11f8:	19 f4       	brne	.+6      	; 0x1200 <_ZN7BLEUUIDC1EPKc+0x6e>
    11fa:	0f 5f       	subi	r16, 0xFF	; 255
    11fc:	1f 4f       	sbci	r17, 0xFF	; 255
    11fe:	17 c0       	rjmp	.+46     	; 0x122e <_ZN7BLEUUIDC1EPKc+0x9c>
    1200:	f5 01       	movw	r30, r10
    1202:	e0 0f       	add	r30, r16
    1204:	f1 1f       	adc	r31, r17
    1206:	31 97       	sbiw	r30, 0x01	; 1
    1208:	90 81       	ld	r25, Z
    120a:	99 83       	std	Y+1, r25	; 0x01
    120c:	8a 83       	std	Y+2, r24	; 0x02
    120e:	40 e1       	ldi	r20, 0x10	; 16
    1210:	50 e0       	ldi	r21, 0x00	; 0
    1212:	60 e0       	ldi	r22, 0x00	; 0
    1214:	70 e0       	ldi	r23, 0x00	; 0
    1216:	ce 01       	movw	r24, r28
    1218:	01 96       	adiw	r24, 0x01	; 1
    121a:	0e 94 b5 2c 	call	0x596a	; 0x596a <strtoul>
    121e:	f7 01       	movw	r30, r14
    1220:	ed 0d       	add	r30, r13
    1222:	f1 1d       	adc	r31, r1
    1224:	62 83       	std	Z+2, r22	; 0x02
    1226:	f7 01       	movw	r30, r14
    1228:	82 89       	ldd	r24, Z+18	; 0x12
    122a:	8f 5f       	subi	r24, 0xFF	; 255
    122c:	82 8b       	std	Z+18, r24	; 0x12
    122e:	02 50       	subi	r16, 0x02	; 2
    1230:	11 09       	sbc	r17, r1
    1232:	ba f6       	brpl	.-82     	; 0x11e2 <_ZN7BLEUUIDC1EPKc+0x50>
    1234:	d7 01       	movw	r26, r14
    1236:	52 96       	adiw	r26, 0x12	; 18
    1238:	8c 91       	ld	r24, X
    123a:	83 30       	cpi	r24, 0x03	; 3
    123c:	20 f4       	brcc	.+8      	; 0x1246 <_ZN7BLEUUIDC1EPKc+0xb4>
    123e:	82 e0       	ldi	r24, 0x02	; 2
    1240:	f7 01       	movw	r30, r14
    1242:	82 8b       	std	Z+18, r24	; 0x12
    1244:	04 c0       	rjmp	.+8      	; 0x124e <_ZN7BLEUUIDC1EPKc+0xbc>
    1246:	80 e1       	ldi	r24, 0x10	; 16
    1248:	d7 01       	movw	r26, r14
    124a:	52 96       	adiw	r26, 0x12	; 18
    124c:	8c 93       	st	X, r24
    124e:	0f 90       	pop	r0
    1250:	0f 90       	pop	r0
    1252:	0f 90       	pop	r0
    1254:	df 91       	pop	r29
    1256:	cf 91       	pop	r28
    1258:	1f 91       	pop	r17
    125a:	0f 91       	pop	r16
    125c:	ff 90       	pop	r15
    125e:	ef 90       	pop	r14
    1260:	df 90       	pop	r13
    1262:	bf 90       	pop	r11
    1264:	af 90       	pop	r10
    1266:	08 95       	ret

00001268 <_ZN7BLEUUID4dataEv>:

const uint8_t* BLEUUID::data()
{
    return m_data;
}
    1268:	02 96       	adiw	r24, 0x02	; 2
    126a:	08 95       	ret

0000126c <_ZN7BLEUUID6lengthEv>:

uint8_t BLEUUID::length()
{
    return m_length;
}
    126c:	fc 01       	movw	r30, r24
    126e:	82 89       	ldd	r24, Z+18	; 0x12
    1270:	08 95       	ret

00001272 <_ZN8ATTClassD1Ev>:
}

void ATTClass::setEventHandler(BLEDeviceEvent event, BLEDeviceEventHandler eventHandler)
{
    if (event < (sizeof(m_eventHandlers) / (sizeof(m_eventHandlers[0])))) {
        m_eventHandlers[event] = eventHandler;
    1272:	21 e9       	ldi	r18, 0x91	; 145
    1274:	32 e0       	ldi	r19, 0x02	; 2
    1276:	fc 01       	movw	r30, r24
    1278:	31 83       	std	Z+1, r19	; 0x01
    127a:	20 83       	st	Z, r18
    127c:	82 85       	ldd	r24, Z+10	; 0x0a
    127e:	93 85       	ldd	r25, Z+11	; 0x0b
    1280:	00 97       	sbiw	r24, 0x00	; 0
    1282:	11 f0       	breq	.+4      	; 0x1288 <_ZN8ATTClassD1Ev+0x16>
    1284:	0c 94 4c 2b 	jmp	0x5698	; 0x5698 <free>
    1288:	08 95       	ret

0000128a <_ZN8ATTClassD0Ev>:
    128a:	cf 93       	push	r28
    128c:	df 93       	push	r29
    128e:	ec 01       	movw	r28, r24
    1290:	f0 df       	rcall	.-32     	; 0x1272 <_ZN8ATTClassD1Ev>
    1292:	ce 01       	movw	r24, r28
    1294:	0e 94 de 23 	call	0x47bc	; 0x47bc <_ZdlPv>
    1298:	df 91       	pop	r29
    129a:	cf 91       	pop	r28
    129c:	08 95       	ret

0000129e <_ZN8ATTClassC1Ev>:
    129e:	cf 93       	push	r28
    12a0:	df 93       	push	r29
    12a2:	fc 01       	movw	r30, r24
    12a4:	81 e9       	ldi	r24, 0x91	; 145
    12a6:	92 e0       	ldi	r25, 0x02	; 2
    12a8:	91 83       	std	Z+1, r25	; 0x01
    12aa:	80 83       	st	Z, r24
    12ac:	87 e1       	ldi	r24, 0x17	; 23
    12ae:	90 e0       	ldi	r25, 0x00	; 0
    12b0:	93 83       	std	Z+3, r25	; 0x03
    12b2:	82 83       	std	Z+2, r24	; 0x02
    12b4:	2f ef       	ldi	r18, 0xFF	; 255
    12b6:	3f ef       	ldi	r19, 0xFF	; 255
    12b8:	35 83       	std	Z+5, r19	; 0x05
    12ba:	24 83       	std	Z+4, r18	; 0x04
    12bc:	97 83       	std	Z+7, r25	; 0x07
    12be:	86 83       	std	Z+6, r24	; 0x06
    12c0:	11 86       	std	Z+9, r1	; 0x09
    12c2:	10 86       	std	Z+8, r1	; 0x08
    12c4:	13 86       	std	Z+11, r1	; 0x0b
    12c6:	12 86       	std	Z+10, r1	; 0x0a
    12c8:	15 86       	std	Z+13, r1	; 0x0d
    12ca:	14 86       	std	Z+12, r1	; 0x0c
    12cc:	df 01       	movw	r26, r30
    12ce:	1e 96       	adiw	r26, 0x0e	; 14
    12d0:	86 e0       	ldi	r24, 0x06	; 6
    12d2:	ed 01       	movw	r28, r26
    12d4:	19 92       	st	Y+, r1
    12d6:	8a 95       	dec	r24
    12d8:	e9 f7       	brne	.-6      	; 0x12d4 <_ZN8ATTClassC1Ev+0x36>
    12da:	75 96       	adiw	r30, 0x15	; 21
    12dc:	84 e0       	ldi	r24, 0x04	; 4
    12de:	df 01       	movw	r26, r30
    12e0:	1d 92       	st	X+, r1
    12e2:	8a 95       	dec	r24
    12e4:	e9 f7       	brne	.-6      	; 0x12e0 <_ZN8ATTClassC1Ev+0x42>
    12e6:	df 91       	pop	r29
    12e8:	cf 91       	pop	r28
    12ea:	08 95       	ret

000012ec <_ZN8ATTClass13addConnectionEjhhPhjjjh>:
    12ec:	0f 93       	push	r16
    12ee:	1f 93       	push	r17
    12f0:	cf 93       	push	r28
    12f2:	df 93       	push	r29
    12f4:	cd b7       	in	r28, 0x3d	; 61
    12f6:	de b7       	in	r29, 0x3e	; 62
    12f8:	6c 97       	sbiw	r28, 0x1c	; 28
    12fa:	0f b6       	in	r0, 0x3f	; 63
    12fc:	f8 94       	cli
    12fe:	de bf       	out	0x3e, r29	; 62
    1300:	0f be       	out	0x3f, r0	; 63
    1302:	cd bf       	out	0x3d, r28	; 61
    1304:	41 30       	cpi	r20, 0x01	; 1
    1306:	09 f5       	brne	.+66     	; 0x134a <_ZN8ATTClass13addConnectionEjhhPhjjjh+0x5e>
    1308:	fc 01       	movw	r30, r24
    130a:	75 83       	std	Z+5, r23	; 0x05
    130c:	64 83       	std	Z+4, r22	; 0x04
    130e:	27 e1       	ldi	r18, 0x17	; 23
    1310:	30 e0       	ldi	r19, 0x00	; 0
    1312:	37 83       	std	Z+7, r19	; 0x07
    1314:	26 83       	std	Z+6, r18	; 0x06
    1316:	ac 01       	movw	r20, r24
    1318:	42 5f       	subi	r20, 0xF2	; 242
    131a:	5f 4f       	sbci	r21, 0xFF	; 255
    131c:	26 e0       	ldi	r18, 0x06	; 6
    131e:	f8 01       	movw	r30, r16
    1320:	da 01       	movw	r26, r20
    1322:	01 90       	ld	r0, Z+
    1324:	0d 92       	st	X+, r0
    1326:	2a 95       	dec	r18
    1328:	e1 f7       	brne	.-8      	; 0x1322 <_ZN8ATTClass13addConnectionEjhhPhjjjh+0x36>
    132a:	fc 01       	movw	r30, r24
    132c:	05 89       	ldd	r16, Z+21	; 0x15
    132e:	16 89       	ldd	r17, Z+22	; 0x16
    1330:	01 15       	cp	r16, r1
    1332:	11 05       	cpc	r17, r1
    1334:	51 f0       	breq	.+20     	; 0x134a <_ZN8ATTClass13addConnectionEjhhPhjjjh+0x5e>
    1336:	ce 01       	movw	r24, r28
    1338:	01 96       	adiw	r24, 0x01	; 1
    133a:	a4 de       	rcall	.-696    	; 0x1084 <_ZN9BLEDeviceC1EjPh>
    133c:	ce 01       	movw	r24, r28
    133e:	01 96       	adiw	r24, 0x01	; 1
    1340:	f8 01       	movw	r30, r16
    1342:	09 95       	icall
    1344:	ce 01       	movw	r24, r28
    1346:	01 96       	adiw	r24, 0x01	; 1
    1348:	b7 dd       	rcall	.-1170   	; 0xeb8 <_ZN9BLEDeviceD1Ev>
    134a:	6c 96       	adiw	r28, 0x1c	; 28
    134c:	0f b6       	in	r0, 0x3f	; 63
    134e:	f8 94       	cli
    1350:	de bf       	out	0x3e, r29	; 62
    1352:	0f be       	out	0x3f, r0	; 63
    1354:	cd bf       	out	0x3d, r28	; 61
    1356:	df 91       	pop	r29
    1358:	cf 91       	pop	r28
    135a:	1f 91       	pop	r17
    135c:	0f 91       	pop	r16
    135e:	08 95       	ret

00001360 <_ZN8ATTClass16removeConnectionEhj>:
    1360:	8f 92       	push	r8
    1362:	9f 92       	push	r9
    1364:	af 92       	push	r10
    1366:	bf 92       	push	r11
    1368:	cf 92       	push	r12
    136a:	df 92       	push	r13
    136c:	ef 92       	push	r14
    136e:	ff 92       	push	r15
    1370:	0f 93       	push	r16
    1372:	1f 93       	push	r17
    1374:	cf 93       	push	r28
    1376:	df 93       	push	r29
    1378:	cd b7       	in	r28, 0x3d	; 61
    137a:	de b7       	in	r29, 0x3e	; 62
    137c:	c4 55       	subi	r28, 0x54	; 84
    137e:	d1 09       	sbc	r29, r1
    1380:	0f b6       	in	r0, 0x3f	; 63
    1382:	f8 94       	cli
    1384:	de bf       	out	0x3e, r29	; 62
    1386:	0f be       	out	0x3f, r0	; 63
    1388:	cd bf       	out	0x3d, r28	; 61
    138a:	dc 01       	movw	r26, r24
    138c:	14 96       	adiw	r26, 0x04	; 4
    138e:	ed 91       	ld	r30, X+
    1390:	fc 91       	ld	r31, X
    1392:	15 97       	sbiw	r26, 0x05	; 5
    1394:	26 2f       	mov	r18, r22
    1396:	30 e0       	ldi	r19, 0x00	; 0
    1398:	e2 17       	cp	r30, r18
    139a:	f3 07       	cpc	r31, r19
    139c:	09 f0       	breq	.+2      	; 0x13a0 <_ZN8ATTClass16removeConnectionEhj+0x40>
    139e:	92 c0       	rjmp	.+292    	; 0x14c4 <_ZN8ATTClass16removeConnectionEhj+0x164>
    13a0:	6c 01       	movw	r12, r24
    13a2:	5c 01       	movw	r10, r24
    13a4:	be e0       	ldi	r27, 0x0E	; 14
    13a6:	ab 0e       	add	r10, r27
    13a8:	b1 1c       	adc	r11, r1
    13aa:	a5 01       	movw	r20, r10
    13ac:	bf 01       	movw	r22, r30
    13ae:	ce 01       	movw	r24, r28
    13b0:	c9 96       	adiw	r24, 0x39	; 57
    13b2:	68 de       	rcall	.-816    	; 0x1084 <_ZN9BLEDeviceC1EjPh>
    13b4:	00 e0       	ldi	r16, 0x00	; 0
    13b6:	10 e0       	ldi	r17, 0x00	; 0
    13b8:	0f 2e       	mov	r0, r31
    13ba:	f7 e6       	ldi	r31, 0x67	; 103
    13bc:	8f 2e       	mov	r8, r31
    13be:	f2 e0       	ldi	r31, 0x02	; 2
    13c0:	9f 2e       	mov	r9, r31
    13c2:	f0 2d       	mov	r31, r0
    13c4:	89 e8       	ldi	r24, 0x89	; 137
    13c6:	93 e0       	ldi	r25, 0x03	; 3
    13c8:	0e 94 d7 17 	call	0x2fae	; 0x2fae <_ZN9GATTClass14attributeCountEv>
    13cc:	08 17       	cp	r16, r24
    13ce:	19 07       	cpc	r17, r25
    13d0:	c0 f5       	brcc	.+112    	; 0x1442 <_ZN8ATTClass16removeConnectionEhj+0xe2>
    13d2:	b8 01       	movw	r22, r16
    13d4:	89 e8       	ldi	r24, 0x89	; 137
    13d6:	93 e0       	ldi	r25, 0x03	; 3
    13d8:	0e 94 dd 17 	call	0x2fba	; 0x2fba <_ZN9GATTClass9attributeEj>
    13dc:	7c 01       	movw	r14, r24
    13de:	dc 01       	movw	r26, r24
    13e0:	ed 91       	ld	r30, X+
    13e2:	fc 91       	ld	r31, X
    13e4:	04 80       	ldd	r0, Z+4	; 0x04
    13e6:	f5 81       	ldd	r31, Z+5	; 0x05
    13e8:	e0 2d       	mov	r30, r0
    13ea:	09 95       	icall
    13ec:	83 30       	cpi	r24, 0x03	; 3
    13ee:	98 42       	sbci	r25, 0x28	; 40
    13f0:	29 f5       	brne	.+74     	; 0x143c <_ZN8ATTClass16removeConnectionEhj+0xdc>
    13f2:	9e 8e       	std	Y+30, r9	; 0x1e
    13f4:	8d 8e       	std	Y+29, r8	; 0x1d
    13f6:	82 e1       	ldi	r24, 0x12	; 18
    13f8:	fe 01       	movw	r30, r28
    13fa:	fb 96       	adiw	r30, 0x3b	; 59
    13fc:	de 01       	movw	r26, r28
    13fe:	5f 96       	adiw	r26, 0x1f	; 31
    1400:	01 90       	ld	r0, Z+
    1402:	0d 92       	st	X+, r0
    1404:	8a 95       	dec	r24
    1406:	e1 f7       	brne	.-8      	; 0x1400 <_ZN8ATTClass16removeConnectionEhj+0xa0>
    1408:	2f 96       	adiw	r28, 0x0f	; 15
    140a:	8e ad       	ldd	r24, Y+62	; 0x3e
    140c:	9f ad       	ldd	r25, Y+63	; 0x3f
    140e:	2f 97       	sbiw	r28, 0x0f	; 15
    1410:	9a ab       	std	Y+50, r25	; 0x32
    1412:	89 ab       	std	Y+49, r24	; 0x31
    1414:	86 e0       	ldi	r24, 0x06	; 6
    1416:	fe 01       	movw	r30, r28
    1418:	e1 5b       	subi	r30, 0xB1	; 177
    141a:	ff 4f       	sbci	r31, 0xFF	; 255
    141c:	de 01       	movw	r26, r28
    141e:	d3 96       	adiw	r26, 0x33	; 51
    1420:	01 90       	ld	r0, Z+
    1422:	0d 92       	st	X+, r0
    1424:	8a 95       	dec	r24
    1426:	e1 f7       	brne	.-8      	; 0x1420 <_ZN8ATTClass16removeConnectionEhj+0xc0>
    1428:	40 e0       	ldi	r20, 0x00	; 0
    142a:	50 e0       	ldi	r21, 0x00	; 0
    142c:	be 01       	movw	r22, r28
    142e:	63 5e       	subi	r22, 0xE3	; 227
    1430:	7f 4f       	sbci	r23, 0xFF	; 255
    1432:	c7 01       	movw	r24, r14
    1434:	85 da       	rcall	.-2806   	; 0x940 <_ZN19LocalCharacteristic14writeCccdValueE9BLEDevicej>
    1436:	ce 01       	movw	r24, r28
    1438:	4d 96       	adiw	r24, 0x1d	; 29
    143a:	3e dd       	rcall	.-1412   	; 0xeb8 <_ZN9BLEDeviceD1Ev>
    143c:	0f 5f       	subi	r16, 0xFF	; 255
    143e:	1f 4f       	sbci	r17, 0xFF	; 255
    1440:	c1 cf       	rjmp	.-126    	; 0x13c4 <_ZN8ATTClass16removeConnectionEhj+0x64>
    1442:	f6 01       	movw	r30, r12
    1444:	27 89       	ldd	r18, Z+23	; 0x17
    1446:	30 8d       	ldd	r19, Z+24	; 0x18
    1448:	21 15       	cp	r18, r1
    144a:	31 05       	cpc	r19, r1
    144c:	21 f1       	breq	.+72     	; 0x1496 <_ZN8ATTClass16removeConnectionEhj+0x136>
    144e:	87 e6       	ldi	r24, 0x67	; 103
    1450:	92 e0       	ldi	r25, 0x02	; 2
    1452:	9a 83       	std	Y+2, r25	; 0x02
    1454:	89 83       	std	Y+1, r24	; 0x01
    1456:	82 e1       	ldi	r24, 0x12	; 18
    1458:	fe 01       	movw	r30, r28
    145a:	fb 96       	adiw	r30, 0x3b	; 59
    145c:	de 01       	movw	r26, r28
    145e:	13 96       	adiw	r26, 0x03	; 3
    1460:	01 90       	ld	r0, Z+
    1462:	0d 92       	st	X+, r0
    1464:	8a 95       	dec	r24
    1466:	e1 f7       	brne	.-8      	; 0x1460 <_ZN8ATTClass16removeConnectionEhj+0x100>
    1468:	2f 96       	adiw	r28, 0x0f	; 15
    146a:	8e ad       	ldd	r24, Y+62	; 0x3e
    146c:	9f ad       	ldd	r25, Y+63	; 0x3f
    146e:	2f 97       	sbiw	r28, 0x0f	; 15
    1470:	9e 8b       	std	Y+22, r25	; 0x16
    1472:	8d 8b       	std	Y+21, r24	; 0x15
    1474:	86 e0       	ldi	r24, 0x06	; 6
    1476:	fe 01       	movw	r30, r28
    1478:	e1 5b       	subi	r30, 0xB1	; 177
    147a:	ff 4f       	sbci	r31, 0xFF	; 255
    147c:	de 01       	movw	r26, r28
    147e:	57 96       	adiw	r26, 0x17	; 23
    1480:	01 90       	ld	r0, Z+
    1482:	0d 92       	st	X+, r0
    1484:	8a 95       	dec	r24
    1486:	e1 f7       	brne	.-8      	; 0x1480 <_ZN8ATTClass16removeConnectionEhj+0x120>
    1488:	ce 01       	movw	r24, r28
    148a:	01 96       	adiw	r24, 0x01	; 1
    148c:	f9 01       	movw	r30, r18
    148e:	09 95       	icall
    1490:	ce 01       	movw	r24, r28
    1492:	01 96       	adiw	r24, 0x01	; 1
    1494:	11 dd       	rcall	.-1502   	; 0xeb8 <_ZN9BLEDeviceD1Ev>
    1496:	8f ef       	ldi	r24, 0xFF	; 255
    1498:	9f ef       	ldi	r25, 0xFF	; 255
    149a:	d6 01       	movw	r26, r12
    149c:	15 96       	adiw	r26, 0x05	; 5
    149e:	9c 93       	st	X, r25
    14a0:	8e 93       	st	-X, r24
    14a2:	14 97       	sbiw	r26, 0x04	; 4
    14a4:	86 e0       	ldi	r24, 0x06	; 6
    14a6:	f5 01       	movw	r30, r10
    14a8:	11 92       	st	Z+, r1
    14aa:	8a 95       	dec	r24
    14ac:	e9 f7       	brne	.-6      	; 0x14a8 <_ZN8ATTClass16removeConnectionEhj+0x148>
    14ae:	19 96       	adiw	r26, 0x09	; 9
    14b0:	1c 92       	st	X, r1
    14b2:	1e 92       	st	-X, r1
    14b4:	18 97       	sbiw	r26, 0x08	; 8
    14b6:	1d 96       	adiw	r26, 0x0d	; 13
    14b8:	1c 92       	st	X, r1
    14ba:	1e 92       	st	-X, r1
    14bc:	1c 97       	sbiw	r26, 0x0c	; 12
    14be:	ce 01       	movw	r24, r28
    14c0:	c9 96       	adiw	r24, 0x39	; 57
    14c2:	fa dc       	rcall	.-1548   	; 0xeb8 <_ZN9BLEDeviceD1Ev>
    14c4:	cc 5a       	subi	r28, 0xAC	; 172
    14c6:	df 4f       	sbci	r29, 0xFF	; 255
    14c8:	0f b6       	in	r0, 0x3f	; 63
    14ca:	f8 94       	cli
    14cc:	de bf       	out	0x3e, r29	; 62
    14ce:	0f be       	out	0x3f, r0	; 63
    14d0:	cd bf       	out	0x3d, r28	; 61
    14d2:	df 91       	pop	r29
    14d4:	cf 91       	pop	r28
    14d6:	1f 91       	pop	r17
    14d8:	0f 91       	pop	r16
    14da:	ff 90       	pop	r15
    14dc:	ef 90       	pop	r14
    14de:	df 90       	pop	r13
    14e0:	cf 90       	pop	r12
    14e2:	bf 90       	pop	r11
    14e4:	af 90       	pop	r10
    14e6:	9f 90       	pop	r9
    14e8:	8f 90       	pop	r8
    14ea:	08 95       	ret

000014ec <_ZN8ATTClass9connectedEv>:
    14ec:	21 e0       	ldi	r18, 0x01	; 1
    14ee:	fc 01       	movw	r30, r24
    14f0:	84 81       	ldd	r24, Z+4	; 0x04
    14f2:	95 81       	ldd	r25, Z+5	; 0x05
    14f4:	01 96       	adiw	r24, 0x01	; 1
    14f6:	09 f4       	brne	.+2      	; 0x14fa <_ZN8ATTClass9connectedEv+0xe>
    14f8:	20 e0       	ldi	r18, 0x00	; 0
    14fa:	82 2f       	mov	r24, r18
    14fc:	08 95       	ret

000014fe <_ZN8ATTClass9connectedEjPKh>:
    14fe:	fc 01       	movw	r30, r24
    1500:	24 81       	ldd	r18, Z+4	; 0x04
    1502:	35 81       	ldd	r19, Z+5	; 0x05
    1504:	26 17       	cp	r18, r22
    1506:	37 07       	cpc	r19, r23
    1508:	59 f4       	brne	.+22     	; 0x1520 <_ZN8ATTClass9connectedEjPKh+0x22>
    150a:	ba 01       	movw	r22, r20
    150c:	46 e0       	ldi	r20, 0x06	; 6
    150e:	50 e0       	ldi	r21, 0x00	; 0
    1510:	0e 96       	adiw	r24, 0x0e	; 14
    1512:	0e 94 aa 2e 	call	0x5d54	; 0x5d54 <memcmp>
    1516:	21 e0       	ldi	r18, 0x01	; 1
    1518:	89 2b       	or	r24, r25
    151a:	19 f0       	breq	.+6      	; 0x1522 <_ZN8ATTClass9connectedEjPKh+0x24>
    151c:	20 e0       	ldi	r18, 0x00	; 0
    151e:	01 c0       	rjmp	.+2      	; 0x1522 <_ZN8ATTClass9connectedEjPKh+0x24>
    1520:	20 e0       	ldi	r18, 0x00	; 0
    1522:	82 2f       	mov	r24, r18
    1524:	08 95       	ret

00001526 <_ZN8ATTClass10disconnectEv>:
    1526:	cf 93       	push	r28
    1528:	df 93       	push	r29
    152a:	fc 01       	movw	r30, r24
    152c:	64 81       	ldd	r22, Z+4	; 0x04
    152e:	75 81       	ldd	r23, Z+5	; 0x05
    1530:	6f 3f       	cpi	r22, 0xFF	; 255
    1532:	ff ef       	ldi	r31, 0xFF	; 255
    1534:	7f 07       	cpc	r23, r31
    1536:	99 f0       	breq	.+38     	; 0x155e <_ZN8ATTClass10disconnectEv+0x38>
    1538:	ec 01       	movw	r28, r24
    153a:	89 e6       	ldi	r24, 0x69	; 105
    153c:	94 e0       	ldi	r25, 0x04	; 4
    153e:	0e 94 97 1c 	call	0x392e	; 0x392e <_ZN8HCIClass10disconnectEj>
    1542:	89 2b       	or	r24, r25
    1544:	71 f4       	brne	.+28     	; 0x1562 <_ZN8ATTClass10disconnectEv+0x3c>
    1546:	8f ef       	ldi	r24, 0xFF	; 255
    1548:	9f ef       	ldi	r25, 0xFF	; 255
    154a:	9d 83       	std	Y+5, r25	; 0x05
    154c:	8c 83       	std	Y+4, r24	; 0x04
    154e:	2e 96       	adiw	r28, 0x0e	; 14
    1550:	86 e0       	ldi	r24, 0x06	; 6
    1552:	fe 01       	movw	r30, r28
    1554:	11 92       	st	Z+, r1
    1556:	8a 95       	dec	r24
    1558:	e9 f7       	brne	.-6      	; 0x1554 <_ZN8ATTClass10disconnectEv+0x2e>
    155a:	81 e0       	ldi	r24, 0x01	; 1
    155c:	03 c0       	rjmp	.+6      	; 0x1564 <_ZN8ATTClass10disconnectEv+0x3e>
    155e:	80 e0       	ldi	r24, 0x00	; 0
    1560:	01 c0       	rjmp	.+2      	; 0x1564 <_ZN8ATTClass10disconnectEv+0x3e>
    1562:	80 e0       	ldi	r24, 0x00	; 0
    1564:	df 91       	pop	r29
    1566:	cf 91       	pop	r28
    1568:	08 95       	ret

0000156a <_ZN8ATTClass7centralEv>:
    156a:	cf 93       	push	r28
    156c:	df 93       	push	r29
    156e:	ec 01       	movw	r28, r24
    1570:	fb 01       	movw	r30, r22
    1572:	84 81       	ldd	r24, Z+4	; 0x04
    1574:	95 81       	ldd	r25, Z+5	; 0x05
    1576:	8f 3f       	cpi	r24, 0xFF	; 255
    1578:	ff ef       	ldi	r31, 0xFF	; 255
    157a:	9f 07       	cpc	r25, r31
    157c:	39 f0       	breq	.+14     	; 0x158c <_ZN8ATTClass7centralEv+0x22>
    157e:	ab 01       	movw	r20, r22
    1580:	42 5f       	subi	r20, 0xF2	; 242
    1582:	5f 4f       	sbci	r21, 0xFF	; 255
    1584:	bc 01       	movw	r22, r24
    1586:	ce 01       	movw	r24, r28
    1588:	7d dd       	rcall	.-1286   	; 0x1084 <_ZN9BLEDeviceC1EjPh>
    158a:	02 c0       	rjmp	.+4      	; 0x1590 <_ZN8ATTClass7centralEv+0x26>
    158c:	ce 01       	movw	r24, r28
    158e:	66 dd       	rcall	.-1332   	; 0x105c <_ZN9BLEDeviceC1Ev>
    1590:	ce 01       	movw	r24, r28
    1592:	df 91       	pop	r29
    1594:	cf 91       	pop	r28
    1596:	08 95       	ret

00001598 <_ZN8ATTClass12handleNotifyEjPKhi>:
    1598:	8f 92       	push	r8
    159a:	9f 92       	push	r9
    159c:	af 92       	push	r10
    159e:	bf 92       	push	r11
    15a0:	cf 92       	push	r12
    15a2:	df 92       	push	r13
    15a4:	ef 92       	push	r14
    15a6:	ff 92       	push	r15
    15a8:	0f 93       	push	r16
    15aa:	1f 93       	push	r17
    15ac:	cf 93       	push	r28
    15ae:	df 93       	push	r29
    15b0:	cd b7       	in	r28, 0x3d	; 61
    15b2:	de b7       	in	r29, 0x3e	; 62
    15b4:	fa 01       	movw	r30, r20
    15b6:	ad b6       	in	r10, 0x3d	; 61
    15b8:	be b6       	in	r11, 0x3e	; 62
    15ba:	dc 01       	movw	r26, r24
    15bc:	14 96       	adiw	r26, 0x04	; 4
    15be:	cd 90       	ld	r12, X+
    15c0:	dc 90       	ld	r13, X
    15c2:	15 97       	sbiw	r26, 0x05	; 5
    15c4:	bf ef       	ldi	r27, 0xFF	; 255
    15c6:	cb 16       	cp	r12, r27
    15c8:	db 06       	cpc	r13, r27
    15ca:	d9 f1       	breq	.+118    	; 0x1642 <_ZN8ATTClass12handleNotifyEjPKhi+0xaa>
    15cc:	8d b6       	in	r8, 0x3d	; 61
    15ce:	9e b6       	in	r9, 0x3e	; 62
    15d0:	dc 01       	movw	r26, r24
    15d2:	16 96       	adiw	r26, 0x06	; 6
    15d4:	ed 90       	ld	r14, X+
    15d6:	fc 90       	ld	r15, X
    15d8:	17 97       	sbiw	r26, 0x07	; 7
    15da:	8d b7       	in	r24, 0x3d	; 61
    15dc:	9e b7       	in	r25, 0x3e	; 62
    15de:	8e 19       	sub	r24, r14
    15e0:	9f 09       	sbc	r25, r15
    15e2:	0f b6       	in	r0, 0x3f	; 63
    15e4:	f8 94       	cli
    15e6:	9e bf       	out	0x3e, r25	; 62
    15e8:	0f be       	out	0x3f, r0	; 63
    15ea:	8d bf       	out	0x3d, r24	; 61
    15ec:	0d b7       	in	r16, 0x3d	; 61
    15ee:	1e b7       	in	r17, 0x3e	; 62
    15f0:	0f 5f       	subi	r16, 0xFF	; 255
    15f2:	1f 4f       	sbci	r17, 0xFF	; 255
    15f4:	8b e1       	ldi	r24, 0x1B	; 27
    15f6:	ad b7       	in	r26, 0x3d	; 61
    15f8:	be b7       	in	r27, 0x3e	; 62
    15fa:	11 96       	adiw	r26, 0x01	; 1
    15fc:	8c 93       	st	X, r24
    15fe:	d8 01       	movw	r26, r16
    1600:	12 96       	adiw	r26, 0x02	; 2
    1602:	7c 93       	st	X, r23
    1604:	6e 93       	st	-X, r22
    1606:	11 97       	sbiw	r26, 0x01	; 1
    1608:	b3 e0       	ldi	r27, 0x03	; 3
    160a:	eb 1a       	sub	r14, r27
    160c:	f1 08       	sbc	r15, r1
    160e:	2e 15       	cp	r18, r14
    1610:	3f 05       	cpc	r19, r15
    1612:	08 f4       	brcc	.+2      	; 0x1616 <_ZN8ATTClass12handleNotifyEjPKhi+0x7e>
    1614:	79 01       	movw	r14, r18
    1616:	a7 01       	movw	r20, r14
    1618:	bf 01       	movw	r22, r30
    161a:	c8 01       	movw	r24, r16
    161c:	03 96       	adiw	r24, 0x03	; 3
    161e:	0e 94 b7 2e 	call	0x5d6e	; 0x5d6e <memcpy>
    1622:	97 01       	movw	r18, r14
    1624:	2d 5f       	subi	r18, 0xFD	; 253
    1626:	3f 4f       	sbci	r19, 0xFF	; 255
    1628:	44 e0       	ldi	r20, 0x04	; 4
    162a:	b6 01       	movw	r22, r12
    162c:	89 e6       	ldi	r24, 0x69	; 105
    162e:	94 e0       	ldi	r25, 0x04	; 4
    1630:	0e 94 09 1a 	call	0x3412	; 0x3412 <_ZN8HCIClass13sendAclPacketEjhhPv>
    1634:	0f b6       	in	r0, 0x3f	; 63
    1636:	f8 94       	cli
    1638:	9e be       	out	0x3e, r9	; 62
    163a:	0f be       	out	0x3f, r0	; 63
    163c:	8d be       	out	0x3d, r8	; 61
    163e:	81 e0       	ldi	r24, 0x01	; 1
    1640:	01 c0       	rjmp	.+2      	; 0x1644 <_ZN8ATTClass12handleNotifyEjPKhi+0xac>
    1642:	80 e0       	ldi	r24, 0x00	; 0
    1644:	0f b6       	in	r0, 0x3f	; 63
    1646:	f8 94       	cli
    1648:	be be       	out	0x3e, r11	; 62
    164a:	0f be       	out	0x3f, r0	; 63
    164c:	ad be       	out	0x3d, r10	; 61
    164e:	df 91       	pop	r29
    1650:	cf 91       	pop	r28
    1652:	1f 91       	pop	r17
    1654:	0f 91       	pop	r16
    1656:	ff 90       	pop	r15
    1658:	ef 90       	pop	r14
    165a:	df 90       	pop	r13
    165c:	cf 90       	pop	r12
    165e:	bf 90       	pop	r11
    1660:	af 90       	pop	r10
    1662:	9f 90       	pop	r9
    1664:	8f 90       	pop	r8
    1666:	08 95       	ret

00001668 <_ZN8ATTClass9handleIndEjPKhi>:
    1668:	6f 92       	push	r6
    166a:	7f 92       	push	r7
    166c:	8f 92       	push	r8
    166e:	9f 92       	push	r9
    1670:	af 92       	push	r10
    1672:	bf 92       	push	r11
    1674:	cf 92       	push	r12
    1676:	df 92       	push	r13
    1678:	ef 92       	push	r14
    167a:	ff 92       	push	r15
    167c:	0f 93       	push	r16
    167e:	1f 93       	push	r17
    1680:	cf 93       	push	r28
    1682:	df 93       	push	r29
    1684:	cd b7       	in	r28, 0x3d	; 61
    1686:	de b7       	in	r29, 0x3e	; 62
    1688:	7c 01       	movw	r14, r24
    168a:	ca 01       	movw	r24, r20
    168c:	8d b6       	in	r8, 0x3d	; 61
    168e:	9e b6       	in	r9, 0x3e	; 62
    1690:	f7 01       	movw	r30, r14
    1692:	a4 80       	ldd	r10, Z+4	; 0x04
    1694:	b5 80       	ldd	r11, Z+5	; 0x05
    1696:	ff ef       	ldi	r31, 0xFF	; 255
    1698:	af 16       	cp	r10, r31
    169a:	bf 06       	cpc	r11, r31
    169c:	09 f4       	brne	.+2      	; 0x16a0 <_ZN8ATTClass9handleIndEjPKhi+0x38>
    169e:	44 c0       	rjmp	.+136    	; 0x1728 <_ZN8ATTClass9handleIndEjPKhi+0xc0>
    16a0:	6d b6       	in	r6, 0x3d	; 61
    16a2:	7e b6       	in	r7, 0x3e	; 62
    16a4:	f7 01       	movw	r30, r14
    16a6:	c6 80       	ldd	r12, Z+6	; 0x06
    16a8:	d7 80       	ldd	r13, Z+7	; 0x07
    16aa:	4d b7       	in	r20, 0x3d	; 61
    16ac:	5e b7       	in	r21, 0x3e	; 62
    16ae:	4c 19       	sub	r20, r12
    16b0:	5d 09       	sbc	r21, r13
    16b2:	0f b6       	in	r0, 0x3f	; 63
    16b4:	f8 94       	cli
    16b6:	5e bf       	out	0x3e, r21	; 62
    16b8:	0f be       	out	0x3f, r0	; 63
    16ba:	4d bf       	out	0x3d, r20	; 61
    16bc:	0d b7       	in	r16, 0x3d	; 61
    16be:	1e b7       	in	r17, 0x3e	; 62
    16c0:	0f 5f       	subi	r16, 0xFF	; 255
    16c2:	1f 4f       	sbci	r17, 0xFF	; 255
    16c4:	4d e1       	ldi	r20, 0x1D	; 29
    16c6:	ed b7       	in	r30, 0x3d	; 61
    16c8:	fe b7       	in	r31, 0x3e	; 62
    16ca:	41 83       	std	Z+1, r20	; 0x01
    16cc:	f8 01       	movw	r30, r16
    16ce:	72 83       	std	Z+2, r23	; 0x02
    16d0:	61 83       	std	Z+1, r22	; 0x01
    16d2:	f3 e0       	ldi	r31, 0x03	; 3
    16d4:	cf 1a       	sub	r12, r31
    16d6:	d1 08       	sbc	r13, r1
    16d8:	2c 15       	cp	r18, r12
    16da:	3d 05       	cpc	r19, r13
    16dc:	08 f4       	brcc	.+2      	; 0x16e0 <_ZN8ATTClass9handleIndEjPKhi+0x78>
    16de:	69 01       	movw	r12, r18
    16e0:	a6 01       	movw	r20, r12
    16e2:	bc 01       	movw	r22, r24
    16e4:	c8 01       	movw	r24, r16
    16e6:	03 96       	adiw	r24, 0x03	; 3
    16e8:	0e 94 b7 2e 	call	0x5d6e	; 0x5d6e <memcpy>
    16ec:	f7 01       	movw	r30, r14
    16ee:	14 8a       	std	Z+20, r1	; 0x14
    16f0:	96 01       	movw	r18, r12
    16f2:	2d 5f       	subi	r18, 0xFD	; 253
    16f4:	3f 4f       	sbci	r19, 0xFF	; 255
    16f6:	44 e0       	ldi	r20, 0x04	; 4
    16f8:	b5 01       	movw	r22, r10
    16fa:	89 e6       	ldi	r24, 0x69	; 105
    16fc:	94 e0       	ldi	r25, 0x04	; 4
    16fe:	0e 94 09 1a 	call	0x3412	; 0x3412 <_ZN8HCIClass13sendAclPacketEjhhPv>
    1702:	f7 01       	movw	r30, r14
    1704:	14 89       	ldd	r17, Z+20	; 0x14
    1706:	11 11       	cpse	r17, r1
    1708:	09 c0       	rjmp	.+18     	; 0x171c <_ZN8ATTClass9handleIndEjPKhi+0xb4>
    170a:	89 e6       	ldi	r24, 0x69	; 105
    170c:	94 e0       	ldi	r25, 0x04	; 4
    170e:	0e 94 04 1a 	call	0x3408	; 0x3408 <_ZN8HCIClass4pollEv>
    1712:	f7 01       	movw	r30, r14
    1714:	84 81       	ldd	r24, Z+4	; 0x04
    1716:	95 81       	ldd	r25, Z+5	; 0x05
    1718:	01 96       	adiw	r24, 0x01	; 1
    171a:	99 f7       	brne	.-26     	; 0x1702 <_ZN8ATTClass9handleIndEjPKhi+0x9a>
    171c:	0f b6       	in	r0, 0x3f	; 63
    171e:	f8 94       	cli
    1720:	7e be       	out	0x3e, r7	; 62
    1722:	0f be       	out	0x3f, r0	; 63
    1724:	6d be       	out	0x3d, r6	; 61
    1726:	01 c0       	rjmp	.+2      	; 0x172a <_ZN8ATTClass9handleIndEjPKhi+0xc2>
    1728:	10 e0       	ldi	r17, 0x00	; 0
    172a:	81 2f       	mov	r24, r17
    172c:	0f b6       	in	r0, 0x3f	; 63
    172e:	f8 94       	cli
    1730:	9e be       	out	0x3e, r9	; 62
    1732:	0f be       	out	0x3f, r0	; 63
    1734:	8d be       	out	0x3d, r8	; 61
    1736:	df 91       	pop	r29
    1738:	cf 91       	pop	r28
    173a:	1f 91       	pop	r17
    173c:	0f 91       	pop	r16
    173e:	ff 90       	pop	r15
    1740:	ef 90       	pop	r14
    1742:	df 90       	pop	r13
    1744:	cf 90       	pop	r12
    1746:	bf 90       	pop	r11
    1748:	af 90       	pop	r10
    174a:	9f 90       	pop	r9
    174c:	8f 90       	pop	r8
    174e:	7f 90       	pop	r7
    1750:	6f 90       	pop	r6
    1752:	08 95       	ret

00001754 <_ZN8ATTClass9sendErrorEjhjh>:
    1754:	0f 93       	push	r16
    1756:	1f 93       	push	r17
    1758:	cf 93       	push	r28
    175a:	df 93       	push	r29
    175c:	00 d0       	rcall	.+0      	; 0x175e <_ZN8ATTClass9sendErrorEjhjh+0xa>
    175e:	00 d0       	rcall	.+0      	; 0x1760 <_ZN8ATTClass9sendErrorEjhjh+0xc>
    1760:	1f 92       	push	r1
    1762:	cd b7       	in	r28, 0x3d	; 61
    1764:	de b7       	in	r29, 0x3e	; 62
    1766:	fe 01       	movw	r30, r28
    1768:	31 96       	adiw	r30, 0x01	; 1
    176a:	85 e0       	ldi	r24, 0x05	; 5
    176c:	df 01       	movw	r26, r30
    176e:	1d 92       	st	X+, r1
    1770:	8a 95       	dec	r24
    1772:	e9 f7       	brne	.-6      	; 0x176e <_ZN8ATTClass9sendErrorEjhjh+0x1a>
    1774:	81 e0       	ldi	r24, 0x01	; 1
    1776:	89 83       	std	Y+1, r24	; 0x01
    1778:	4a 83       	std	Y+2, r20	; 0x02
    177a:	3c 83       	std	Y+4, r19	; 0x04
    177c:	2b 83       	std	Y+3, r18	; 0x03
    177e:	0d 83       	std	Y+5, r16	; 0x05
    1780:	8f 01       	movw	r16, r30
    1782:	25 e0       	ldi	r18, 0x05	; 5
    1784:	44 e0       	ldi	r20, 0x04	; 4
    1786:	89 e6       	ldi	r24, 0x69	; 105
    1788:	94 e0       	ldi	r25, 0x04	; 4
    178a:	0e 94 09 1a 	call	0x3412	; 0x3412 <_ZN8HCIClass13sendAclPacketEjhhPv>
    178e:	0f 90       	pop	r0
    1790:	0f 90       	pop	r0
    1792:	0f 90       	pop	r0
    1794:	0f 90       	pop	r0
    1796:	0f 90       	pop	r0
    1798:	df 91       	pop	r29
    179a:	cf 91       	pop	r28
    179c:	1f 91       	pop	r17
    179e:	0f 91       	pop	r16
    17a0:	08 95       	ret

000017a2 <_ZN8ATTClass6mtuReqEjhPh>:
    17a2:	0f 93       	push	r16
    17a4:	1f 93       	push	r17
    17a6:	cf 93       	push	r28
    17a8:	df 93       	push	r29
    17aa:	00 d0       	rcall	.+0      	; 0x17ac <_ZN8ATTClass6mtuReqEjhPh+0xa>
    17ac:	1f 92       	push	r1
    17ae:	cd b7       	in	r28, 0x3d	; 61
    17b0:	de b7       	in	r29, 0x3e	; 62
    17b2:	42 30       	cpi	r20, 0x02	; 2
    17b4:	31 f0       	breq	.+12     	; 0x17c2 <_ZN8ATTClass6mtuReqEjhPh+0x20>
    17b6:	04 e0       	ldi	r16, 0x04	; 4
    17b8:	20 e0       	ldi	r18, 0x00	; 0
    17ba:	30 e0       	ldi	r19, 0x00	; 0
    17bc:	42 e0       	ldi	r20, 0x02	; 2
    17be:	ca df       	rcall	.-108    	; 0x1754 <_ZN8ATTClass9sendErrorEjhjh>
    17c0:	1a c0       	rjmp	.+52     	; 0x17f6 <_ZN8ATTClass6mtuReqEjhPh+0x54>
    17c2:	fc 01       	movw	r30, r24
    17c4:	42 81       	ldd	r20, Z+2	; 0x02
    17c6:	53 81       	ldd	r21, Z+3	; 0x03
    17c8:	f9 01       	movw	r30, r18
    17ca:	20 81       	ld	r18, Z
    17cc:	31 81       	ldd	r19, Z+1	; 0x01
    17ce:	42 17       	cp	r20, r18
    17d0:	53 07       	cpc	r21, r19
    17d2:	08 f4       	brcc	.+2      	; 0x17d6 <_ZN8ATTClass6mtuReqEjhPh+0x34>
    17d4:	9a 01       	movw	r18, r20
    17d6:	fc 01       	movw	r30, r24
    17d8:	37 83       	std	Z+7, r19	; 0x07
    17da:	26 83       	std	Z+6, r18	; 0x06
    17dc:	83 e0       	ldi	r24, 0x03	; 3
    17de:	89 83       	std	Y+1, r24	; 0x01
    17e0:	3b 83       	std	Y+3, r19	; 0x03
    17e2:	2a 83       	std	Y+2, r18	; 0x02
    17e4:	8e 01       	movw	r16, r28
    17e6:	0f 5f       	subi	r16, 0xFF	; 255
    17e8:	1f 4f       	sbci	r17, 0xFF	; 255
    17ea:	23 e0       	ldi	r18, 0x03	; 3
    17ec:	44 e0       	ldi	r20, 0x04	; 4
    17ee:	89 e6       	ldi	r24, 0x69	; 105
    17f0:	94 e0       	ldi	r25, 0x04	; 4
    17f2:	0e 94 09 1a 	call	0x3412	; 0x3412 <_ZN8HCIClass13sendAclPacketEjhhPv>
    17f6:	0f 90       	pop	r0
    17f8:	0f 90       	pop	r0
    17fa:	0f 90       	pop	r0
    17fc:	df 91       	pop	r29
    17fe:	cf 91       	pop	r28
    1800:	1f 91       	pop	r17
    1802:	0f 91       	pop	r16
    1804:	08 95       	ret

00001806 <_ZN8ATTClass11findInfoReqEjhPh>:
    1806:	2f 92       	push	r2
    1808:	3f 92       	push	r3
    180a:	4f 92       	push	r4
    180c:	5f 92       	push	r5
    180e:	6f 92       	push	r6
    1810:	7f 92       	push	r7
    1812:	8f 92       	push	r8
    1814:	9f 92       	push	r9
    1816:	af 92       	push	r10
    1818:	bf 92       	push	r11
    181a:	cf 92       	push	r12
    181c:	df 92       	push	r13
    181e:	ef 92       	push	r14
    1820:	ff 92       	push	r15
    1822:	0f 93       	push	r16
    1824:	1f 93       	push	r17
    1826:	cf 93       	push	r28
    1828:	df 93       	push	r29
    182a:	cd b7       	in	r28, 0x3d	; 61
    182c:	de b7       	in	r29, 0x3e	; 62
    182e:	2a 97       	sbiw	r28, 0x0a	; 10
    1830:	0f b6       	in	r0, 0x3f	; 63
    1832:	f8 94       	cli
    1834:	de bf       	out	0x3e, r29	; 62
    1836:	0f be       	out	0x3f, r0	; 63
    1838:	cd bf       	out	0x3d, r28	; 61
    183a:	1c 01       	movw	r2, r24
    183c:	78 87       	std	Y+8, r23	; 0x08
    183e:	6f 83       	std	Y+7, r22	; 0x07
    1840:	3a 83       	std	Y+2, r19	; 0x02
    1842:	29 83       	std	Y+1, r18	; 0x01
    1844:	2d b7       	in	r18, 0x3d	; 61
    1846:	3e b7       	in	r19, 0x3e	; 62
    1848:	3e 83       	std	Y+6, r19	; 0x06
    184a:	2d 83       	std	Y+5, r18	; 0x05
    184c:	3c 83       	std	Y+4, r19	; 0x04
    184e:	2b 83       	std	Y+3, r18	; 0x03
    1850:	44 30       	cpi	r20, 0x04	; 4
    1852:	81 f0       	breq	.+32     	; 0x1874 <_ZN8ATTClass11findInfoReqEjhPh+0x6e>
    1854:	a9 81       	ldd	r26, Y+1	; 0x01
    1856:	ba 81       	ldd	r27, Y+2	; 0x02
    1858:	2d 91       	ld	r18, X+
    185a:	3c 91       	ld	r19, X
    185c:	04 e0       	ldi	r16, 0x04	; 4
    185e:	44 e0       	ldi	r20, 0x04	; 4
    1860:	c1 01       	movw	r24, r2
    1862:	78 df       	rcall	.-272    	; 0x1754 <_ZN8ATTClass9sendErrorEjhjh>
    1864:	eb 81       	ldd	r30, Y+3	; 0x03
    1866:	fc 81       	ldd	r31, Y+4	; 0x04
    1868:	0f b6       	in	r0, 0x3f	; 63
    186a:	f8 94       	cli
    186c:	fe bf       	out	0x3e, r31	; 62
    186e:	0f be       	out	0x3f, r0	; 63
    1870:	ed bf       	out	0x3d, r30	; 61
    1872:	dc c0       	rjmp	.+440    	; 0x1a2c <_ZN8ATTClass11findInfoReqEjhPh+0x226>
    1874:	d1 01       	movw	r26, r2
    1876:	16 96       	adiw	r26, 0x06	; 6
    1878:	8d 91       	ld	r24, X+
    187a:	9c 91       	ld	r25, X
    187c:	17 97       	sbiw	r26, 0x07	; 7
    187e:	ed b7       	in	r30, 0x3d	; 61
    1880:	fe b7       	in	r31, 0x3e	; 62
    1882:	e8 1b       	sub	r30, r24
    1884:	f9 0b       	sbc	r31, r25
    1886:	0f b6       	in	r0, 0x3f	; 63
    1888:	f8 94       	cli
    188a:	fe bf       	out	0x3e, r31	; 62
    188c:	0f be       	out	0x3f, r0	; 63
    188e:	ed bf       	out	0x3d, r30	; 61
    1890:	2d b7       	in	r18, 0x3d	; 61
    1892:	3e b7       	in	r19, 0x3e	; 62
    1894:	2f 5f       	subi	r18, 0xFF	; 255
    1896:	3f 4f       	sbci	r19, 0xFF	; 255
    1898:	3a 87       	std	Y+10, r19	; 0x0a
    189a:	29 87       	std	Y+9, r18	; 0x09
    189c:	39 01       	movw	r6, r18
    189e:	85 e0       	ldi	r24, 0x05	; 5
    18a0:	81 83       	std	Z+1, r24	; 0x01
    18a2:	d9 01       	movw	r26, r18
    18a4:	11 96       	adiw	r26, 0x01	; 1
    18a6:	1c 92       	st	X, r1
    18a8:	e9 81       	ldd	r30, Y+1	; 0x01
    18aa:	fa 81       	ldd	r31, Y+2	; 0x02
    18ac:	c0 80       	ld	r12, Z
    18ae:	d1 80       	ldd	r13, Z+1	; 0x01
    18b0:	f1 e0       	ldi	r31, 0x01	; 1
    18b2:	cf 1a       	sub	r12, r31
    18b4:	d1 08       	sbc	r13, r1
    18b6:	68 94       	set
    18b8:	aa 24       	eor	r10, r10
    18ba:	a1 f8       	bld	r10, 1
    18bc:	b1 2c       	mov	r11, r1
    18be:	51 2c       	mov	r5, r1
    18c0:	41 2c       	mov	r4, r1
    18c2:	89 e8       	ldi	r24, 0x89	; 137
    18c4:	93 e0       	ldi	r25, 0x03	; 3
    18c6:	0e 94 d7 17 	call	0x2fae	; 0x2fae <_ZN9GATTClass14attributeCountEv>
    18ca:	c8 16       	cp	r12, r24
    18cc:	d9 06       	cpc	r13, r25
    18ce:	08 f0       	brcs	.+2      	; 0x18d2 <_ZN8ATTClass11findInfoReqEjhPh+0xcc>
    18d0:	77 c0       	rjmp	.+238    	; 0x19c0 <_ZN8ATTClass11findInfoReqEjhPh+0x1ba>
    18d2:	a9 81       	ldd	r26, Y+1	; 0x01
    18d4:	ba 81       	ldd	r27, Y+2	; 0x02
    18d6:	12 96       	adiw	r26, 0x02	; 2
    18d8:	8d 91       	ld	r24, X+
    18da:	9c 91       	ld	r25, X
    18dc:	13 97       	sbiw	r26, 0x03	; 3
    18de:	01 97       	sbiw	r24, 0x01	; 1
    18e0:	8c 15       	cp	r24, r12
    18e2:	9d 05       	cpc	r25, r13
    18e4:	08 f0       	brcs	.+2      	; 0x18e8 <_ZN8ATTClass11findInfoReqEjhPh+0xe2>
    18e6:	8d c0       	rjmp	.+282    	; 0x1a02 <_ZN8ATTClass11findInfoReqEjhPh+0x1fc>
    18e8:	6b c0       	rjmp	.+214    	; 0x19c0 <_ZN8ATTClass11findInfoReqEjhPh+0x1ba>
    18ea:	c8 01       	movw	r24, r16
    18ec:	0e 94 ca 02 	call	0x594	; 0x594 <_ZN19LocalCharacteristic11valueHandleEv>
    18f0:	c8 16       	cp	r12, r24
    18f2:	d9 06       	cpc	r13, r25
    18f4:	61 f0       	breq	.+24     	; 0x190e <_ZN8ATTClass11findInfoReqEjhPh+0x108>
    18f6:	c8 01       	movw	r24, r16
    18f8:	68 da       	rcall	.-2864   	; 0xdca <_ZN12BLEAttribute10uuidLengthEv>
    18fa:	88 2e       	mov	r8, r24
    18fc:	91 2c       	mov	r9, r1
    18fe:	b2 e0       	ldi	r27, 0x02	; 2
    1900:	8b 16       	cp	r8, r27
    1902:	91 04       	cpc	r9, r1
    1904:	61 f0       	breq	.+24     	; 0x191e <_ZN8ATTClass11findInfoReqEjhPh+0x118>
    1906:	45 2d       	mov	r20, r5
    1908:	82 e0       	ldi	r24, 0x02	; 2
    190a:	94 2d       	mov	r25, r4
    190c:	0b c0       	rjmp	.+22     	; 0x1924 <_ZN8ATTClass11findInfoReqEjhPh+0x11e>
    190e:	68 94       	set
    1910:	88 24       	eor	r8, r8
    1912:	81 f8       	bld	r8, 1
    1914:	94 2c       	mov	r9, r4
    1916:	41 e0       	ldi	r20, 0x01	; 1
    1918:	81 e0       	ldi	r24, 0x01	; 1
    191a:	90 e0       	ldi	r25, 0x00	; 0
    191c:	03 c0       	rjmp	.+6      	; 0x1924 <_ZN8ATTClass11findInfoReqEjhPh+0x11e>
    191e:	45 2d       	mov	r20, r5
    1920:	81 e0       	ldi	r24, 0x01	; 1
    1922:	90 e0       	ldi	r25, 0x00	; 0
    1924:	f3 01       	movw	r30, r6
    1926:	21 81       	ldd	r18, Z+1	; 0x01
    1928:	21 11       	cpse	r18, r1
    192a:	01 c0       	rjmp	.+2      	; 0x192e <_ZN8ATTClass11findInfoReqEjhPh+0x128>
    192c:	81 83       	std	Z+1, r24	; 0x01
    192e:	d3 01       	movw	r26, r6
    1930:	11 96       	adiw	r26, 0x01	; 1
    1932:	2c 91       	ld	r18, X
    1934:	30 e0       	ldi	r19, 0x00	; 0
    1936:	82 17       	cp	r24, r18
    1938:	93 07       	cpc	r25, r19
    193a:	09 f0       	breq	.+2      	; 0x193e <_ZN8ATTClass11findInfoReqEjhPh+0x138>
    193c:	41 c0       	rjmp	.+130    	; 0x19c0 <_ZN8ATTClass11findInfoReqEjhPh+0x1ba>
    193e:	f3 01       	movw	r30, r6
    1940:	ea 0d       	add	r30, r10
    1942:	fb 1d       	adc	r31, r11
    1944:	d1 82       	std	Z+1, r13	; 0x01
    1946:	c0 82       	st	Z, r12
    1948:	75 01       	movw	r14, r10
    194a:	b2 e0       	ldi	r27, 0x02	; 2
    194c:	eb 0e       	add	r14, r27
    194e:	f1 1c       	adc	r15, r1
    1950:	41 11       	cpse	r20, r1
    1952:	0b c0       	rjmp	.+22     	; 0x196a <_ZN8ATTClass11findInfoReqEjhPh+0x164>
    1954:	d8 01       	movw	r26, r16
    1956:	ed 91       	ld	r30, X+
    1958:	fc 91       	ld	r31, X
    195a:	04 80       	ldd	r0, Z+4	; 0x04
    195c:	f5 81       	ldd	r31, Z+5	; 0x05
    195e:	e0 2d       	mov	r30, r0
    1960:	c8 01       	movw	r24, r16
    1962:	09 95       	icall
    1964:	81 15       	cp	r24, r1
    1966:	99 42       	sbci	r25, 0x29	; 41
    1968:	69 f4       	brne	.+26     	; 0x1984 <_ZN8ATTClass11findInfoReqEjhPh+0x17e>
    196a:	c8 01       	movw	r24, r16
    196c:	2b da       	rcall	.-2986   	; 0xdc4 <_ZN12BLEAttribute8uuidDataEv>
    196e:	a4 01       	movw	r20, r8
    1970:	bc 01       	movw	r22, r24
    1972:	c3 01       	movw	r24, r6
    1974:	8e 0d       	add	r24, r14
    1976:	9f 1d       	adc	r25, r15
    1978:	0e 94 b7 2e 	call	0x5d6e	; 0x5d6e <memcpy>
    197c:	57 01       	movw	r10, r14
    197e:	a8 0c       	add	r10, r8
    1980:	b9 1c       	adc	r11, r9
    1982:	10 c0       	rjmp	.+32     	; 0x19a4 <_ZN8ATTClass11findInfoReqEjhPh+0x19e>
    1984:	d8 01       	movw	r26, r16
    1986:	ed 91       	ld	r30, X+
    1988:	fc 91       	ld	r31, X
    198a:	04 80       	ldd	r0, Z+4	; 0x04
    198c:	f5 81       	ldd	r31, Z+5	; 0x05
    198e:	e0 2d       	mov	r30, r0
    1990:	c8 01       	movw	r24, r16
    1992:	09 95       	icall
    1994:	f3 01       	movw	r30, r6
    1996:	ee 0d       	add	r30, r14
    1998:	ff 1d       	adc	r31, r15
    199a:	91 83       	std	Z+1, r25	; 0x01
    199c:	80 83       	st	Z, r24
    199e:	b4 e0       	ldi	r27, 0x04	; 4
    19a0:	ab 0e       	add	r10, r27
    19a2:	b1 1c       	adc	r11, r1
    19a4:	e2 e0       	ldi	r30, 0x02	; 2
    19a6:	8e 0e       	add	r8, r30
    19a8:	91 1c       	adc	r9, r1
    19aa:	8a 0c       	add	r8, r10
    19ac:	9b 1c       	adc	r9, r11
    19ae:	d1 01       	movw	r26, r2
    19b0:	16 96       	adiw	r26, 0x06	; 6
    19b2:	8d 91       	ld	r24, X+
    19b4:	9c 91       	ld	r25, X
    19b6:	17 97       	sbiw	r26, 0x07	; 7
    19b8:	88 15       	cp	r24, r8
    19ba:	99 05       	cpc	r25, r9
    19bc:	08 f0       	brcs	.+2      	; 0x19c0 <_ZN8ATTClass11findInfoReqEjhPh+0x1ba>
    19be:	81 cf       	rjmp	.-254    	; 0x18c2 <_ZN8ATTClass11findInfoReqEjhPh+0xbc>
    19c0:	b2 e0       	ldi	r27, 0x02	; 2
    19c2:	ab 16       	cp	r10, r27
    19c4:	b1 04       	cpc	r11, r1
    19c6:	59 f4       	brne	.+22     	; 0x19de <_ZN8ATTClass11findInfoReqEjhPh+0x1d8>
    19c8:	e9 81       	ldd	r30, Y+1	; 0x01
    19ca:	fa 81       	ldd	r31, Y+2	; 0x02
    19cc:	20 81       	ld	r18, Z
    19ce:	31 81       	ldd	r19, Z+1	; 0x01
    19d0:	0a e0       	ldi	r16, 0x0A	; 10
    19d2:	44 e0       	ldi	r20, 0x04	; 4
    19d4:	6f 81       	ldd	r22, Y+7	; 0x07
    19d6:	78 85       	ldd	r23, Y+8	; 0x08
    19d8:	c1 01       	movw	r24, r2
    19da:	bc de       	rcall	.-648    	; 0x1754 <_ZN8ATTClass9sendErrorEjhjh>
    19dc:	0a c0       	rjmp	.+20     	; 0x19f2 <_ZN8ATTClass11findInfoReqEjhPh+0x1ec>
    19de:	09 85       	ldd	r16, Y+9	; 0x09
    19e0:	1a 85       	ldd	r17, Y+10	; 0x0a
    19e2:	2a 2d       	mov	r18, r10
    19e4:	44 e0       	ldi	r20, 0x04	; 4
    19e6:	6f 81       	ldd	r22, Y+7	; 0x07
    19e8:	78 85       	ldd	r23, Y+8	; 0x08
    19ea:	89 e6       	ldi	r24, 0x69	; 105
    19ec:	94 e0       	ldi	r25, 0x04	; 4
    19ee:	0e 94 09 1a 	call	0x3412	; 0x3412 <_ZN8HCIClass13sendAclPacketEjhhPv>
    19f2:	2b 81       	ldd	r18, Y+3	; 0x03
    19f4:	3c 81       	ldd	r19, Y+4	; 0x04
    19f6:	0f b6       	in	r0, 0x3f	; 63
    19f8:	f8 94       	cli
    19fa:	3e bf       	out	0x3e, r19	; 62
    19fc:	0f be       	out	0x3f, r0	; 63
    19fe:	2d bf       	out	0x3d, r18	; 61
    1a00:	15 c0       	rjmp	.+42     	; 0x1a2c <_ZN8ATTClass11findInfoReqEjhPh+0x226>
    1a02:	b6 01       	movw	r22, r12
    1a04:	89 e8       	ldi	r24, 0x89	; 137
    1a06:	93 e0       	ldi	r25, 0x03	; 3
    1a08:	0e 94 dd 17 	call	0x2fba	; 0x2fba <_ZN9GATTClass9attributeEj>
    1a0c:	8c 01       	movw	r16, r24
    1a0e:	3f ef       	ldi	r19, 0xFF	; 255
    1a10:	c3 1a       	sub	r12, r19
    1a12:	d3 0a       	sbc	r13, r19
    1a14:	dc 01       	movw	r26, r24
    1a16:	ed 91       	ld	r30, X+
    1a18:	fc 91       	ld	r31, X
    1a1a:	04 80       	ldd	r0, Z+4	; 0x04
    1a1c:	f5 81       	ldd	r31, Z+5	; 0x05
    1a1e:	e0 2d       	mov	r30, r0
    1a20:	09 95       	icall
    1a22:	83 30       	cpi	r24, 0x03	; 3
    1a24:	98 42       	sbci	r25, 0x28	; 40
    1a26:	09 f0       	breq	.+2      	; 0x1a2a <_ZN8ATTClass11findInfoReqEjhPh+0x224>
    1a28:	66 cf       	rjmp	.-308    	; 0x18f6 <_ZN8ATTClass11findInfoReqEjhPh+0xf0>
    1a2a:	5f cf       	rjmp	.-322    	; 0x18ea <_ZN8ATTClass11findInfoReqEjhPh+0xe4>
    1a2c:	ed 81       	ldd	r30, Y+5	; 0x05
    1a2e:	fe 81       	ldd	r31, Y+6	; 0x06
    1a30:	0f b6       	in	r0, 0x3f	; 63
    1a32:	f8 94       	cli
    1a34:	fe bf       	out	0x3e, r31	; 62
    1a36:	0f be       	out	0x3f, r0	; 63
    1a38:	ed bf       	out	0x3d, r30	; 61
    1a3a:	2a 96       	adiw	r28, 0x0a	; 10
    1a3c:	0f b6       	in	r0, 0x3f	; 63
    1a3e:	f8 94       	cli
    1a40:	de bf       	out	0x3e, r29	; 62
    1a42:	0f be       	out	0x3f, r0	; 63
    1a44:	cd bf       	out	0x3d, r28	; 61
    1a46:	df 91       	pop	r29
    1a48:	cf 91       	pop	r28
    1a4a:	1f 91       	pop	r17
    1a4c:	0f 91       	pop	r16
    1a4e:	ff 90       	pop	r15
    1a50:	ef 90       	pop	r14
    1a52:	df 90       	pop	r13
    1a54:	cf 90       	pop	r12
    1a56:	bf 90       	pop	r11
    1a58:	af 90       	pop	r10
    1a5a:	9f 90       	pop	r9
    1a5c:	8f 90       	pop	r8
    1a5e:	7f 90       	pop	r7
    1a60:	6f 90       	pop	r6
    1a62:	5f 90       	pop	r5
    1a64:	4f 90       	pop	r4
    1a66:	3f 90       	pop	r3
    1a68:	2f 90       	pop	r2
    1a6a:	08 95       	ret

00001a6c <_ZN8ATTClass13findByTypeReqEjhPh>:
    1a6c:	2f 92       	push	r2
    1a6e:	3f 92       	push	r3
    1a70:	4f 92       	push	r4
    1a72:	5f 92       	push	r5
    1a74:	6f 92       	push	r6
    1a76:	7f 92       	push	r7
    1a78:	8f 92       	push	r8
    1a7a:	9f 92       	push	r9
    1a7c:	af 92       	push	r10
    1a7e:	bf 92       	push	r11
    1a80:	cf 92       	push	r12
    1a82:	df 92       	push	r13
    1a84:	ef 92       	push	r14
    1a86:	ff 92       	push	r15
    1a88:	0f 93       	push	r16
    1a8a:	1f 93       	push	r17
    1a8c:	cf 93       	push	r28
    1a8e:	df 93       	push	r29
    1a90:	cd b7       	in	r28, 0x3d	; 61
    1a92:	de b7       	in	r29, 0x3e	; 62
    1a94:	28 97       	sbiw	r28, 0x08	; 8
    1a96:	0f b6       	in	r0, 0x3f	; 63
    1a98:	f8 94       	cli
    1a9a:	de bf       	out	0x3e, r29	; 62
    1a9c:	0f be       	out	0x3f, r0	; 63
    1a9e:	cd bf       	out	0x3d, r28	; 61
    1aa0:	4c 01       	movw	r8, r24
    1aa2:	7a 83       	std	Y+2, r23	; 0x02
    1aa4:	69 83       	std	Y+1, r22	; 0x01
    1aa6:	69 01       	movw	r12, r18
    1aa8:	4d b6       	in	r4, 0x3d	; 61
    1aaa:	5e b6       	in	r5, 0x3e	; 62
    1aac:	2d b6       	in	r2, 0x3d	; 61
    1aae:	3e b6       	in	r3, 0x3e	; 62
    1ab0:	46 30       	cpi	r20, 0x06	; 6
    1ab2:	60 f4       	brcc	.+24     	; 0x1acc <_ZN8ATTClass13findByTypeReqEjhPh+0x60>
    1ab4:	d9 01       	movw	r26, r18
    1ab6:	2d 91       	ld	r18, X+
    1ab8:	3c 91       	ld	r19, X
    1aba:	04 e0       	ldi	r16, 0x04	; 4
    1abc:	47 e0       	ldi	r20, 0x07	; 7
    1abe:	4a de       	rcall	.-876    	; 0x1754 <_ZN8ATTClass9sendErrorEjhjh>
    1ac0:	0f b6       	in	r0, 0x3f	; 63
    1ac2:	f8 94       	cli
    1ac4:	5e be       	out	0x3e, r5	; 62
    1ac6:	0f be       	out	0x3f, r0	; 63
    1ac8:	4d be       	out	0x3d, r4	; 61
    1aca:	a5 c0       	rjmp	.+330    	; 0x1c16 <_ZN8ATTClass13findByTypeReqEjhPh+0x1aa>
    1acc:	fc 01       	movw	r30, r24
    1ace:	86 81       	ldd	r24, Z+6	; 0x06
    1ad0:	97 81       	ldd	r25, Z+7	; 0x07
    1ad2:	2d b7       	in	r18, 0x3d	; 61
    1ad4:	3e b7       	in	r19, 0x3e	; 62
    1ad6:	28 1b       	sub	r18, r24
    1ad8:	39 0b       	sbc	r19, r25
    1ada:	0f b6       	in	r0, 0x3f	; 63
    1adc:	f8 94       	cli
    1ade:	3e bf       	out	0x3e, r19	; 62
    1ae0:	0f be       	out	0x3f, r0	; 63
    1ae2:	2d bf       	out	0x3d, r18	; 61
    1ae4:	8d b7       	in	r24, 0x3d	; 61
    1ae6:	9e b7       	in	r25, 0x3e	; 62
    1ae8:	01 96       	adiw	r24, 0x01	; 1
    1aea:	9c 83       	std	Y+4, r25	; 0x04
    1aec:	8b 83       	std	Y+3, r24	; 0x03
    1aee:	3c 01       	movw	r6, r24
    1af0:	87 e0       	ldi	r24, 0x07	; 7
    1af2:	ad b7       	in	r26, 0x3d	; 61
    1af4:	be b7       	in	r27, 0x3e	; 62
    1af6:	11 96       	adiw	r26, 0x01	; 1
    1af8:	8c 93       	st	X, r24
    1afa:	f6 01       	movw	r30, r12
    1afc:	84 81       	ldd	r24, Z+4	; 0x04
    1afe:	95 81       	ldd	r25, Z+5	; 0x05
    1b00:	81 15       	cp	r24, r1
    1b02:	98 42       	sbci	r25, 0x28	; 40
    1b04:	09 f0       	breq	.+2      	; 0x1b08 <_ZN8ATTClass13findByTypeReqEjhPh+0x9c>
    1b06:	59 c0       	rjmp	.+178    	; 0x1bba <_ZN8ATTClass13findByTypeReqEjhPh+0x14e>
    1b08:	50 e0       	ldi	r21, 0x00	; 0
    1b0a:	9a 01       	movw	r18, r20
    1b0c:	26 50       	subi	r18, 0x06	; 6
    1b0e:	31 09       	sbc	r19, r1
    1b10:	3e 83       	std	Y+6, r19	; 0x06
    1b12:	2d 83       	std	Y+5, r18	; 0x05
    1b14:	d6 01       	movw	r26, r12
    1b16:	0d 91       	ld	r16, X+
    1b18:	1c 91       	ld	r17, X
    1b1a:	01 50       	subi	r16, 0x01	; 1
    1b1c:	11 09       	sbc	r17, r1
    1b1e:	aa 24       	eor	r10, r10
    1b20:	a3 94       	inc	r10
    1b22:	b1 2c       	mov	r11, r1
    1b24:	f6 01       	movw	r30, r12
    1b26:	36 96       	adiw	r30, 0x06	; 6
    1b28:	f8 87       	std	Y+8, r31	; 0x08
    1b2a:	ef 83       	std	Y+7, r30	; 0x07
    1b2c:	89 e8       	ldi	r24, 0x89	; 137
    1b2e:	93 e0       	ldi	r25, 0x03	; 3
    1b30:	0e 94 d7 17 	call	0x2fae	; 0x2fae <_ZN9GATTClass14attributeCountEv>
    1b34:	08 17       	cp	r16, r24
    1b36:	19 07       	cpc	r17, r25
    1b38:	08 f0       	brcs	.+2      	; 0x1b3c <_ZN8ATTClass13findByTypeReqEjhPh+0xd0>
    1b3a:	3b c0       	rjmp	.+118    	; 0x1bb2 <_ZN8ATTClass13findByTypeReqEjhPh+0x146>
    1b3c:	d6 01       	movw	r26, r12
    1b3e:	12 96       	adiw	r26, 0x02	; 2
    1b40:	8d 91       	ld	r24, X+
    1b42:	9c 91       	ld	r25, X
    1b44:	13 97       	sbiw	r26, 0x03	; 3
    1b46:	01 97       	sbiw	r24, 0x01	; 1
    1b48:	80 17       	cp	r24, r16
    1b4a:	91 07       	cpc	r25, r17
    1b4c:	08 f0       	brcs	.+2      	; 0x1b50 <_ZN8ATTClass13findByTypeReqEjhPh+0xe4>
    1b4e:	4f c0       	rjmp	.+158    	; 0x1bee <_ZN8ATTClass13findByTypeReqEjhPh+0x182>
    1b50:	30 c0       	rjmp	.+96     	; 0x1bb2 <_ZN8ATTClass13findByTypeReqEjhPh+0x146>
    1b52:	c7 01       	movw	r24, r14
    1b54:	3a d9       	rcall	.-3468   	; 0xdca <_ZN12BLEAttribute10uuidLengthEv>
    1b56:	90 e0       	ldi	r25, 0x00	; 0
    1b58:	ed 81       	ldd	r30, Y+5	; 0x05
    1b5a:	fe 81       	ldd	r31, Y+6	; 0x06
    1b5c:	e8 17       	cp	r30, r24
    1b5e:	f9 07       	cpc	r31, r25
    1b60:	d9 f4       	brne	.+54     	; 0x1b98 <_ZN8ATTClass13findByTypeReqEjhPh+0x12c>
    1b62:	c7 01       	movw	r24, r14
    1b64:	2f d9       	rcall	.-3490   	; 0xdc4 <_ZN12BLEAttribute8uuidDataEv>
    1b66:	4d 81       	ldd	r20, Y+5	; 0x05
    1b68:	5e 81       	ldd	r21, Y+6	; 0x06
    1b6a:	6f 81       	ldd	r22, Y+7	; 0x07
    1b6c:	78 85       	ldd	r23, Y+8	; 0x08
    1b6e:	0e 94 aa 2e 	call	0x5d54	; 0x5d54 <memcmp>
    1b72:	89 2b       	or	r24, r25
    1b74:	89 f4       	brne	.+34     	; 0x1b98 <_ZN8ATTClass13findByTypeReqEjhPh+0x12c>
    1b76:	c7 01       	movw	r24, r14
    1b78:	4d d8       	rcall	.-3942   	; 0xc14 <_ZN12LocalService11startHandleEv>
    1b7a:	f3 01       	movw	r30, r6
    1b7c:	ea 0d       	add	r30, r10
    1b7e:	fb 1d       	adc	r31, r11
    1b80:	91 83       	std	Z+1, r25	; 0x01
    1b82:	80 83       	st	Z, r24
    1b84:	c7 01       	movw	r24, r14
    1b86:	4a d8       	rcall	.-3948   	; 0xc1c <_ZN12LocalService9endHandleEv>
    1b88:	f3 01       	movw	r30, r6
    1b8a:	ea 0d       	add	r30, r10
    1b8c:	fb 1d       	adc	r31, r11
    1b8e:	93 83       	std	Z+3, r25	; 0x03
    1b90:	82 83       	std	Z+2, r24	; 0x02
    1b92:	f4 e0       	ldi	r31, 0x04	; 4
    1b94:	af 0e       	add	r10, r31
    1b96:	b1 1c       	adc	r11, r1
    1b98:	d4 01       	movw	r26, r8
    1b9a:	16 96       	adiw	r26, 0x06	; 6
    1b9c:	2d 91       	ld	r18, X+
    1b9e:	3c 91       	ld	r19, X
    1ba0:	17 97       	sbiw	r26, 0x07	; 7
    1ba2:	c5 01       	movw	r24, r10
    1ba4:	04 96       	adiw	r24, 0x04	; 4
    1ba6:	28 17       	cp	r18, r24
    1ba8:	39 07       	cpc	r19, r25
    1baa:	18 f0       	brcs	.+6      	; 0x1bb2 <_ZN8ATTClass13findByTypeReqEjhPh+0x146>
    1bac:	0f 5f       	subi	r16, 0xFF	; 255
    1bae:	1f 4f       	sbci	r17, 0xFF	; 255
    1bb0:	bd cf       	rjmp	.-134    	; 0x1b2c <_ZN8ATTClass13findByTypeReqEjhPh+0xc0>
    1bb2:	b1 e0       	ldi	r27, 0x01	; 1
    1bb4:	ab 16       	cp	r10, r27
    1bb6:	b1 04       	cpc	r11, r1
    1bb8:	51 f4       	brne	.+20     	; 0x1bce <_ZN8ATTClass13findByTypeReqEjhPh+0x162>
    1bba:	f6 01       	movw	r30, r12
    1bbc:	20 81       	ld	r18, Z
    1bbe:	31 81       	ldd	r19, Z+1	; 0x01
    1bc0:	0a e0       	ldi	r16, 0x0A	; 10
    1bc2:	47 e0       	ldi	r20, 0x07	; 7
    1bc4:	69 81       	ldd	r22, Y+1	; 0x01
    1bc6:	7a 81       	ldd	r23, Y+2	; 0x02
    1bc8:	c4 01       	movw	r24, r8
    1bca:	c4 dd       	rcall	.-1144   	; 0x1754 <_ZN8ATTClass9sendErrorEjhjh>
    1bcc:	0a c0       	rjmp	.+20     	; 0x1be2 <_ZN8ATTClass13findByTypeReqEjhPh+0x176>
    1bce:	0b 81       	ldd	r16, Y+3	; 0x03
    1bd0:	1c 81       	ldd	r17, Y+4	; 0x04
    1bd2:	2a 2d       	mov	r18, r10
    1bd4:	44 e0       	ldi	r20, 0x04	; 4
    1bd6:	69 81       	ldd	r22, Y+1	; 0x01
    1bd8:	7a 81       	ldd	r23, Y+2	; 0x02
    1bda:	89 e6       	ldi	r24, 0x69	; 105
    1bdc:	94 e0       	ldi	r25, 0x04	; 4
    1bde:	0e 94 09 1a 	call	0x3412	; 0x3412 <_ZN8HCIClass13sendAclPacketEjhhPv>
    1be2:	0f b6       	in	r0, 0x3f	; 63
    1be4:	f8 94       	cli
    1be6:	3e be       	out	0x3e, r3	; 62
    1be8:	0f be       	out	0x3f, r0	; 63
    1bea:	2d be       	out	0x3d, r2	; 61
    1bec:	14 c0       	rjmp	.+40     	; 0x1c16 <_ZN8ATTClass13findByTypeReqEjhPh+0x1aa>
    1bee:	b8 01       	movw	r22, r16
    1bf0:	89 e8       	ldi	r24, 0x89	; 137
    1bf2:	93 e0       	ldi	r25, 0x03	; 3
    1bf4:	0e 94 dd 17 	call	0x2fba	; 0x2fba <_ZN9GATTClass9attributeEj>
    1bf8:	7c 01       	movw	r14, r24
    1bfa:	dc 01       	movw	r26, r24
    1bfc:	ed 91       	ld	r30, X+
    1bfe:	fc 91       	ld	r31, X
    1c00:	04 80       	ldd	r0, Z+4	; 0x04
    1c02:	f5 81       	ldd	r31, Z+5	; 0x05
    1c04:	e0 2d       	mov	r30, r0
    1c06:	09 95       	icall
    1c08:	f6 01       	movw	r30, r12
    1c0a:	24 81       	ldd	r18, Z+4	; 0x04
    1c0c:	35 81       	ldd	r19, Z+5	; 0x05
    1c0e:	82 17       	cp	r24, r18
    1c10:	93 07       	cpc	r25, r19
    1c12:	11 f6       	brne	.-124    	; 0x1b98 <_ZN8ATTClass13findByTypeReqEjhPh+0x12c>
    1c14:	9e cf       	rjmp	.-196    	; 0x1b52 <_ZN8ATTClass13findByTypeReqEjhPh+0xe6>
    1c16:	0f b6       	in	r0, 0x3f	; 63
    1c18:	f8 94       	cli
    1c1a:	5e be       	out	0x3e, r5	; 62
    1c1c:	0f be       	out	0x3f, r0	; 63
    1c1e:	4d be       	out	0x3d, r4	; 61
    1c20:	28 96       	adiw	r28, 0x08	; 8
    1c22:	0f b6       	in	r0, 0x3f	; 63
    1c24:	f8 94       	cli
    1c26:	de bf       	out	0x3e, r29	; 62
    1c28:	0f be       	out	0x3f, r0	; 63
    1c2a:	cd bf       	out	0x3d, r28	; 61
    1c2c:	df 91       	pop	r29
    1c2e:	cf 91       	pop	r28
    1c30:	1f 91       	pop	r17
    1c32:	0f 91       	pop	r16
    1c34:	ff 90       	pop	r15
    1c36:	ef 90       	pop	r14
    1c38:	df 90       	pop	r13
    1c3a:	cf 90       	pop	r12
    1c3c:	bf 90       	pop	r11
    1c3e:	af 90       	pop	r10
    1c40:	9f 90       	pop	r9
    1c42:	8f 90       	pop	r8
    1c44:	7f 90       	pop	r7
    1c46:	6f 90       	pop	r6
    1c48:	5f 90       	pop	r5
    1c4a:	4f 90       	pop	r4
    1c4c:	3f 90       	pop	r3
    1c4e:	2f 90       	pop	r2
    1c50:	08 95       	ret

00001c52 <_ZN8ATTClass14readByGroupReqEjhPh>:
    1c52:	2f 92       	push	r2
    1c54:	3f 92       	push	r3
    1c56:	4f 92       	push	r4
    1c58:	5f 92       	push	r5
    1c5a:	6f 92       	push	r6
    1c5c:	7f 92       	push	r7
    1c5e:	8f 92       	push	r8
    1c60:	9f 92       	push	r9
    1c62:	af 92       	push	r10
    1c64:	bf 92       	push	r11
    1c66:	cf 92       	push	r12
    1c68:	df 92       	push	r13
    1c6a:	ef 92       	push	r14
    1c6c:	ff 92       	push	r15
    1c6e:	0f 93       	push	r16
    1c70:	1f 93       	push	r17
    1c72:	cf 93       	push	r28
    1c74:	df 93       	push	r29
    1c76:	cd b7       	in	r28, 0x3d	; 61
    1c78:	de b7       	in	r29, 0x3e	; 62
    1c7a:	28 97       	sbiw	r28, 0x08	; 8
    1c7c:	0f b6       	in	r0, 0x3f	; 63
    1c7e:	f8 94       	cli
    1c80:	de bf       	out	0x3e, r29	; 62
    1c82:	0f be       	out	0x3f, r0	; 63
    1c84:	cd bf       	out	0x3d, r28	; 61
    1c86:	9a 83       	std	Y+2, r25	; 0x02
    1c88:	89 83       	std	Y+1, r24	; 0x01
    1c8a:	7e 83       	std	Y+6, r23	; 0x06
    1c8c:	6d 83       	std	Y+5, r22	; 0x05
    1c8e:	39 01       	movw	r6, r18
    1c90:	4d b6       	in	r4, 0x3d	; 61
    1c92:	5e b6       	in	r5, 0x3e	; 62
    1c94:	2d b6       	in	r2, 0x3d	; 61
    1c96:	3e b6       	in	r3, 0x3e	; 62
    1c98:	46 30       	cpi	r20, 0x06	; 6
    1c9a:	41 f4       	brne	.+16     	; 0x1cac <_ZN8ATTClass14readByGroupReqEjhPh+0x5a>
    1c9c:	d9 01       	movw	r26, r18
    1c9e:	14 96       	adiw	r26, 0x04	; 4
    1ca0:	8d 91       	ld	r24, X+
    1ca2:	9c 91       	ld	r25, X
    1ca4:	15 97       	sbiw	r26, 0x05	; 5
    1ca6:	98 52       	subi	r25, 0x28	; 40
    1ca8:	02 97       	sbiw	r24, 0x02	; 2
    1caa:	80 f0       	brcs	.+32     	; 0x1ccc <_ZN8ATTClass14readByGroupReqEjhPh+0x7a>
    1cac:	f3 01       	movw	r30, r6
    1cae:	20 81       	ld	r18, Z
    1cb0:	31 81       	ldd	r19, Z+1	; 0x01
    1cb2:	00 e1       	ldi	r16, 0x10	; 16
    1cb4:	40 e1       	ldi	r20, 0x10	; 16
    1cb6:	6d 81       	ldd	r22, Y+5	; 0x05
    1cb8:	7e 81       	ldd	r23, Y+6	; 0x06
    1cba:	89 81       	ldd	r24, Y+1	; 0x01
    1cbc:	9a 81       	ldd	r25, Y+2	; 0x02
    1cbe:	4a dd       	rcall	.-1388   	; 0x1754 <_ZN8ATTClass9sendErrorEjhjh>
    1cc0:	0f b6       	in	r0, 0x3f	; 63
    1cc2:	f8 94       	cli
    1cc4:	3e be       	out	0x3e, r3	; 62
    1cc6:	0f be       	out	0x3f, r0	; 63
    1cc8:	2d be       	out	0x3d, r2	; 61
    1cca:	ba c0       	rjmp	.+372    	; 0x1e40 <_ZN8ATTClass14readByGroupReqEjhPh+0x1ee>
    1ccc:	a9 81       	ldd	r26, Y+1	; 0x01
    1cce:	ba 81       	ldd	r27, Y+2	; 0x02
    1cd0:	16 96       	adiw	r26, 0x06	; 6
    1cd2:	8d 91       	ld	r24, X+
    1cd4:	9c 91       	ld	r25, X
    1cd6:	17 97       	sbiw	r26, 0x07	; 7
    1cd8:	ed b7       	in	r30, 0x3d	; 61
    1cda:	fe b7       	in	r31, 0x3e	; 62
    1cdc:	e8 1b       	sub	r30, r24
    1cde:	f9 0b       	sbc	r31, r25
    1ce0:	0f b6       	in	r0, 0x3f	; 63
    1ce2:	f8 94       	cli
    1ce4:	fe bf       	out	0x3e, r31	; 62
    1ce6:	0f be       	out	0x3f, r0	; 63
    1ce8:	ed bf       	out	0x3d, r30	; 61
    1cea:	2d b7       	in	r18, 0x3d	; 61
    1cec:	3e b7       	in	r19, 0x3e	; 62
    1cee:	2f 5f       	subi	r18, 0xFF	; 255
    1cf0:	3f 4f       	sbci	r19, 0xFF	; 255
    1cf2:	38 87       	std	Y+8, r19	; 0x08
    1cf4:	2f 83       	std	Y+7, r18	; 0x07
    1cf6:	49 01       	movw	r8, r18
    1cf8:	81 e1       	ldi	r24, 0x11	; 17
    1cfa:	81 83       	std	Z+1, r24	; 0x01
    1cfc:	d9 01       	movw	r26, r18
    1cfe:	11 96       	adiw	r26, 0x01	; 1
    1d00:	1c 92       	st	X, r1
    1d02:	f3 01       	movw	r30, r6
    1d04:	00 81       	ld	r16, Z
    1d06:	11 81       	ldd	r17, Z+1	; 0x01
    1d08:	01 50       	subi	r16, 0x01	; 1
    1d0a:	11 09       	sbc	r17, r1
    1d0c:	68 94       	set
    1d0e:	aa 24       	eor	r10, r10
    1d10:	a1 f8       	bld	r10, 1
    1d12:	b1 2c       	mov	r11, r1
    1d14:	89 e8       	ldi	r24, 0x89	; 137
    1d16:	93 e0       	ldi	r25, 0x03	; 3
    1d18:	0e 94 d7 17 	call	0x2fae	; 0x2fae <_ZN9GATTClass14attributeCountEv>
    1d1c:	08 17       	cp	r16, r24
    1d1e:	19 07       	cpc	r17, r25
    1d20:	08 f0       	brcs	.+2      	; 0x1d24 <_ZN8ATTClass14readByGroupReqEjhPh+0xd2>
    1d22:	59 c0       	rjmp	.+178    	; 0x1dd6 <_ZN8ATTClass14readByGroupReqEjhPh+0x184>
    1d24:	d3 01       	movw	r26, r6
    1d26:	12 96       	adiw	r26, 0x02	; 2
    1d28:	8d 91       	ld	r24, X+
    1d2a:	9c 91       	ld	r25, X
    1d2c:	13 97       	sbiw	r26, 0x03	; 3
    1d2e:	01 97       	sbiw	r24, 0x01	; 1
    1d30:	80 17       	cp	r24, r16
    1d32:	91 07       	cpc	r25, r17
    1d34:	08 f0       	brcs	.+2      	; 0x1d38 <_ZN8ATTClass14readByGroupReqEjhPh+0xe6>
    1d36:	6e c0       	rjmp	.+220    	; 0x1e14 <_ZN8ATTClass14readByGroupReqEjhPh+0x1c2>
    1d38:	4e c0       	rjmp	.+156    	; 0x1dd6 <_ZN8ATTClass14readByGroupReqEjhPh+0x184>
    1d3a:	c7 01       	movw	r24, r14
    1d3c:	46 d8       	rcall	.-3956   	; 0xdca <_ZN12BLEAttribute10uuidLengthEv>
    1d3e:	c8 2e       	mov	r12, r24
    1d40:	b2 e0       	ldi	r27, 0x02	; 2
    1d42:	8b 17       	cp	r24, r27
    1d44:	21 f0       	breq	.+8      	; 0x1d4e <_ZN8ATTClass14readByGroupReqEjhPh+0xfc>
    1d46:	e4 e1       	ldi	r30, 0x14	; 20
    1d48:	eb 83       	std	Y+3, r30	; 0x03
    1d4a:	1c 82       	std	Y+4, r1	; 0x04
    1d4c:	03 c0       	rjmp	.+6      	; 0x1d54 <_ZN8ATTClass14readByGroupReqEjhPh+0x102>
    1d4e:	f6 e0       	ldi	r31, 0x06	; 6
    1d50:	fb 83       	std	Y+3, r31	; 0x03
    1d52:	1c 82       	std	Y+4, r1	; 0x04
    1d54:	d4 01       	movw	r26, r8
    1d56:	11 96       	adiw	r26, 0x01	; 1
    1d58:	8c 91       	ld	r24, X
    1d5a:	11 97       	sbiw	r26, 0x01	; 1
    1d5c:	81 11       	cpse	r24, r1
    1d5e:	03 c0       	rjmp	.+6      	; 0x1d66 <_ZN8ATTClass14readByGroupReqEjhPh+0x114>
    1d60:	eb 81       	ldd	r30, Y+3	; 0x03
    1d62:	11 96       	adiw	r26, 0x01	; 1
    1d64:	ec 93       	st	X, r30
    1d66:	d4 01       	movw	r26, r8
    1d68:	11 96       	adiw	r26, 0x01	; 1
    1d6a:	8c 91       	ld	r24, X
    1d6c:	90 e0       	ldi	r25, 0x00	; 0
    1d6e:	eb 81       	ldd	r30, Y+3	; 0x03
    1d70:	fc 81       	ldd	r31, Y+4	; 0x04
    1d72:	e8 17       	cp	r30, r24
    1d74:	f9 07       	cpc	r31, r25
    1d76:	79 f5       	brne	.+94     	; 0x1dd6 <_ZN8ATTClass14readByGroupReqEjhPh+0x184>
    1d78:	c7 01       	movw	r24, r14
    1d7a:	0e 94 0a 06 	call	0xc14	; 0xc14 <_ZN12LocalService11startHandleEv>
    1d7e:	f4 01       	movw	r30, r8
    1d80:	ea 0d       	add	r30, r10
    1d82:	fb 1d       	adc	r31, r11
    1d84:	91 83       	std	Z+1, r25	; 0x01
    1d86:	80 83       	st	Z, r24
    1d88:	c7 01       	movw	r24, r14
    1d8a:	0e 94 0e 06 	call	0xc1c	; 0xc1c <_ZN12LocalService9endHandleEv>
    1d8e:	f4 01       	movw	r30, r8
    1d90:	ea 0d       	add	r30, r10
    1d92:	fb 1d       	adc	r31, r11
    1d94:	93 83       	std	Z+3, r25	; 0x03
    1d96:	82 83       	std	Z+2, r24	; 0x02
    1d98:	f4 e0       	ldi	r31, 0x04	; 4
    1d9a:	af 0e       	add	r10, r31
    1d9c:	b1 1c       	adc	r11, r1
    1d9e:	d1 2c       	mov	r13, r1
    1da0:	c7 01       	movw	r24, r14
    1da2:	10 d8       	rcall	.-4064   	; 0xdc4 <_ZN12BLEAttribute8uuidDataEv>
    1da4:	a6 01       	movw	r20, r12
    1da6:	bc 01       	movw	r22, r24
    1da8:	c4 01       	movw	r24, r8
    1daa:	8a 0d       	add	r24, r10
    1dac:	9b 1d       	adc	r25, r11
    1dae:	0e 94 b7 2e 	call	0x5d6e	; 0x5d6e <memcpy>
    1db2:	ac 0c       	add	r10, r12
    1db4:	bd 1c       	adc	r11, r13
    1db6:	8b 81       	ldd	r24, Y+3	; 0x03
    1db8:	9c 81       	ldd	r25, Y+4	; 0x04
    1dba:	8a 0d       	add	r24, r10
    1dbc:	9b 1d       	adc	r25, r11
    1dbe:	a9 81       	ldd	r26, Y+1	; 0x01
    1dc0:	ba 81       	ldd	r27, Y+2	; 0x02
    1dc2:	16 96       	adiw	r26, 0x06	; 6
    1dc4:	2d 91       	ld	r18, X+
    1dc6:	3c 91       	ld	r19, X
    1dc8:	17 97       	sbiw	r26, 0x07	; 7
    1dca:	28 17       	cp	r18, r24
    1dcc:	39 07       	cpc	r19, r25
    1dce:	18 f0       	brcs	.+6      	; 0x1dd6 <_ZN8ATTClass14readByGroupReqEjhPh+0x184>
    1dd0:	0f 5f       	subi	r16, 0xFF	; 255
    1dd2:	1f 4f       	sbci	r17, 0xFF	; 255
    1dd4:	9f cf       	rjmp	.-194    	; 0x1d14 <_ZN8ATTClass14readByGroupReqEjhPh+0xc2>
    1dd6:	b2 e0       	ldi	r27, 0x02	; 2
    1dd8:	ab 16       	cp	r10, r27
    1dda:	b1 04       	cpc	r11, r1
    1ddc:	59 f4       	brne	.+22     	; 0x1df4 <_ZN8ATTClass14readByGroupReqEjhPh+0x1a2>
    1dde:	f3 01       	movw	r30, r6
    1de0:	20 81       	ld	r18, Z
    1de2:	31 81       	ldd	r19, Z+1	; 0x01
    1de4:	0a e0       	ldi	r16, 0x0A	; 10
    1de6:	40 e1       	ldi	r20, 0x10	; 16
    1de8:	6d 81       	ldd	r22, Y+5	; 0x05
    1dea:	7e 81       	ldd	r23, Y+6	; 0x06
    1dec:	89 81       	ldd	r24, Y+1	; 0x01
    1dee:	9a 81       	ldd	r25, Y+2	; 0x02
    1df0:	b1 dc       	rcall	.-1694   	; 0x1754 <_ZN8ATTClass9sendErrorEjhjh>
    1df2:	0a c0       	rjmp	.+20     	; 0x1e08 <_ZN8ATTClass14readByGroupReqEjhPh+0x1b6>
    1df4:	0f 81       	ldd	r16, Y+7	; 0x07
    1df6:	18 85       	ldd	r17, Y+8	; 0x08
    1df8:	2a 2d       	mov	r18, r10
    1dfa:	44 e0       	ldi	r20, 0x04	; 4
    1dfc:	6d 81       	ldd	r22, Y+5	; 0x05
    1dfe:	7e 81       	ldd	r23, Y+6	; 0x06
    1e00:	89 e6       	ldi	r24, 0x69	; 105
    1e02:	94 e0       	ldi	r25, 0x04	; 4
    1e04:	0e 94 09 1a 	call	0x3412	; 0x3412 <_ZN8HCIClass13sendAclPacketEjhhPv>
    1e08:	0f b6       	in	r0, 0x3f	; 63
    1e0a:	f8 94       	cli
    1e0c:	3e be       	out	0x3e, r3	; 62
    1e0e:	0f be       	out	0x3f, r0	; 63
    1e10:	2d be       	out	0x3d, r2	; 61
    1e12:	16 c0       	rjmp	.+44     	; 0x1e40 <_ZN8ATTClass14readByGroupReqEjhPh+0x1ee>
    1e14:	b8 01       	movw	r22, r16
    1e16:	89 e8       	ldi	r24, 0x89	; 137
    1e18:	93 e0       	ldi	r25, 0x03	; 3
    1e1a:	0e 94 dd 17 	call	0x2fba	; 0x2fba <_ZN9GATTClass9attributeEj>
    1e1e:	7c 01       	movw	r14, r24
    1e20:	d3 01       	movw	r26, r6
    1e22:	14 96       	adiw	r26, 0x04	; 4
    1e24:	cd 90       	ld	r12, X+
    1e26:	dc 90       	ld	r13, X
    1e28:	15 97       	sbiw	r26, 0x05	; 5
    1e2a:	dc 01       	movw	r26, r24
    1e2c:	ed 91       	ld	r30, X+
    1e2e:	fc 91       	ld	r31, X
    1e30:	04 80       	ldd	r0, Z+4	; 0x04
    1e32:	f5 81       	ldd	r31, Z+5	; 0x05
    1e34:	e0 2d       	mov	r30, r0
    1e36:	09 95       	icall
    1e38:	c8 16       	cp	r12, r24
    1e3a:	d9 06       	cpc	r13, r25
    1e3c:	49 f6       	brne	.-110    	; 0x1dd0 <_ZN8ATTClass14readByGroupReqEjhPh+0x17e>
    1e3e:	7d cf       	rjmp	.-262    	; 0x1d3a <_ZN8ATTClass14readByGroupReqEjhPh+0xe8>
    1e40:	0f b6       	in	r0, 0x3f	; 63
    1e42:	f8 94       	cli
    1e44:	5e be       	out	0x3e, r5	; 62
    1e46:	0f be       	out	0x3f, r0	; 63
    1e48:	4d be       	out	0x3d, r4	; 61
    1e4a:	28 96       	adiw	r28, 0x08	; 8
    1e4c:	0f b6       	in	r0, 0x3f	; 63
    1e4e:	f8 94       	cli
    1e50:	de bf       	out	0x3e, r29	; 62
    1e52:	0f be       	out	0x3f, r0	; 63
    1e54:	cd bf       	out	0x3d, r28	; 61
    1e56:	df 91       	pop	r29
    1e58:	cf 91       	pop	r28
    1e5a:	1f 91       	pop	r17
    1e5c:	0f 91       	pop	r16
    1e5e:	ff 90       	pop	r15
    1e60:	ef 90       	pop	r14
    1e62:	df 90       	pop	r13
    1e64:	cf 90       	pop	r12
    1e66:	bf 90       	pop	r11
    1e68:	af 90       	pop	r10
    1e6a:	9f 90       	pop	r9
    1e6c:	8f 90       	pop	r8
    1e6e:	7f 90       	pop	r7
    1e70:	6f 90       	pop	r6
    1e72:	5f 90       	pop	r5
    1e74:	4f 90       	pop	r4
    1e76:	3f 90       	pop	r3
    1e78:	2f 90       	pop	r2
    1e7a:	08 95       	ret

00001e7c <_ZN8ATTClass17readOrReadBlobReqEjhhPh>:
    1e7c:	2f 92       	push	r2
    1e7e:	3f 92       	push	r3
    1e80:	4f 92       	push	r4
    1e82:	5f 92       	push	r5
    1e84:	6f 92       	push	r6
    1e86:	7f 92       	push	r7
    1e88:	8f 92       	push	r8
    1e8a:	9f 92       	push	r9
    1e8c:	af 92       	push	r10
    1e8e:	bf 92       	push	r11
    1e90:	cf 92       	push	r12
    1e92:	df 92       	push	r13
    1e94:	ef 92       	push	r14
    1e96:	ff 92       	push	r15
    1e98:	0f 93       	push	r16
    1e9a:	1f 93       	push	r17
    1e9c:	cf 93       	push	r28
    1e9e:	df 93       	push	r29
    1ea0:	cd b7       	in	r28, 0x3d	; 61
    1ea2:	de b7       	in	r29, 0x3e	; 62
    1ea4:	6f 97       	sbiw	r28, 0x1f	; 31
    1ea6:	0f b6       	in	r0, 0x3f	; 63
    1ea8:	f8 94       	cli
    1eaa:	de bf       	out	0x3e, r29	; 62
    1eac:	0f be       	out	0x3f, r0	; 63
    1eae:	cd bf       	out	0x3d, r28	; 61
    1eb0:	7c 01       	movw	r14, r24
    1eb2:	4b 01       	movw	r8, r22
    1eb4:	4d 8f       	std	Y+29, r20	; 0x1d
    1eb6:	cd b6       	in	r12, 0x3d	; 61
    1eb8:	de b6       	in	r13, 0x3e	; 62
    1eba:	ad b6       	in	r10, 0x3d	; 61
    1ebc:	be b6       	in	r11, 0x3e	; 62
    1ebe:	4a 30       	cpi	r20, 0x0A	; 10
    1ec0:	41 f4       	brne	.+16     	; 0x1ed2 <_ZN8ATTClass17readOrReadBlobReqEjhhPh+0x56>
    1ec2:	22 30       	cpi	r18, 0x02	; 2
    1ec4:	09 f4       	brne	.+2      	; 0x1ec8 <_ZN8ATTClass17readOrReadBlobReqEjhhPh+0x4c>
    1ec6:	27 c1       	rjmp	.+590    	; 0x2116 <_ZN8ATTClass17readOrReadBlobReqEjhhPh+0x29a>
    1ec8:	04 e0       	ldi	r16, 0x04	; 4
    1eca:	20 e0       	ldi	r18, 0x00	; 0
    1ecc:	30 e0       	ldi	r19, 0x00	; 0
    1ece:	42 dc       	rcall	.-1916   	; 0x1754 <_ZN8ATTClass9sendErrorEjhjh>
    1ed0:	0b c1       	rjmp	.+534    	; 0x20e8 <_ZN8ATTClass17readOrReadBlobReqEjhhPh+0x26c>
    1ed2:	24 30       	cpi	r18, 0x04	; 4
    1ed4:	09 f4       	brne	.+2      	; 0x1ed8 <_ZN8ATTClass17readOrReadBlobReqEjhhPh+0x5c>
    1ed6:	0e c1       	rjmp	.+540    	; 0x20f4 <_ZN8ATTClass17readOrReadBlobReqEjhhPh+0x278>
    1ed8:	04 e0       	ldi	r16, 0x04	; 4
    1eda:	20 e0       	ldi	r18, 0x00	; 0
    1edc:	30 e0       	ldi	r19, 0x00	; 0
    1ede:	4c e0       	ldi	r20, 0x0C	; 12
    1ee0:	39 dc       	rcall	.-1934   	; 0x1754 <_ZN8ATTClass9sendErrorEjhjh>
    1ee2:	02 c1       	rjmp	.+516    	; 0x20e8 <_ZN8ATTClass17readOrReadBlobReqEjhhPh+0x26c>
    1ee4:	0a e0       	ldi	r16, 0x0A	; 10
    1ee6:	93 01       	movw	r18, r6
    1ee8:	4d 8d       	ldd	r20, Y+29	; 0x1d
    1eea:	b4 01       	movw	r22, r8
    1eec:	c7 01       	movw	r24, r14
    1eee:	32 dc       	rcall	.-1948   	; 0x1754 <_ZN8ATTClass9sendErrorEjhjh>
    1ef0:	fb c0       	rjmp	.+502    	; 0x20e8 <_ZN8ATTClass17readOrReadBlobReqEjhhPh+0x26c>
    1ef2:	d7 01       	movw	r26, r14
    1ef4:	16 96       	adiw	r26, 0x06	; 6
    1ef6:	8d 91       	ld	r24, X+
    1ef8:	9c 91       	ld	r25, X
    1efa:	17 97       	sbiw	r26, 0x07	; 7
    1efc:	ed b7       	in	r30, 0x3d	; 61
    1efe:	fe b7       	in	r31, 0x3e	; 62
    1f00:	e8 1b       	sub	r30, r24
    1f02:	f9 0b       	sbc	r31, r25
    1f04:	0f b6       	in	r0, 0x3f	; 63
    1f06:	f8 94       	cli
    1f08:	fe bf       	out	0x3e, r31	; 62
    1f0a:	0f be       	out	0x3f, r0	; 63
    1f0c:	ed bf       	out	0x3d, r30	; 61
    1f0e:	2d b7       	in	r18, 0x3d	; 61
    1f10:	3e b7       	in	r19, 0x3e	; 62
    1f12:	2f 5f       	subi	r18, 0xFF	; 255
    1f14:	3f 4f       	sbci	r19, 0xFF	; 255
    1f16:	3f 8f       	std	Y+31, r19	; 0x1f
    1f18:	2e 8f       	std	Y+30, r18	; 0x1e
    1f1a:	8b e0       	ldi	r24, 0x0B	; 11
    1f1c:	81 83       	std	Z+1, r24	; 0x01
    1f1e:	b2 01       	movw	r22, r4
    1f20:	89 e8       	ldi	r24, 0x89	; 137
    1f22:	93 e0       	ldi	r25, 0x03	; 3
    1f24:	0e 94 dd 17 	call	0x2fba	; 0x2fba <_ZN9GATTClass9attributeEj>
    1f28:	2c 01       	movw	r4, r24
    1f2a:	dc 01       	movw	r26, r24
    1f2c:	ed 91       	ld	r30, X+
    1f2e:	fc 91       	ld	r31, X
    1f30:	04 80       	ldd	r0, Z+4	; 0x04
    1f32:	f5 81       	ldd	r31, Z+5	; 0x05
    1f34:	e0 2d       	mov	r30, r0
    1f36:	09 95       	icall
    1f38:	81 15       	cp	r24, r1
    1f3a:	b8 e2       	ldi	r27, 0x28	; 40
    1f3c:	9b 07       	cpc	r25, r27
    1f3e:	61 f0       	breq	.+24     	; 0x1f58 <_ZN8ATTClass17readOrReadBlobReqEjhhPh+0xdc>
    1f40:	21 2c       	mov	r2, r1
    1f42:	31 2c       	mov	r3, r1
    1f44:	1c c0       	rjmp	.+56     	; 0x1f7e <_ZN8ATTClass17readOrReadBlobReqEjhhPh+0x102>
    1f46:	23 28       	or	r2, r3
    1f48:	39 f0       	breq	.+14     	; 0x1f58 <_ZN8ATTClass17readOrReadBlobReqEjhhPh+0xdc>
    1f4a:	04 e0       	ldi	r16, 0x04	; 4
    1f4c:	93 01       	movw	r18, r6
    1f4e:	4b e0       	ldi	r20, 0x0B	; 11
    1f50:	b4 01       	movw	r22, r8
    1f52:	c7 01       	movw	r24, r14
    1f54:	ff db       	rcall	.-2050   	; 0x1754 <_ZN8ATTClass9sendErrorEjhjh>
    1f56:	c8 c0       	rjmp	.+400    	; 0x20e8 <_ZN8ATTClass17readOrReadBlobReqEjhhPh+0x26c>
    1f58:	c2 01       	movw	r24, r4
    1f5a:	0e 94 e5 06 	call	0xdca	; 0xdca <_ZN12BLEAttribute10uuidLengthEv>
    1f5e:	e8 2e       	mov	r14, r24
    1f60:	f1 2c       	mov	r15, r1
    1f62:	c2 01       	movw	r24, r4
    1f64:	0e 94 e2 06 	call	0xdc4	; 0xdc4 <_ZN12BLEAttribute8uuidDataEv>
    1f68:	a7 01       	movw	r20, r14
    1f6a:	bc 01       	movw	r22, r24
    1f6c:	8e 8d       	ldd	r24, Y+30	; 0x1e
    1f6e:	9f 8d       	ldd	r25, Y+31	; 0x1f
    1f70:	01 96       	adiw	r24, 0x01	; 1
    1f72:	0e 94 b7 2e 	call	0x5d6e	; 0x5d6e <memcpy>
    1f76:	97 01       	movw	r18, r14
    1f78:	2f 5f       	subi	r18, 0xFF	; 255
    1f7a:	3f 4f       	sbci	r19, 0xFF	; 255
    1f7c:	a7 c0       	rjmp	.+334    	; 0x20cc <_ZN8ATTClass17readOrReadBlobReqEjhhPh+0x250>
    1f7e:	83 30       	cpi	r24, 0x03	; 3
    1f80:	e8 e2       	ldi	r30, 0x28	; 40
    1f82:	9e 07       	cpc	r25, r30
    1f84:	09 f0       	breq	.+2      	; 0x1f88 <_ZN8ATTClass17readOrReadBlobReqEjhhPh+0x10c>
    1f86:	72 c0       	rjmp	.+228    	; 0x206c <_ZN8ATTClass17readOrReadBlobReqEjhhPh+0x1f0>
    1f88:	c2 01       	movw	r24, r4
    1f8a:	0e 94 c6 02 	call	0x58c	; 0x58c <_ZN19LocalCharacteristic6handleEv>
    1f8e:	86 15       	cp	r24, r6
    1f90:	97 05       	cpc	r25, r7
    1f92:	51 f5       	brne	.+84     	; 0x1fe8 <_ZN8ATTClass17readOrReadBlobReqEjhhPh+0x16c>
    1f94:	23 28       	or	r2, r3
    1f96:	39 f0       	breq	.+14     	; 0x1fa6 <_ZN8ATTClass17readOrReadBlobReqEjhhPh+0x12a>
    1f98:	0b e0       	ldi	r16, 0x0B	; 11
    1f9a:	9c 01       	movw	r18, r24
    1f9c:	4d 8d       	ldd	r20, Y+29	; 0x1d
    1f9e:	b4 01       	movw	r22, r8
    1fa0:	c7 01       	movw	r24, r14
    1fa2:	d8 db       	rcall	.-2128   	; 0x1754 <_ZN8ATTClass9sendErrorEjhjh>
    1fa4:	a1 c0       	rjmp	.+322    	; 0x20e8 <_ZN8ATTClass17readOrReadBlobReqEjhhPh+0x26c>
    1fa6:	c2 01       	movw	r24, r4
    1fa8:	0e 94 45 02 	call	0x48a	; 0x48a <_ZN19LocalCharacteristic10propertiesEv>
    1fac:	ae 8d       	ldd	r26, Y+30	; 0x1e
    1fae:	bf 8d       	ldd	r27, Y+31	; 0x1f
    1fb0:	11 96       	adiw	r26, 0x01	; 1
    1fb2:	8c 93       	st	X, r24
    1fb4:	c2 01       	movw	r24, r4
    1fb6:	0e 94 ca 02 	call	0x594	; 0x594 <_ZN19LocalCharacteristic11valueHandleEv>
    1fba:	ee 8d       	ldd	r30, Y+30	; 0x1e
    1fbc:	ff 8d       	ldd	r31, Y+31	; 0x1f
    1fbe:	93 83       	std	Z+3, r25	; 0x03
    1fc0:	82 83       	std	Z+2, r24	; 0x02
    1fc2:	c2 01       	movw	r24, r4
    1fc4:	0e 94 e5 06 	call	0xdca	; 0xdca <_ZN12BLEAttribute10uuidLengthEv>
    1fc8:	e8 2e       	mov	r14, r24
    1fca:	f1 2c       	mov	r15, r1
    1fcc:	c2 01       	movw	r24, r4
    1fce:	0e 94 e2 06 	call	0xdc4	; 0xdc4 <_ZN12BLEAttribute8uuidDataEv>
    1fd2:	a7 01       	movw	r20, r14
    1fd4:	bc 01       	movw	r22, r24
    1fd6:	8e 8d       	ldd	r24, Y+30	; 0x1e
    1fd8:	9f 8d       	ldd	r25, Y+31	; 0x1f
    1fda:	04 96       	adiw	r24, 0x04	; 4
    1fdc:	0e 94 b7 2e 	call	0x5d6e	; 0x5d6e <memcpy>
    1fe0:	97 01       	movw	r18, r14
    1fe2:	2c 5f       	subi	r18, 0xFC	; 252
    1fe4:	3f 4f       	sbci	r19, 0xFF	; 255
    1fe6:	72 c0       	rjmp	.+228    	; 0x20cc <_ZN8ATTClass17readOrReadBlobReqEjhhPh+0x250>
    1fe8:	c2 01       	movw	r24, r4
    1fea:	0e 94 45 02 	call	0x48a	; 0x48a <_ZN19LocalCharacteristic10propertiesEv>
    1fee:	81 fd       	sbrc	r24, 1
    1ff0:	07 c0       	rjmp	.+14     	; 0x2000 <_ZN8ATTClass17readOrReadBlobReqEjhhPh+0x184>
    1ff2:	02 e0       	ldi	r16, 0x02	; 2
    1ff4:	93 01       	movw	r18, r6
    1ff6:	4d 8d       	ldd	r20, Y+29	; 0x1d
    1ff8:	b4 01       	movw	r22, r8
    1ffa:	c7 01       	movw	r24, r14
    1ffc:	ab db       	rcall	.-2218   	; 0x1754 <_ZN8ATTClass9sendErrorEjhjh>
    1ffe:	74 c0       	rjmp	.+232    	; 0x20e8 <_ZN8ATTClass17readOrReadBlobReqEjhhPh+0x26c>
    2000:	c2 01       	movw	r24, r4
    2002:	0e 94 50 02 	call	0x4a0	; 0x4a0 <_ZN19LocalCharacteristic11valueLengthEv>
    2006:	28 16       	cp	r2, r24
    2008:	39 06       	cpc	r3, r25
    200a:	38 f0       	brcs	.+14     	; 0x201a <_ZN8ATTClass17readOrReadBlobReqEjhhPh+0x19e>
    200c:	07 e0       	ldi	r16, 0x07	; 7
    200e:	93 01       	movw	r18, r6
    2010:	4d 8d       	ldd	r20, Y+29	; 0x1d
    2012:	b4 01       	movw	r22, r8
    2014:	c7 01       	movw	r24, r14
    2016:	9e db       	rcall	.-2244   	; 0x1754 <_ZN8ATTClass9sendErrorEjhjh>
    2018:	67 c0       	rjmp	.+206    	; 0x20e8 <_ZN8ATTClass17readOrReadBlobReqEjhhPh+0x26c>
    201a:	82 19       	sub	r24, r2
    201c:	93 09       	sbc	r25, r3
    201e:	d7 01       	movw	r26, r14
    2020:	16 96       	adiw	r26, 0x06	; 6
    2022:	6d 90       	ld	r6, X+
    2024:	7c 90       	ld	r7, X
    2026:	17 97       	sbiw	r26, 0x07	; 7
    2028:	b1 e0       	ldi	r27, 0x01	; 1
    202a:	6b 1a       	sub	r6, r27
    202c:	71 08       	sbc	r7, r1
    202e:	86 15       	cp	r24, r6
    2030:	97 05       	cpc	r25, r7
    2032:	08 f4       	brcc	.+2      	; 0x2036 <_ZN8ATTClass17readOrReadBlobReqEjhhPh+0x1ba>
    2034:	3c 01       	movw	r6, r24
    2036:	a7 01       	movw	r20, r14
    2038:	42 5f       	subi	r20, 0xF2	; 242
    203a:	5f 4f       	sbci	r21, 0xFF	; 255
    203c:	b4 01       	movw	r22, r8
    203e:	ce 01       	movw	r24, r28
    2040:	01 96       	adiw	r24, 0x01	; 1
    2042:	20 d8       	rcall	.-4032   	; 0x1084 <_ZN9BLEDeviceC1EjPh>
    2044:	83 01       	movw	r16, r6
    2046:	2e 8d       	ldd	r18, Y+30	; 0x1e
    2048:	3f 8d       	ldd	r19, Y+31	; 0x1f
    204a:	2f 5f       	subi	r18, 0xFF	; 255
    204c:	3f 4f       	sbci	r19, 0xFF	; 255
    204e:	a1 01       	movw	r20, r2
    2050:	be 01       	movw	r22, r28
    2052:	6f 5f       	subi	r22, 0xFF	; 255
    2054:	7f 4f       	sbci	r23, 0xFF	; 255
    2056:	c2 01       	movw	r24, r4
    2058:	0e 94 de 03 	call	0x7bc	; 0x7bc <_ZN19LocalCharacteristic9readValueE9BLEDevicejPhi>
    205c:	ce 01       	movw	r24, r28
    205e:	01 96       	adiw	r24, 0x01	; 1
    2060:	0e 94 5c 07 	call	0xeb8	; 0xeb8 <_ZN9BLEDeviceD1Ev>
    2064:	93 01       	movw	r18, r6
    2066:	2f 5f       	subi	r18, 0xFF	; 255
    2068:	3f 4f       	sbci	r19, 0xFF	; 255
    206a:	30 c0       	rjmp	.+96     	; 0x20cc <_ZN8ATTClass17readOrReadBlobReqEjhhPh+0x250>
    206c:	81 15       	cp	r24, r1
    206e:	99 42       	sbci	r25, 0x29	; 41
    2070:	59 f5       	brne	.+86     	; 0x20c8 <_ZN8ATTClass17readOrReadBlobReqEjhhPh+0x24c>
    2072:	c2 01       	movw	r24, r4
    2074:	0e 94 3b 05 	call	0xa76	; 0xa76 <_ZN15LocalDescriptor9valueSizeEv>
    2078:	28 16       	cp	r2, r24
    207a:	39 06       	cpc	r3, r25
    207c:	38 f0       	brcs	.+14     	; 0x208c <_ZN8ATTClass17readOrReadBlobReqEjhhPh+0x210>
    207e:	07 e0       	ldi	r16, 0x07	; 7
    2080:	93 01       	movw	r18, r6
    2082:	4d 8d       	ldd	r20, Y+29	; 0x1d
    2084:	b4 01       	movw	r22, r8
    2086:	c7 01       	movw	r24, r14
    2088:	65 db       	rcall	.-2358   	; 0x1754 <_ZN8ATTClass9sendErrorEjhjh>
    208a:	2e c0       	rjmp	.+92     	; 0x20e8 <_ZN8ATTClass17readOrReadBlobReqEjhhPh+0x26c>
    208c:	82 19       	sub	r24, r2
    208e:	93 09       	sbc	r25, r3
    2090:	d7 01       	movw	r26, r14
    2092:	16 96       	adiw	r26, 0x06	; 6
    2094:	ed 90       	ld	r14, X+
    2096:	fc 90       	ld	r15, X
    2098:	17 97       	sbiw	r26, 0x07	; 7
    209a:	b1 e0       	ldi	r27, 0x01	; 1
    209c:	eb 1a       	sub	r14, r27
    209e:	f1 08       	sbc	r15, r1
    20a0:	8e 15       	cp	r24, r14
    20a2:	9f 05       	cpc	r25, r15
    20a4:	08 f4       	brcc	.+2      	; 0x20a8 <_ZN8ATTClass17readOrReadBlobReqEjhhPh+0x22c>
    20a6:	7c 01       	movw	r14, r24
    20a8:	c2 01       	movw	r24, r4
    20aa:	0e 94 3f 05 	call	0xa7e	; 0xa7e <_ZN15LocalDescriptor5valueEv>
    20ae:	bc 01       	movw	r22, r24
    20b0:	62 0d       	add	r22, r2
    20b2:	73 1d       	adc	r23, r3
    20b4:	a7 01       	movw	r20, r14
    20b6:	8e 8d       	ldd	r24, Y+30	; 0x1e
    20b8:	9f 8d       	ldd	r25, Y+31	; 0x1f
    20ba:	01 96       	adiw	r24, 0x01	; 1
    20bc:	0e 94 b7 2e 	call	0x5d6e	; 0x5d6e <memcpy>
    20c0:	97 01       	movw	r18, r14
    20c2:	2f 5f       	subi	r18, 0xFF	; 255
    20c4:	3f 4f       	sbci	r19, 0xFF	; 255
    20c6:	02 c0       	rjmp	.+4      	; 0x20cc <_ZN8ATTClass17readOrReadBlobReqEjhhPh+0x250>
    20c8:	21 e0       	ldi	r18, 0x01	; 1
    20ca:	30 e0       	ldi	r19, 0x00	; 0
    20cc:	0e 8d       	ldd	r16, Y+30	; 0x1e
    20ce:	1f 8d       	ldd	r17, Y+31	; 0x1f
    20d0:	44 e0       	ldi	r20, 0x04	; 4
    20d2:	b4 01       	movw	r22, r8
    20d4:	89 e6       	ldi	r24, 0x69	; 105
    20d6:	94 e0       	ldi	r25, 0x04	; 4
    20d8:	0e 94 09 1a 	call	0x3412	; 0x3412 <_ZN8HCIClass13sendAclPacketEjhhPv>
    20dc:	0f b6       	in	r0, 0x3f	; 63
    20de:	f8 94       	cli
    20e0:	be be       	out	0x3e, r11	; 62
    20e2:	0f be       	out	0x3f, r0	; 63
    20e4:	ad be       	out	0x3d, r10	; 61
    20e6:	4e c0       	rjmp	.+156    	; 0x2184 <_ZN8ATTClass17readOrReadBlobReqEjhhPh+0x308>
    20e8:	0f b6       	in	r0, 0x3f	; 63
    20ea:	f8 94       	cli
    20ec:	be be       	out	0x3e, r11	; 62
    20ee:	0f be       	out	0x3f, r0	; 63
    20f0:	ad be       	out	0x3d, r10	; 61
    20f2:	48 c0       	rjmp	.+144    	; 0x2184 <_ZN8ATTClass17readOrReadBlobReqEjhhPh+0x308>
    20f4:	f8 01       	movw	r30, r16
    20f6:	60 80       	ld	r6, Z
    20f8:	71 80       	ldd	r7, Z+1	; 0x01
    20fa:	22 80       	ldd	r2, Z+2	; 0x02
    20fc:	33 80       	ldd	r3, Z+3	; 0x03
    20fe:	23 01       	movw	r4, r6
    2100:	f1 e0       	ldi	r31, 0x01	; 1
    2102:	4f 1a       	sub	r4, r31
    2104:	51 08       	sbc	r5, r1
    2106:	89 e8       	ldi	r24, 0x89	; 137
    2108:	93 e0       	ldi	r25, 0x03	; 3
    210a:	51 d7       	rcall	.+3746   	; 0x2fae <_ZN9GATTClass14attributeCountEv>
    210c:	84 15       	cp	r24, r4
    210e:	95 05       	cpc	r25, r5
    2110:	08 f4       	brcc	.+2      	; 0x2114 <_ZN8ATTClass17readOrReadBlobReqEjhhPh+0x298>
    2112:	e8 ce       	rjmp	.-560    	; 0x1ee4 <_ZN8ATTClass17readOrReadBlobReqEjhhPh+0x68>
    2114:	0f c0       	rjmp	.+30     	; 0x2134 <_ZN8ATTClass17readOrReadBlobReqEjhhPh+0x2b8>
    2116:	d8 01       	movw	r26, r16
    2118:	6d 90       	ld	r6, X+
    211a:	7c 90       	ld	r7, X
    211c:	23 01       	movw	r4, r6
    211e:	b1 e0       	ldi	r27, 0x01	; 1
    2120:	4b 1a       	sub	r4, r27
    2122:	51 08       	sbc	r5, r1
    2124:	89 e8       	ldi	r24, 0x89	; 137
    2126:	93 e0       	ldi	r25, 0x03	; 3
    2128:	42 d7       	rcall	.+3716   	; 0x2fae <_ZN9GATTClass14attributeCountEv>
    212a:	84 15       	cp	r24, r4
    212c:	95 05       	cpc	r25, r5
    212e:	08 f4       	brcc	.+2      	; 0x2132 <_ZN8ATTClass17readOrReadBlobReqEjhhPh+0x2b6>
    2130:	d9 ce       	rjmp	.-590    	; 0x1ee4 <_ZN8ATTClass17readOrReadBlobReqEjhhPh+0x68>
    2132:	df ce       	rjmp	.-578    	; 0x1ef2 <_ZN8ATTClass17readOrReadBlobReqEjhhPh+0x76>
    2134:	f7 01       	movw	r30, r14
    2136:	86 81       	ldd	r24, Z+6	; 0x06
    2138:	97 81       	ldd	r25, Z+7	; 0x07
    213a:	2d b7       	in	r18, 0x3d	; 61
    213c:	3e b7       	in	r19, 0x3e	; 62
    213e:	28 1b       	sub	r18, r24
    2140:	39 0b       	sbc	r19, r25
    2142:	0f b6       	in	r0, 0x3f	; 63
    2144:	f8 94       	cli
    2146:	3e bf       	out	0x3e, r19	; 62
    2148:	0f be       	out	0x3f, r0	; 63
    214a:	2d bf       	out	0x3d, r18	; 61
    214c:	8d b7       	in	r24, 0x3d	; 61
    214e:	9e b7       	in	r25, 0x3e	; 62
    2150:	01 96       	adiw	r24, 0x01	; 1
    2152:	9f 8f       	std	Y+31, r25	; 0x1f
    2154:	8e 8f       	std	Y+30, r24	; 0x1e
    2156:	8d e0       	ldi	r24, 0x0D	; 13
    2158:	ad b7       	in	r26, 0x3d	; 61
    215a:	be b7       	in	r27, 0x3e	; 62
    215c:	11 96       	adiw	r26, 0x01	; 1
    215e:	8c 93       	st	X, r24
    2160:	b2 01       	movw	r22, r4
    2162:	89 e8       	ldi	r24, 0x89	; 137
    2164:	93 e0       	ldi	r25, 0x03	; 3
    2166:	29 d7       	rcall	.+3666   	; 0x2fba <_ZN9GATTClass9attributeEj>
    2168:	2c 01       	movw	r4, r24
    216a:	dc 01       	movw	r26, r24
    216c:	ed 91       	ld	r30, X+
    216e:	fc 91       	ld	r31, X
    2170:	04 80       	ldd	r0, Z+4	; 0x04
    2172:	f5 81       	ldd	r31, Z+5	; 0x05
    2174:	e0 2d       	mov	r30, r0
    2176:	09 95       	icall
    2178:	81 15       	cp	r24, r1
    217a:	b8 e2       	ldi	r27, 0x28	; 40
    217c:	9b 07       	cpc	r25, r27
    217e:	09 f0       	breq	.+2      	; 0x2182 <_ZN8ATTClass17readOrReadBlobReqEjhhPh+0x306>
    2180:	fe ce       	rjmp	.-516    	; 0x1f7e <_ZN8ATTClass17readOrReadBlobReqEjhhPh+0x102>
    2182:	e1 ce       	rjmp	.-574    	; 0x1f46 <_ZN8ATTClass17readOrReadBlobReqEjhhPh+0xca>
    2184:	0f b6       	in	r0, 0x3f	; 63
    2186:	f8 94       	cli
    2188:	de be       	out	0x3e, r13	; 62
    218a:	0f be       	out	0x3f, r0	; 63
    218c:	cd be       	out	0x3d, r12	; 61
    218e:	6f 96       	adiw	r28, 0x1f	; 31
    2190:	0f b6       	in	r0, 0x3f	; 63
    2192:	f8 94       	cli
    2194:	de bf       	out	0x3e, r29	; 62
    2196:	0f be       	out	0x3f, r0	; 63
    2198:	cd bf       	out	0x3d, r28	; 61
    219a:	df 91       	pop	r29
    219c:	cf 91       	pop	r28
    219e:	1f 91       	pop	r17
    21a0:	0f 91       	pop	r16
    21a2:	ff 90       	pop	r15
    21a4:	ef 90       	pop	r14
    21a6:	df 90       	pop	r13
    21a8:	cf 90       	pop	r12
    21aa:	bf 90       	pop	r11
    21ac:	af 90       	pop	r10
    21ae:	9f 90       	pop	r9
    21b0:	8f 90       	pop	r8
    21b2:	7f 90       	pop	r7
    21b4:	6f 90       	pop	r6
    21b6:	5f 90       	pop	r5
    21b8:	4f 90       	pop	r4
    21ba:	3f 90       	pop	r3
    21bc:	2f 90       	pop	r2
    21be:	08 95       	ret

000021c0 <_ZN8ATTClass13readByTypeReqEjhPh>:
    21c0:	2f 92       	push	r2
    21c2:	3f 92       	push	r3
    21c4:	4f 92       	push	r4
    21c6:	5f 92       	push	r5
    21c8:	6f 92       	push	r6
    21ca:	7f 92       	push	r7
    21cc:	8f 92       	push	r8
    21ce:	9f 92       	push	r9
    21d0:	af 92       	push	r10
    21d2:	bf 92       	push	r11
    21d4:	cf 92       	push	r12
    21d6:	df 92       	push	r13
    21d8:	ef 92       	push	r14
    21da:	ff 92       	push	r15
    21dc:	0f 93       	push	r16
    21de:	1f 93       	push	r17
    21e0:	cf 93       	push	r28
    21e2:	df 93       	push	r29
    21e4:	cd b7       	in	r28, 0x3d	; 61
    21e6:	de b7       	in	r29, 0x3e	; 62
    21e8:	2e 97       	sbiw	r28, 0x0e	; 14
    21ea:	0f b6       	in	r0, 0x3f	; 63
    21ec:	f8 94       	cli
    21ee:	de bf       	out	0x3e, r29	; 62
    21f0:	0f be       	out	0x3f, r0	; 63
    21f2:	cd bf       	out	0x3d, r28	; 61
    21f4:	9c 83       	std	Y+4, r25	; 0x04
    21f6:	8b 83       	std	Y+3, r24	; 0x03
    21f8:	78 87       	std	Y+8, r23	; 0x08
    21fa:	6f 83       	std	Y+7, r22	; 0x07
    21fc:	39 01       	movw	r6, r18
    21fe:	2d b6       	in	r2, 0x3d	; 61
    2200:	3e b6       	in	r3, 0x3e	; 62
    2202:	46 30       	cpi	r20, 0x06	; 6
    2204:	61 f0       	breq	.+24     	; 0x221e <_ZN8ATTClass13readByTypeReqEjhPh+0x5e>
    2206:	d9 01       	movw	r26, r18
    2208:	2d 91       	ld	r18, X+
    220a:	3c 91       	ld	r19, X
    220c:	04 e0       	ldi	r16, 0x04	; 4
    220e:	48 e0       	ldi	r20, 0x08	; 8
    2210:	a1 da       	rcall	.-2750   	; 0x1754 <_ZN8ATTClass9sendErrorEjhjh>
    2212:	0f b6       	in	r0, 0x3f	; 63
    2214:	f8 94       	cli
    2216:	3e be       	out	0x3e, r3	; 62
    2218:	0f be       	out	0x3f, r0	; 63
    221a:	2d be       	out	0x3d, r2	; 61
    221c:	82 c1       	rjmp	.+772    	; 0x2522 <_ZN8ATTClass13readByTypeReqEjhPh+0x362>
    221e:	eb 81       	ldd	r30, Y+3	; 0x03
    2220:	fc 81       	ldd	r31, Y+4	; 0x04
    2222:	86 81       	ldd	r24, Z+6	; 0x06
    2224:	97 81       	ldd	r25, Z+7	; 0x07
    2226:	2d b7       	in	r18, 0x3d	; 61
    2228:	3e b7       	in	r19, 0x3e	; 62
    222a:	28 1b       	sub	r18, r24
    222c:	39 0b       	sbc	r19, r25
    222e:	0f b6       	in	r0, 0x3f	; 63
    2230:	f8 94       	cli
    2232:	3e bf       	out	0x3e, r19	; 62
    2234:	0f be       	out	0x3f, r0	; 63
    2236:	2d bf       	out	0x3d, r18	; 61
    2238:	8d b7       	in	r24, 0x3d	; 61
    223a:	9e b7       	in	r25, 0x3e	; 62
    223c:	01 96       	adiw	r24, 0x01	; 1
    223e:	9a 87       	std	Y+10, r25	; 0x0a
    2240:	89 87       	std	Y+9, r24	; 0x09
    2242:	4c 01       	movw	r8, r24
    2244:	89 e0       	ldi	r24, 0x09	; 9
    2246:	ad b7       	in	r26, 0x3d	; 61
    2248:	be b7       	in	r27, 0x3e	; 62
    224a:	11 96       	adiw	r26, 0x01	; 1
    224c:	8c 93       	st	X, r24
    224e:	f4 01       	movw	r30, r8
    2250:	11 82       	std	Z+1, r1	; 0x01
    2252:	d3 01       	movw	r26, r6
    2254:	0d 91       	ld	r16, X+
    2256:	1c 91       	ld	r17, X
    2258:	01 50       	subi	r16, 0x01	; 1
    225a:	11 09       	sbc	r17, r1
    225c:	68 94       	set
    225e:	44 24       	eor	r4, r4
    2260:	41 f8       	bld	r4, 1
    2262:	51 2c       	mov	r5, r1
    2264:	f3 01       	movw	r30, r6
    2266:	34 96       	adiw	r30, 0x04	; 4
    2268:	fe 87       	std	Y+14, r31	; 0x0e
    226a:	ed 87       	std	Y+13, r30	; 0x0d
    226c:	3a 82       	std	Y+2, r3	; 0x02
    226e:	29 82       	std	Y+1, r2	; 0x01
    2270:	89 e8       	ldi	r24, 0x89	; 137
    2272:	93 e0       	ldi	r25, 0x03	; 3
    2274:	9c d6       	rcall	.+3384   	; 0x2fae <_ZN9GATTClass14attributeCountEv>
    2276:	08 17       	cp	r16, r24
    2278:	19 07       	cpc	r17, r25
    227a:	08 f0       	brcs	.+2      	; 0x227e <_ZN8ATTClass13readByTypeReqEjhPh+0xbe>
    227c:	14 c1       	rjmp	.+552    	; 0x24a6 <_ZN8ATTClass13readByTypeReqEjhPh+0x2e6>
    227e:	d3 01       	movw	r26, r6
    2280:	12 96       	adiw	r26, 0x02	; 2
    2282:	8d 91       	ld	r24, X+
    2284:	9c 91       	ld	r25, X
    2286:	13 97       	sbiw	r26, 0x03	; 3
    2288:	01 97       	sbiw	r24, 0x01	; 1
    228a:	80 17       	cp	r24, r16
    228c:	91 07       	cpc	r25, r17
    228e:	08 f0       	brcs	.+2      	; 0x2292 <_ZN8ATTClass13readByTypeReqEjhPh+0xd2>
    2290:	30 c1       	rjmp	.+608    	; 0x24f2 <_ZN8ATTClass13readByTypeReqEjhPh+0x332>
    2292:	a9 80       	ldd	r10, Y+1	; 0x01
    2294:	ba 80       	ldd	r11, Y+2	; 0x02
    2296:	0f c1       	rjmp	.+542    	; 0x24b6 <_ZN8ATTClass13readByTypeReqEjhPh+0x2f6>
    2298:	d7 01       	movw	r26, r14
    229a:	ed 91       	ld	r30, X+
    229c:	fc 91       	ld	r31, X
    229e:	04 80       	ldd	r0, Z+4	; 0x04
    22a0:	f5 81       	ldd	r31, Z+5	; 0x05
    22a2:	e0 2d       	mov	r30, r0
    22a4:	c7 01       	movw	r24, r14
    22a6:	09 95       	icall
    22a8:	83 30       	cpi	r24, 0x03	; 3
    22aa:	98 42       	sbci	r25, 0x28	; 40
    22ac:	09 f0       	breq	.+2      	; 0x22b0 <_ZN8ATTClass13readByTypeReqEjhPh+0xf0>
    22ae:	5e c0       	rjmp	.+188    	; 0x236c <_ZN8ATTClass13readByTypeReqEjhPh+0x1ac>
    22b0:	c7 01       	movw	r24, r14
    22b2:	0e 94 ca 02 	call	0x594	; 0x594 <_ZN19LocalCharacteristic11valueHandleEv>
    22b6:	c8 16       	cp	r12, r24
    22b8:	d9 06       	cpc	r13, r25
    22ba:	09 f4       	brne	.+2      	; 0x22be <_ZN8ATTClass13readByTypeReqEjhPh+0xfe>
    22bc:	f1 c0       	rjmp	.+482    	; 0x24a0 <_ZN8ATTClass13readByTypeReqEjhPh+0x2e0>
    22be:	c7 01       	movw	r24, r14
    22c0:	0e 94 e5 06 	call	0xdca	; 0xdca <_ZN12BLEAttribute10uuidLengthEv>
    22c4:	b8 2e       	mov	r11, r24
    22c6:	e2 e0       	ldi	r30, 0x02	; 2
    22c8:	8e 17       	cp	r24, r30
    22ca:	21 f0       	breq	.+8      	; 0x22d4 <_ZN8ATTClass13readByTypeReqEjhPh+0x114>
    22cc:	f5 e1       	ldi	r31, 0x15	; 21
    22ce:	fd 83       	std	Y+5, r31	; 0x05
    22d0:	1e 82       	std	Y+6, r1	; 0x06
    22d2:	03 c0       	rjmp	.+6      	; 0x22da <_ZN8ATTClass13readByTypeReqEjhPh+0x11a>
    22d4:	27 e0       	ldi	r18, 0x07	; 7
    22d6:	2d 83       	std	Y+5, r18	; 0x05
    22d8:	1e 82       	std	Y+6, r1	; 0x06
    22da:	d4 01       	movw	r26, r8
    22dc:	11 96       	adiw	r26, 0x01	; 1
    22de:	8c 91       	ld	r24, X
    22e0:	11 97       	sbiw	r26, 0x01	; 1
    22e2:	81 11       	cpse	r24, r1
    22e4:	03 c0       	rjmp	.+6      	; 0x22ec <_ZN8ATTClass13readByTypeReqEjhPh+0x12c>
    22e6:	ed 81       	ldd	r30, Y+5	; 0x05
    22e8:	11 96       	adiw	r26, 0x01	; 1
    22ea:	ec 93       	st	X, r30
    22ec:	d4 01       	movw	r26, r8
    22ee:	11 96       	adiw	r26, 0x01	; 1
    22f0:	8c 91       	ld	r24, X
    22f2:	90 e0       	ldi	r25, 0x00	; 0
    22f4:	ed 81       	ldd	r30, Y+5	; 0x05
    22f6:	fe 81       	ldd	r31, Y+6	; 0x06
    22f8:	e8 17       	cp	r30, r24
    22fa:	f9 07       	cpc	r31, r25
    22fc:	09 f0       	breq	.+2      	; 0x2300 <_ZN8ATTClass13readByTypeReqEjhPh+0x140>
    22fe:	d6 c0       	rjmp	.+428    	; 0x24ac <_ZN8ATTClass13readByTypeReqEjhPh+0x2ec>
    2300:	94 01       	movw	r18, r8
    2302:	24 0d       	add	r18, r4
    2304:	35 1d       	adc	r19, r5
    2306:	3c 87       	std	Y+12, r19	; 0x0c
    2308:	2b 87       	std	Y+11, r18	; 0x0b
    230a:	d9 01       	movw	r26, r18
    230c:	cd 92       	st	X+, r12
    230e:	dc 92       	st	X, r13
    2310:	c7 01       	movw	r24, r14
    2312:	0e 94 45 02 	call	0x48a	; 0x48a <_ZN19LocalCharacteristic10propertiesEv>
    2316:	eb 85       	ldd	r30, Y+11	; 0x0b
    2318:	fc 85       	ldd	r31, Y+12	; 0x0c
    231a:	82 83       	std	Z+2, r24	; 0x02
    231c:	f4 01       	movw	r30, r8
    231e:	e4 0d       	add	r30, r4
    2320:	f5 1d       	adc	r31, r5
    2322:	0e 5f       	subi	r16, 0xFE	; 254
    2324:	1f 4f       	sbci	r17, 0xFF	; 255
    2326:	14 83       	std	Z+4, r17	; 0x04
    2328:	03 83       	std	Z+3, r16	; 0x03
    232a:	f5 e0       	ldi	r31, 0x05	; 5
    232c:	4f 0e       	add	r4, r31
    232e:	51 1c       	adc	r5, r1
    2330:	0b 2d       	mov	r16, r11
    2332:	10 e0       	ldi	r17, 0x00	; 0
    2334:	c7 01       	movw	r24, r14
    2336:	0e 94 e2 06 	call	0xdc4	; 0xdc4 <_ZN12BLEAttribute8uuidDataEv>
    233a:	a8 01       	movw	r20, r16
    233c:	bc 01       	movw	r22, r24
    233e:	c4 01       	movw	r24, r8
    2340:	84 0d       	add	r24, r4
    2342:	95 1d       	adc	r25, r5
    2344:	0e 94 b7 2e 	call	0x5d6e	; 0x5d6e <memcpy>
    2348:	40 0e       	add	r4, r16
    234a:	51 1e       	adc	r5, r17
    234c:	8d 81       	ldd	r24, Y+5	; 0x05
    234e:	9e 81       	ldd	r25, Y+6	; 0x06
    2350:	84 0d       	add	r24, r4
    2352:	95 1d       	adc	r25, r5
    2354:	ab 81       	ldd	r26, Y+3	; 0x03
    2356:	bc 81       	ldd	r27, Y+4	; 0x04
    2358:	16 96       	adiw	r26, 0x06	; 6
    235a:	2d 91       	ld	r18, X+
    235c:	3c 91       	ld	r19, X
    235e:	17 97       	sbiw	r26, 0x07	; 7
    2360:	28 17       	cp	r18, r24
    2362:	39 07       	cpc	r19, r25
    2364:	08 f4       	brcc	.+2      	; 0x2368 <_ZN8ATTClass13readByTypeReqEjhPh+0x1a8>
    2366:	a5 c0       	rjmp	.+330    	; 0x24b2 <_ZN8ATTClass13readByTypeReqEjhPh+0x2f2>
    2368:	86 01       	movw	r16, r12
    236a:	9a c0       	rjmp	.+308    	; 0x24a0 <_ZN8ATTClass13readByTypeReqEjhPh+0x2e0>
    236c:	d7 01       	movw	r26, r14
    236e:	ed 91       	ld	r30, X+
    2370:	fc 91       	ld	r31, X
    2372:	04 80       	ldd	r0, Z+4	; 0x04
    2374:	f5 81       	ldd	r31, Z+5	; 0x05
    2376:	e0 2d       	mov	r30, r0
    2378:	c7 01       	movw	r24, r14
    237a:	09 95       	icall
    237c:	82 30       	cpi	r24, 0x02	; 2
    237e:	99 42       	sbci	r25, 0x29	; 41
    2380:	09 f0       	breq	.+2      	; 0x2384 <_ZN8ATTClass13readByTypeReqEjhPh+0x1c4>
    2382:	8e c0       	rjmp	.+284    	; 0x24a0 <_ZN8ATTClass13readByTypeReqEjhPh+0x2e0>
    2384:	a9 80       	ldd	r10, Y+1	; 0x01
    2386:	ba 80       	ldd	r11, Y+2	; 0x02
    2388:	e9 85       	ldd	r30, Y+9	; 0x09
    238a:	fa 85       	ldd	r31, Y+10	; 0x0a
    238c:	e4 0d       	add	r30, r4
    238e:	f5 1d       	adc	r31, r5
    2390:	d1 82       	std	Z+1, r13	; 0x01
    2392:	c0 82       	st	Z, r12
    2394:	82 01       	movw	r16, r4
    2396:	0e 5f       	subi	r16, 0xFE	; 254
    2398:	1f 4f       	sbci	r17, 0xFF	; 255
    239a:	eb 81       	ldd	r30, Y+3	; 0x03
    239c:	fc 81       	ldd	r31, Y+4	; 0x04
    239e:	c6 80       	ldd	r12, Z+6	; 0x06
    23a0:	d7 80       	ldd	r13, Z+7	; 0x07
    23a2:	c0 1a       	sub	r12, r16
    23a4:	d1 0a       	sbc	r13, r17
    23a6:	c7 01       	movw	r24, r14
    23a8:	0e 94 3b 05 	call	0xa76	; 0xa76 <_ZN15LocalDescriptor9valueSizeEv>
    23ac:	c8 16       	cp	r12, r24
    23ae:	d9 06       	cpc	r13, r25
    23b0:	48 f4       	brcc	.+18     	; 0x23c4 <_ZN8ATTClass13readByTypeReqEjhPh+0x204>
    23b2:	ab 81       	ldd	r26, Y+3	; 0x03
    23b4:	bc 81       	ldd	r27, Y+4	; 0x04
    23b6:	16 96       	adiw	r26, 0x06	; 6
    23b8:	cd 90       	ld	r12, X+
    23ba:	dc 90       	ld	r13, X
    23bc:	17 97       	sbiw	r26, 0x07	; 7
    23be:	c0 1a       	sub	r12, r16
    23c0:	d1 0a       	sbc	r13, r17
    23c2:	04 c0       	rjmp	.+8      	; 0x23cc <_ZN8ATTClass13readByTypeReqEjhPh+0x20c>
    23c4:	c7 01       	movw	r24, r14
    23c6:	0e 94 3b 05 	call	0xa76	; 0xa76 <_ZN15LocalDescriptor9valueSizeEv>
    23ca:	6c 01       	movw	r12, r24
    23cc:	c7 01       	movw	r24, r14
    23ce:	0e 94 3f 05 	call	0xa7e	; 0xa7e <_ZN15LocalDescriptor5valueEv>
    23d2:	a6 01       	movw	r20, r12
    23d4:	bc 01       	movw	r22, r24
    23d6:	89 85       	ldd	r24, Y+9	; 0x09
    23d8:	9a 85       	ldd	r25, Y+10	; 0x0a
    23da:	80 0f       	add	r24, r16
    23dc:	91 1f       	adc	r25, r17
    23de:	0e 94 b7 2e 	call	0x5d6e	; 0x5d6e <memcpy>
    23e2:	28 01       	movw	r4, r16
    23e4:	4c 0c       	add	r4, r12
    23e6:	5d 1c       	adc	r5, r13
    23e8:	c3 94       	inc	r12
    23ea:	c3 94       	inc	r12
    23ec:	e9 85       	ldd	r30, Y+9	; 0x09
    23ee:	fa 85       	ldd	r31, Y+10	; 0x0a
    23f0:	c1 82       	std	Z+1, r12	; 0x01
    23f2:	61 c0       	rjmp	.+194    	; 0x24b6 <_ZN8ATTClass13readByTypeReqEjhPh+0x2f6>
    23f4:	d7 01       	movw	r26, r14
    23f6:	ed 91       	ld	r30, X+
    23f8:	fc 91       	ld	r31, X
    23fa:	04 80       	ldd	r0, Z+4	; 0x04
    23fc:	f5 81       	ldd	r31, Z+5	; 0x05
    23fe:	e0 2d       	mov	r30, r0
    2400:	c7 01       	movw	r24, r14
    2402:	09 95       	icall
    2404:	83 30       	cpi	r24, 0x03	; 3
    2406:	98 42       	sbci	r25, 0x28	; 40
    2408:	09 f0       	breq	.+2      	; 0x240c <_ZN8ATTClass13readByTypeReqEjhPh+0x24c>
    240a:	4a c0       	rjmp	.+148    	; 0x24a0 <_ZN8ATTClass13readByTypeReqEjhPh+0x2e0>
    240c:	c7 01       	movw	r24, r14
    240e:	0e 94 e5 06 	call	0xdca	; 0xdca <_ZN12BLEAttribute10uuidLengthEv>
    2412:	82 30       	cpi	r24, 0x02	; 2
    2414:	09 f0       	breq	.+2      	; 0x2418 <_ZN8ATTClass13readByTypeReqEjhPh+0x258>
    2416:	44 c0       	rjmp	.+136    	; 0x24a0 <_ZN8ATTClass13readByTypeReqEjhPh+0x2e0>
    2418:	c7 01       	movw	r24, r14
    241a:	0e 94 e2 06 	call	0xdc4	; 0xdc4 <_ZN12BLEAttribute8uuidDataEv>
    241e:	42 e0       	ldi	r20, 0x02	; 2
    2420:	50 e0       	ldi	r21, 0x00	; 0
    2422:	bc 01       	movw	r22, r24
    2424:	8d 85       	ldd	r24, Y+13	; 0x0d
    2426:	9e 85       	ldd	r25, Y+14	; 0x0e
    2428:	0e 94 aa 2e 	call	0x5d54	; 0x5d54 <memcmp>
    242c:	89 2b       	or	r24, r25
    242e:	c1 f5       	brne	.+112    	; 0x24a0 <_ZN8ATTClass13readByTypeReqEjhPh+0x2e0>
    2430:	a9 80       	ldd	r10, Y+1	; 0x01
    2432:	ba 80       	ldd	r11, Y+2	; 0x02
    2434:	e9 85       	ldd	r30, Y+9	; 0x09
    2436:	fa 85       	ldd	r31, Y+10	; 0x0a
    2438:	e4 0d       	add	r30, r4
    243a:	f5 1d       	adc	r31, r5
    243c:	d1 82       	std	Z+1, r13	; 0x01
    243e:	c0 82       	st	Z, r12
    2440:	82 01       	movw	r16, r4
    2442:	0e 5f       	subi	r16, 0xFE	; 254
    2444:	1f 4f       	sbci	r17, 0xFF	; 255
    2446:	eb 81       	ldd	r30, Y+3	; 0x03
    2448:	fc 81       	ldd	r31, Y+4	; 0x04
    244a:	c6 80       	ldd	r12, Z+6	; 0x06
    244c:	d7 80       	ldd	r13, Z+7	; 0x07
    244e:	c0 1a       	sub	r12, r16
    2450:	d1 0a       	sbc	r13, r17
    2452:	c7 01       	movw	r24, r14
    2454:	0e 94 50 02 	call	0x4a0	; 0x4a0 <_ZN19LocalCharacteristic11valueLengthEv>
    2458:	c8 16       	cp	r12, r24
    245a:	d9 06       	cpc	r13, r25
    245c:	48 f4       	brcc	.+18     	; 0x2470 <_ZN8ATTClass13readByTypeReqEjhPh+0x2b0>
    245e:	ab 81       	ldd	r26, Y+3	; 0x03
    2460:	bc 81       	ldd	r27, Y+4	; 0x04
    2462:	16 96       	adiw	r26, 0x06	; 6
    2464:	cd 90       	ld	r12, X+
    2466:	dc 90       	ld	r13, X
    2468:	17 97       	sbiw	r26, 0x07	; 7
    246a:	c0 1a       	sub	r12, r16
    246c:	d1 0a       	sbc	r13, r17
    246e:	04 c0       	rjmp	.+8      	; 0x2478 <_ZN8ATTClass13readByTypeReqEjhPh+0x2b8>
    2470:	c7 01       	movw	r24, r14
    2472:	0e 94 50 02 	call	0x4a0	; 0x4a0 <_ZN19LocalCharacteristic11valueLengthEv>
    2476:	6c 01       	movw	r12, r24
    2478:	c7 01       	movw	r24, r14
    247a:	0e 94 4c 02 	call	0x498	; 0x498 <_ZN19LocalCharacteristic5valueEv>
    247e:	a6 01       	movw	r20, r12
    2480:	bc 01       	movw	r22, r24
    2482:	89 85       	ldd	r24, Y+9	; 0x09
    2484:	9a 85       	ldd	r25, Y+10	; 0x0a
    2486:	80 0f       	add	r24, r16
    2488:	91 1f       	adc	r25, r17
    248a:	0e 94 b7 2e 	call	0x5d6e	; 0x5d6e <memcpy>
    248e:	28 01       	movw	r4, r16
    2490:	4c 0c       	add	r4, r12
    2492:	5d 1c       	adc	r5, r13
    2494:	c3 94       	inc	r12
    2496:	c3 94       	inc	r12
    2498:	e9 85       	ldd	r30, Y+9	; 0x09
    249a:	fa 85       	ldd	r31, Y+10	; 0x0a
    249c:	c1 82       	std	Z+1, r12	; 0x01
    249e:	0b c0       	rjmp	.+22     	; 0x24b6 <_ZN8ATTClass13readByTypeReqEjhPh+0x2f6>
    24a0:	0f 5f       	subi	r16, 0xFF	; 255
    24a2:	1f 4f       	sbci	r17, 0xFF	; 255
    24a4:	e5 ce       	rjmp	.-566    	; 0x2270 <_ZN8ATTClass13readByTypeReqEjhPh+0xb0>
    24a6:	a9 80       	ldd	r10, Y+1	; 0x01
    24a8:	ba 80       	ldd	r11, Y+2	; 0x02
    24aa:	05 c0       	rjmp	.+10     	; 0x24b6 <_ZN8ATTClass13readByTypeReqEjhPh+0x2f6>
    24ac:	a9 80       	ldd	r10, Y+1	; 0x01
    24ae:	ba 80       	ldd	r11, Y+2	; 0x02
    24b0:	02 c0       	rjmp	.+4      	; 0x24b6 <_ZN8ATTClass13readByTypeReqEjhPh+0x2f6>
    24b2:	a9 80       	ldd	r10, Y+1	; 0x01
    24b4:	ba 80       	ldd	r11, Y+2	; 0x02
    24b6:	f2 e0       	ldi	r31, 0x02	; 2
    24b8:	4f 16       	cp	r4, r31
    24ba:	51 04       	cpc	r5, r1
    24bc:	59 f4       	brne	.+22     	; 0x24d4 <_ZN8ATTClass13readByTypeReqEjhPh+0x314>
    24be:	d3 01       	movw	r26, r6
    24c0:	2d 91       	ld	r18, X+
    24c2:	3c 91       	ld	r19, X
    24c4:	0a e0       	ldi	r16, 0x0A	; 10
    24c6:	48 e0       	ldi	r20, 0x08	; 8
    24c8:	6f 81       	ldd	r22, Y+7	; 0x07
    24ca:	78 85       	ldd	r23, Y+8	; 0x08
    24cc:	8b 81       	ldd	r24, Y+3	; 0x03
    24ce:	9c 81       	ldd	r25, Y+4	; 0x04
    24d0:	41 d9       	rcall	.-3454   	; 0x1754 <_ZN8ATTClass9sendErrorEjhjh>
    24d2:	09 c0       	rjmp	.+18     	; 0x24e6 <_ZN8ATTClass13readByTypeReqEjhPh+0x326>
    24d4:	09 85       	ldd	r16, Y+9	; 0x09
    24d6:	1a 85       	ldd	r17, Y+10	; 0x0a
    24d8:	24 2d       	mov	r18, r4
    24da:	44 e0       	ldi	r20, 0x04	; 4
    24dc:	6f 81       	ldd	r22, Y+7	; 0x07
    24de:	78 85       	ldd	r23, Y+8	; 0x08
    24e0:	89 e6       	ldi	r24, 0x69	; 105
    24e2:	94 e0       	ldi	r25, 0x04	; 4
    24e4:	96 d7       	rcall	.+3884   	; 0x3412 <_ZN8HCIClass13sendAclPacketEjhhPv>
    24e6:	0f b6       	in	r0, 0x3f	; 63
    24e8:	f8 94       	cli
    24ea:	be be       	out	0x3e, r11	; 62
    24ec:	0f be       	out	0x3f, r0	; 63
    24ee:	ad be       	out	0x3d, r10	; 61
    24f0:	18 c0       	rjmp	.+48     	; 0x2522 <_ZN8ATTClass13readByTypeReqEjhPh+0x362>
    24f2:	b8 01       	movw	r22, r16
    24f4:	89 e8       	ldi	r24, 0x89	; 137
    24f6:	93 e0       	ldi	r25, 0x03	; 3
    24f8:	60 d5       	rcall	.+2752   	; 0x2fba <_ZN9GATTClass9attributeEj>
    24fa:	7c 01       	movw	r14, r24
    24fc:	68 01       	movw	r12, r16
    24fe:	bf ef       	ldi	r27, 0xFF	; 255
    2500:	cb 1a       	sub	r12, r27
    2502:	db 0a       	sbc	r13, r27
    2504:	dc 01       	movw	r26, r24
    2506:	ed 91       	ld	r30, X+
    2508:	fc 91       	ld	r31, X
    250a:	04 80       	ldd	r0, Z+4	; 0x04
    250c:	f5 81       	ldd	r31, Z+5	; 0x05
    250e:	e0 2d       	mov	r30, r0
    2510:	09 95       	icall
    2512:	f3 01       	movw	r30, r6
    2514:	24 81       	ldd	r18, Z+4	; 0x04
    2516:	35 81       	ldd	r19, Z+5	; 0x05
    2518:	82 17       	cp	r24, r18
    251a:	93 07       	cpc	r25, r19
    251c:	09 f0       	breq	.+2      	; 0x2520 <_ZN8ATTClass13readByTypeReqEjhPh+0x360>
    251e:	6a cf       	rjmp	.-300    	; 0x23f4 <_ZN8ATTClass13readByTypeReqEjhPh+0x234>
    2520:	bb ce       	rjmp	.-650    	; 0x2298 <_ZN8ATTClass13readByTypeReqEjhPh+0xd8>
    2522:	0f b6       	in	r0, 0x3f	; 63
    2524:	f8 94       	cli
    2526:	3e be       	out	0x3e, r3	; 62
    2528:	0f be       	out	0x3f, r0	; 63
    252a:	2d be       	out	0x3d, r2	; 61
    252c:	2e 96       	adiw	r28, 0x0e	; 14
    252e:	0f b6       	in	r0, 0x3f	; 63
    2530:	f8 94       	cli
    2532:	de bf       	out	0x3e, r29	; 62
    2534:	0f be       	out	0x3f, r0	; 63
    2536:	cd bf       	out	0x3d, r28	; 61
    2538:	df 91       	pop	r29
    253a:	cf 91       	pop	r28
    253c:	1f 91       	pop	r17
    253e:	0f 91       	pop	r16
    2540:	ff 90       	pop	r15
    2542:	ef 90       	pop	r14
    2544:	df 90       	pop	r13
    2546:	cf 90       	pop	r12
    2548:	bf 90       	pop	r11
    254a:	af 90       	pop	r10
    254c:	9f 90       	pop	r9
    254e:	8f 90       	pop	r8
    2550:	7f 90       	pop	r7
    2552:	6f 90       	pop	r6
    2554:	5f 90       	pop	r5
    2556:	4f 90       	pop	r4
    2558:	3f 90       	pop	r3
    255a:	2f 90       	pop	r2
    255c:	08 95       	ret

0000255e <_ZN8ATTClass13writeReqOrCmdEjhhPh>:
    255e:	4f 92       	push	r4
    2560:	5f 92       	push	r5
    2562:	6f 92       	push	r6
    2564:	7f 92       	push	r7
    2566:	8f 92       	push	r8
    2568:	9f 92       	push	r9
    256a:	af 92       	push	r10
    256c:	bf 92       	push	r11
    256e:	cf 92       	push	r12
    2570:	df 92       	push	r13
    2572:	ef 92       	push	r14
    2574:	ff 92       	push	r15
    2576:	0f 93       	push	r16
    2578:	1f 93       	push	r17
    257a:	cf 93       	push	r28
    257c:	df 93       	push	r29
    257e:	cd b7       	in	r28, 0x3d	; 61
    2580:	de b7       	in	r29, 0x3e	; 62
    2582:	e8 97       	sbiw	r28, 0x38	; 56
    2584:	0f b6       	in	r0, 0x3f	; 63
    2586:	f8 94       	cli
    2588:	de bf       	out	0x3e, r29	; 62
    258a:	0f be       	out	0x3f, r0	; 63
    258c:	cd bf       	out	0x3d, r28	; 61
    258e:	4c 01       	movw	r8, r24
    2590:	5b 01       	movw	r10, r22
    2592:	44 2e       	mov	r4, r20
    2594:	52 2e       	mov	r5, r18
    2596:	ed b6       	in	r14, 0x3d	; 61
    2598:	fe b6       	in	r15, 0x3e	; 62
    259a:	21 e0       	ldi	r18, 0x01	; 1
    259c:	25 15       	cp	r18, r5
    259e:	48 f0       	brcs	.+18     	; 0x25b2 <_ZN8ATTClass13writeReqOrCmdEjhhPh+0x54>
    25a0:	32 e1       	ldi	r19, 0x12	; 18
    25a2:	43 13       	cpse	r20, r19
    25a4:	0c c1       	rjmp	.+536    	; 0x27be <_ZN8ATTClass13writeReqOrCmdEjhhPh+0x260>
    25a6:	04 e0       	ldi	r16, 0x04	; 4
    25a8:	20 e0       	ldi	r18, 0x00	; 0
    25aa:	30 e0       	ldi	r19, 0x00	; 0
    25ac:	42 e1       	ldi	r20, 0x12	; 18
    25ae:	d2 d8       	rcall	.-3676   	; 0x1754 <_ZN8ATTClass9sendErrorEjhjh>
    25b0:	06 c1       	rjmp	.+524    	; 0x27be <_ZN8ATTClass13writeReqOrCmdEjhhPh+0x260>
    25b2:	d8 01       	movw	r26, r16
    25b4:	6d 90       	ld	r6, X+
    25b6:	7c 90       	ld	r7, X
    25b8:	63 01       	movw	r12, r6
    25ba:	b1 e0       	ldi	r27, 0x01	; 1
    25bc:	cb 1a       	sub	r12, r27
    25be:	d1 08       	sbc	r13, r1
    25c0:	89 e8       	ldi	r24, 0x89	; 137
    25c2:	93 e0       	ldi	r25, 0x03	; 3
    25c4:	f4 d4       	rcall	.+2536   	; 0x2fae <_ZN9GATTClass14attributeCountEv>
    25c6:	8c 15       	cp	r24, r12
    25c8:	9d 05       	cpc	r25, r13
    25ca:	50 f4       	brcc	.+20     	; 0x25e0 <_ZN8ATTClass13writeReqOrCmdEjhhPh+0x82>
    25cc:	e2 e1       	ldi	r30, 0x12	; 18
    25ce:	4e 12       	cpse	r4, r30
    25d0:	f6 c0       	rjmp	.+492    	; 0x27be <_ZN8ATTClass13writeReqOrCmdEjhhPh+0x260>
    25d2:	0a e0       	ldi	r16, 0x0A	; 10
    25d4:	93 01       	movw	r18, r6
    25d6:	42 e1       	ldi	r20, 0x12	; 18
    25d8:	b5 01       	movw	r22, r10
    25da:	c4 01       	movw	r24, r8
    25dc:	bb d8       	rcall	.-3722   	; 0x1754 <_ZN8ATTClass9sendErrorEjhjh>
    25de:	ef c0       	rjmp	.+478    	; 0x27be <_ZN8ATTClass13writeReqOrCmdEjhhPh+0x260>
    25e0:	b6 01       	movw	r22, r12
    25e2:	89 e8       	ldi	r24, 0x89	; 137
    25e4:	93 e0       	ldi	r25, 0x03	; 3
    25e6:	e9 d4       	rcall	.+2514   	; 0x2fba <_ZN9GATTClass9attributeEj>
    25e8:	6c 01       	movw	r12, r24
    25ea:	dc 01       	movw	r26, r24
    25ec:	ed 91       	ld	r30, X+
    25ee:	fc 91       	ld	r31, X
    25f0:	04 80       	ldd	r0, Z+4	; 0x04
    25f2:	f5 81       	ldd	r31, Z+5	; 0x05
    25f4:	e0 2d       	mov	r30, r0
    25f6:	09 95       	icall
    25f8:	83 30       	cpi	r24, 0x03	; 3
    25fa:	98 42       	sbci	r25, 0x28	; 40
    25fc:	09 f0       	breq	.+2      	; 0x2600 <_ZN8ATTClass13writeReqOrCmdEjhhPh+0xa2>
    25fe:	43 c0       	rjmp	.+134    	; 0x2686 <_ZN8ATTClass13writeReqOrCmdEjhhPh+0x128>
    2600:	c6 01       	movw	r24, r12
    2602:	0e 94 ca 02 	call	0x594	; 0x594 <_ZN19LocalCharacteristic11valueHandleEv>
    2606:	68 16       	cp	r6, r24
    2608:	79 06       	cpc	r7, r25
    260a:	21 f4       	brne	.+8      	; 0x2614 <_ZN8ATTClass13writeReqOrCmdEjhhPh+0xb6>
    260c:	e2 e1       	ldi	r30, 0x12	; 18
    260e:	4e 12       	cpse	r4, r30
    2610:	07 c0       	rjmp	.+14     	; 0x2620 <_ZN8ATTClass13writeReqOrCmdEjhhPh+0xc2>
    2612:	c6 c0       	rjmp	.+396    	; 0x27a0 <_ZN8ATTClass13writeReqOrCmdEjhhPh+0x242>
    2614:	c6 01       	movw	r24, r12
    2616:	0e 94 45 02 	call	0x48a	; 0x48a <_ZN19LocalCharacteristic10propertiesEv>
    261a:	83 ff       	sbrs	r24, 3
    261c:	07 c0       	rjmp	.+14     	; 0x262c <_ZN8ATTClass13writeReqOrCmdEjhhPh+0xce>
    261e:	10 c0       	rjmp	.+32     	; 0x2640 <_ZN8ATTClass13writeReqOrCmdEjhhPh+0xe2>
    2620:	c6 01       	movw	r24, r12
    2622:	0e 94 45 02 	call	0x48a	; 0x48a <_ZN19LocalCharacteristic10propertiesEv>
    2626:	82 fd       	sbrc	r24, 2
    2628:	c1 c0       	rjmp	.+386    	; 0x27ac <_ZN8ATTClass13writeReqOrCmdEjhhPh+0x24e>
    262a:	c9 c0       	rjmp	.+402    	; 0x27be <_ZN8ATTClass13writeReqOrCmdEjhhPh+0x260>
    262c:	f2 e1       	ldi	r31, 0x12	; 18
    262e:	4f 12       	cpse	r4, r31
    2630:	c6 c0       	rjmp	.+396    	; 0x27be <_ZN8ATTClass13writeReqOrCmdEjhhPh+0x260>
    2632:	03 e0       	ldi	r16, 0x03	; 3
    2634:	93 01       	movw	r18, r6
    2636:	42 e1       	ldi	r20, 0x12	; 18
    2638:	b5 01       	movw	r22, r10
    263a:	c4 01       	movw	r24, r8
    263c:	8b d8       	rcall	.-3818   	; 0x1754 <_ZN8ATTClass9sendErrorEjhjh>
    263e:	bf c0       	rjmp	.+382    	; 0x27be <_ZN8ATTClass13writeReqOrCmdEjhhPh+0x260>
    2640:	d4 01       	movw	r26, r8
    2642:	14 96       	adiw	r26, 0x04	; 4
    2644:	8d 91       	ld	r24, X+
    2646:	9c 91       	ld	r25, X
    2648:	15 97       	sbiw	r26, 0x05	; 5
    264a:	a8 16       	cp	r10, r24
    264c:	b9 06       	cpc	r11, r25
    264e:	09 f0       	breq	.+2      	; 0x2652 <_ZN8ATTClass13writeReqOrCmdEjhhPh+0xf4>
    2650:	82 c0       	rjmp	.+260    	; 0x2756 <_ZN8ATTClass13writeReqOrCmdEjhhPh+0x1f8>
    2652:	a4 01       	movw	r20, r8
    2654:	42 5f       	subi	r20, 0xF2	; 242
    2656:	5f 4f       	sbci	r21, 0xFF	; 255
    2658:	b5 01       	movw	r22, r10
    265a:	ce 01       	movw	r24, r28
    265c:	4d 96       	adiw	r24, 0x1d	; 29
    265e:	0e 94 42 08 	call	0x1084	; 0x1084 <_ZN9BLEDeviceC1EjPh>
    2662:	5a 94       	dec	r5
    2664:	5a 94       	dec	r5
    2666:	25 2d       	mov	r18, r5
    2668:	30 e0       	ldi	r19, 0x00	; 0
    266a:	a8 01       	movw	r20, r16
    266c:	4e 5f       	subi	r20, 0xFE	; 254
    266e:	5f 4f       	sbci	r21, 0xFF	; 255
    2670:	be 01       	movw	r22, r28
    2672:	63 5e       	subi	r22, 0xE3	; 227
    2674:	7f 4f       	sbci	r23, 0xFF	; 255
    2676:	c6 01       	movw	r24, r12
    2678:	0e 94 47 04 	call	0x88e	; 0x88e <_ZN19LocalCharacteristic10writeValueE9BLEDevicePKhi>
    267c:	ce 01       	movw	r24, r28
    267e:	4d 96       	adiw	r24, 0x1d	; 29
    2680:	0e 94 5c 07 	call	0xeb8	; 0xeb8 <_ZN9BLEDeviceD1Ev>
    2684:	68 c0       	rjmp	.+208    	; 0x2756 <_ZN8ATTClass13writeReqOrCmdEjhhPh+0x1f8>
    2686:	d6 01       	movw	r26, r12
    2688:	ed 91       	ld	r30, X+
    268a:	fc 91       	ld	r31, X
    268c:	04 80       	ldd	r0, Z+4	; 0x04
    268e:	f5 81       	ldd	r31, Z+5	; 0x05
    2690:	e0 2d       	mov	r30, r0
    2692:	c6 01       	movw	r24, r12
    2694:	09 95       	icall
    2696:	81 15       	cp	r24, r1
    2698:	99 42       	sbci	r25, 0x29	; 41
    269a:	09 f0       	breq	.+2      	; 0x269e <_ZN8ATTClass13writeReqOrCmdEjhhPh+0x140>
    269c:	52 c0       	rjmp	.+164    	; 0x2742 <_ZN8ATTClass13writeReqOrCmdEjhhPh+0x1e4>
    269e:	c6 01       	movw	r24, r12
    26a0:	0e 94 e5 06 	call	0xdca	; 0xdca <_ZN12BLEAttribute10uuidLengthEv>
    26a4:	82 30       	cpi	r24, 0x02	; 2
    26a6:	49 f4       	brne	.+18     	; 0x26ba <_ZN8ATTClass13writeReqOrCmdEjhhPh+0x15c>
    26a8:	c6 01       	movw	r24, r12
    26aa:	0e 94 e2 06 	call	0xdc4	; 0xdc4 <_ZN12BLEAttribute8uuidDataEv>
    26ae:	fc 01       	movw	r30, r24
    26b0:	80 81       	ld	r24, Z
    26b2:	91 81       	ldd	r25, Z+1	; 0x01
    26b4:	82 30       	cpi	r24, 0x02	; 2
    26b6:	99 42       	sbci	r25, 0x29	; 41
    26b8:	51 f0       	breq	.+20     	; 0x26ce <_ZN8ATTClass13writeReqOrCmdEjhhPh+0x170>
    26ba:	22 e1       	ldi	r18, 0x12	; 18
    26bc:	42 12       	cpse	r4, r18
    26be:	7f c0       	rjmp	.+254    	; 0x27be <_ZN8ATTClass13writeReqOrCmdEjhhPh+0x260>
    26c0:	03 e0       	ldi	r16, 0x03	; 3
    26c2:	93 01       	movw	r18, r6
    26c4:	42 e1       	ldi	r20, 0x12	; 18
    26c6:	b5 01       	movw	r22, r10
    26c8:	c4 01       	movw	r24, r8
    26ca:	44 d8       	rcall	.-3960   	; 0x1754 <_ZN8ATTClass9sendErrorEjhjh>
    26cc:	78 c0       	rjmp	.+240    	; 0x27be <_ZN8ATTClass13writeReqOrCmdEjhhPh+0x260>
    26ce:	b3 01       	movw	r22, r6
    26d0:	62 50       	subi	r22, 0x02	; 2
    26d2:	71 09       	sbc	r23, r1
    26d4:	89 e8       	ldi	r24, 0x89	; 137
    26d6:	93 e0       	ldi	r25, 0x03	; 3
    26d8:	70 d4       	rcall	.+2272   	; 0x2fba <_ZN9GATTClass9attributeEj>
    26da:	6c 01       	movw	r12, r24
    26dc:	dc 01       	movw	r26, r24
    26de:	ed 91       	ld	r30, X+
    26e0:	fc 91       	ld	r31, X
    26e2:	04 80       	ldd	r0, Z+4	; 0x04
    26e4:	f5 81       	ldd	r31, Z+5	; 0x05
    26e6:	e0 2d       	mov	r30, r0
    26e8:	09 95       	icall
    26ea:	83 30       	cpi	r24, 0x03	; 3
    26ec:	98 42       	sbci	r25, 0x28	; 40
    26ee:	51 f0       	breq	.+20     	; 0x2704 <_ZN8ATTClass13writeReqOrCmdEjhhPh+0x1a6>
    26f0:	e2 e1       	ldi	r30, 0x12	; 18
    26f2:	4e 12       	cpse	r4, r30
    26f4:	64 c0       	rjmp	.+200    	; 0x27be <_ZN8ATTClass13writeReqOrCmdEjhhPh+0x260>
    26f6:	03 e0       	ldi	r16, 0x03	; 3
    26f8:	93 01       	movw	r18, r6
    26fa:	42 e1       	ldi	r20, 0x12	; 18
    26fc:	b5 01       	movw	r22, r10
    26fe:	c4 01       	movw	r24, r8
    2700:	29 d8       	rcall	.-4014   	; 0x1754 <_ZN8ATTClass9sendErrorEjhjh>
    2702:	5d c0       	rjmp	.+186    	; 0x27be <_ZN8ATTClass13writeReqOrCmdEjhhPh+0x260>
    2704:	d4 01       	movw	r26, r8
    2706:	14 96       	adiw	r26, 0x04	; 4
    2708:	8d 91       	ld	r24, X+
    270a:	9c 91       	ld	r25, X
    270c:	15 97       	sbiw	r26, 0x05	; 5
    270e:	a8 16       	cp	r10, r24
    2710:	b9 06       	cpc	r11, r25
    2712:	09 f5       	brne	.+66     	; 0x2756 <_ZN8ATTClass13writeReqOrCmdEjhhPh+0x1f8>
    2714:	f8 01       	movw	r30, r16
    2716:	02 81       	ldd	r16, Z+2	; 0x02
    2718:	13 81       	ldd	r17, Z+3	; 0x03
    271a:	a4 01       	movw	r20, r8
    271c:	42 5f       	subi	r20, 0xF2	; 242
    271e:	5f 4f       	sbci	r21, 0xFF	; 255
    2720:	b5 01       	movw	r22, r10
    2722:	ce 01       	movw	r24, r28
    2724:	01 96       	adiw	r24, 0x01	; 1
    2726:	0e 94 42 08 	call	0x1084	; 0x1084 <_ZN9BLEDeviceC1EjPh>
    272a:	a8 01       	movw	r20, r16
    272c:	be 01       	movw	r22, r28
    272e:	6f 5f       	subi	r22, 0xFF	; 255
    2730:	7f 4f       	sbci	r23, 0xFF	; 255
    2732:	c6 01       	movw	r24, r12
    2734:	0e 94 a0 04 	call	0x940	; 0x940 <_ZN19LocalCharacteristic14writeCccdValueE9BLEDevicej>
    2738:	ce 01       	movw	r24, r28
    273a:	01 96       	adiw	r24, 0x01	; 1
    273c:	0e 94 5c 07 	call	0xeb8	; 0xeb8 <_ZN9BLEDeviceD1Ev>
    2740:	0a c0       	rjmp	.+20     	; 0x2756 <_ZN8ATTClass13writeReqOrCmdEjhhPh+0x1f8>
    2742:	f2 e1       	ldi	r31, 0x12	; 18
    2744:	4f 12       	cpse	r4, r31
    2746:	3b c0       	rjmp	.+118    	; 0x27be <_ZN8ATTClass13writeReqOrCmdEjhhPh+0x260>
    2748:	03 e0       	ldi	r16, 0x03	; 3
    274a:	93 01       	movw	r18, r6
    274c:	42 e1       	ldi	r20, 0x12	; 18
    274e:	b5 01       	movw	r22, r10
    2750:	c4 01       	movw	r24, r8
    2752:	00 d8       	rcall	.-4096   	; 0x1754 <_ZN8ATTClass9sendErrorEjhjh>
    2754:	34 c0       	rjmp	.+104    	; 0x27be <_ZN8ATTClass13writeReqOrCmdEjhhPh+0x260>
    2756:	22 e1       	ldi	r18, 0x12	; 18
    2758:	42 12       	cpse	r4, r18
    275a:	31 c0       	rjmp	.+98     	; 0x27be <_ZN8ATTClass13writeReqOrCmdEjhhPh+0x260>
    275c:	cd b6       	in	r12, 0x3d	; 61
    275e:	de b6       	in	r13, 0x3e	; 62
    2760:	d4 01       	movw	r26, r8
    2762:	16 96       	adiw	r26, 0x06	; 6
    2764:	8d 91       	ld	r24, X+
    2766:	9c 91       	ld	r25, X
    2768:	17 97       	sbiw	r26, 0x07	; 7
    276a:	ed b7       	in	r30, 0x3d	; 61
    276c:	fe b7       	in	r31, 0x3e	; 62
    276e:	e8 1b       	sub	r30, r24
    2770:	f9 0b       	sbc	r31, r25
    2772:	0f b6       	in	r0, 0x3f	; 63
    2774:	f8 94       	cli
    2776:	fe bf       	out	0x3e, r31	; 62
    2778:	0f be       	out	0x3f, r0	; 63
    277a:	ed bf       	out	0x3d, r30	; 61
    277c:	0d b7       	in	r16, 0x3d	; 61
    277e:	1e b7       	in	r17, 0x3e	; 62
    2780:	0f 5f       	subi	r16, 0xFF	; 255
    2782:	1f 4f       	sbci	r17, 0xFF	; 255
    2784:	83 e1       	ldi	r24, 0x13	; 19
    2786:	81 83       	std	Z+1, r24	; 0x01
    2788:	21 e0       	ldi	r18, 0x01	; 1
    278a:	44 e0       	ldi	r20, 0x04	; 4
    278c:	b5 01       	movw	r22, r10
    278e:	89 e6       	ldi	r24, 0x69	; 105
    2790:	94 e0       	ldi	r25, 0x04	; 4
    2792:	3f d6       	rcall	.+3198   	; 0x3412 <_ZN8HCIClass13sendAclPacketEjhhPv>
    2794:	0f b6       	in	r0, 0x3f	; 63
    2796:	f8 94       	cli
    2798:	de be       	out	0x3e, r13	; 62
    279a:	0f be       	out	0x3f, r0	; 63
    279c:	cd be       	out	0x3d, r12	; 61
    279e:	0f c0       	rjmp	.+30     	; 0x27be <_ZN8ATTClass13writeReqOrCmdEjhhPh+0x260>
    27a0:	c6 01       	movw	r24, r12
    27a2:	0e 94 45 02 	call	0x48a	; 0x48a <_ZN19LocalCharacteristic10propertiesEv>
    27a6:	83 fd       	sbrc	r24, 3
    27a8:	4b cf       	rjmp	.-362    	; 0x2640 <_ZN8ATTClass13writeReqOrCmdEjhhPh+0xe2>
    27aa:	43 cf       	rjmp	.-378    	; 0x2632 <_ZN8ATTClass13writeReqOrCmdEjhhPh+0xd4>
    27ac:	d4 01       	movw	r26, r8
    27ae:	14 96       	adiw	r26, 0x04	; 4
    27b0:	8d 91       	ld	r24, X+
    27b2:	9c 91       	ld	r25, X
    27b4:	15 97       	sbiw	r26, 0x05	; 5
    27b6:	8a 15       	cp	r24, r10
    27b8:	9b 05       	cpc	r25, r11
    27ba:	09 f4       	brne	.+2      	; 0x27be <_ZN8ATTClass13writeReqOrCmdEjhhPh+0x260>
    27bc:	4a cf       	rjmp	.-364    	; 0x2652 <_ZN8ATTClass13writeReqOrCmdEjhhPh+0xf4>
    27be:	0f b6       	in	r0, 0x3f	; 63
    27c0:	f8 94       	cli
    27c2:	fe be       	out	0x3e, r15	; 62
    27c4:	0f be       	out	0x3f, r0	; 63
    27c6:	ed be       	out	0x3d, r14	; 61
    27c8:	e8 96       	adiw	r28, 0x38	; 56
    27ca:	0f b6       	in	r0, 0x3f	; 63
    27cc:	f8 94       	cli
    27ce:	de bf       	out	0x3e, r29	; 62
    27d0:	0f be       	out	0x3f, r0	; 63
    27d2:	cd bf       	out	0x3d, r28	; 61
    27d4:	df 91       	pop	r29
    27d6:	cf 91       	pop	r28
    27d8:	1f 91       	pop	r17
    27da:	0f 91       	pop	r16
    27dc:	ff 90       	pop	r15
    27de:	ef 90       	pop	r14
    27e0:	df 90       	pop	r13
    27e2:	cf 90       	pop	r12
    27e4:	bf 90       	pop	r11
    27e6:	af 90       	pop	r10
    27e8:	9f 90       	pop	r9
    27ea:	8f 90       	pop	r8
    27ec:	7f 90       	pop	r7
    27ee:	6f 90       	pop	r6
    27f0:	5f 90       	pop	r5
    27f2:	4f 90       	pop	r4
    27f4:	08 95       	ret

000027f6 <_ZN8ATTClass12prepWriteReqEjhPh>:
    27f6:	2f 92       	push	r2
    27f8:	3f 92       	push	r3
    27fa:	4f 92       	push	r4
    27fc:	5f 92       	push	r5
    27fe:	6f 92       	push	r6
    2800:	7f 92       	push	r7
    2802:	8f 92       	push	r8
    2804:	9f 92       	push	r9
    2806:	af 92       	push	r10
    2808:	bf 92       	push	r11
    280a:	cf 92       	push	r12
    280c:	df 92       	push	r13
    280e:	ef 92       	push	r14
    2810:	ff 92       	push	r15
    2812:	0f 93       	push	r16
    2814:	1f 93       	push	r17
    2816:	cf 93       	push	r28
    2818:	df 93       	push	r29
    281a:	00 d0       	rcall	.+0      	; 0x281c <_ZN8ATTClass12prepWriteReqEjhPh+0x26>
    281c:	00 d0       	rcall	.+0      	; 0x281e <_ZN8ATTClass12prepWriteReqEjhPh+0x28>
    281e:	1f 92       	push	r1
    2820:	cd b7       	in	r28, 0x3d	; 61
    2822:	de b7       	in	r29, 0x3e	; 62
    2824:	7c 01       	movw	r14, r24
    2826:	4b 01       	movw	r8, r22
    2828:	49 83       	std	Y+1, r20	; 0x01
    282a:	19 01       	movw	r2, r18
    282c:	cd b6       	in	r12, 0x3d	; 61
    282e:	de b6       	in	r13, 0x3e	; 62
    2830:	ad b6       	in	r10, 0x3d	; 61
    2832:	be b6       	in	r11, 0x3e	; 62
    2834:	44 30       	cpi	r20, 0x04	; 4
    2836:	38 f4       	brcc	.+14     	; 0x2846 <_ZN8ATTClass12prepWriteReqEjhPh+0x50>
    2838:	04 e0       	ldi	r16, 0x04	; 4
    283a:	20 e0       	ldi	r18, 0x00	; 0
    283c:	30 e0       	ldi	r19, 0x00	; 0
    283e:	46 e1       	ldi	r20, 0x16	; 22
    2840:	0e 94 aa 0b 	call	0x1754	; 0x1754 <_ZN8ATTClass9sendErrorEjhjh>
    2844:	d9 c0       	rjmp	.+434    	; 0x29f8 <_ZN8ATTClass12prepWriteReqEjhPh+0x202>
    2846:	d9 01       	movw	r26, r18
    2848:	6d 90       	ld	r6, X+
    284a:	7c 90       	ld	r7, X
    284c:	11 97       	sbiw	r26, 0x01	; 1
    284e:	12 96       	adiw	r26, 0x02	; 2
    2850:	4d 90       	ld	r4, X+
    2852:	5c 90       	ld	r5, X
    2854:	13 97       	sbiw	r26, 0x03	; 3
    2856:	83 01       	movw	r16, r6
    2858:	01 50       	subi	r16, 0x01	; 1
    285a:	11 09       	sbc	r17, r1
    285c:	89 e8       	ldi	r24, 0x89	; 137
    285e:	93 e0       	ldi	r25, 0x03	; 3
    2860:	a6 d3       	rcall	.+1868   	; 0x2fae <_ZN9GATTClass14attributeCountEv>
    2862:	80 17       	cp	r24, r16
    2864:	91 07       	cpc	r25, r17
    2866:	40 f4       	brcc	.+16     	; 0x2878 <_ZN8ATTClass12prepWriteReqEjhPh+0x82>
    2868:	0a e0       	ldi	r16, 0x0A	; 10
    286a:	93 01       	movw	r18, r6
    286c:	46 e1       	ldi	r20, 0x16	; 22
    286e:	b4 01       	movw	r22, r8
    2870:	c7 01       	movw	r24, r14
    2872:	0e 94 aa 0b 	call	0x1754	; 0x1754 <_ZN8ATTClass9sendErrorEjhjh>
    2876:	c0 c0       	rjmp	.+384    	; 0x29f8 <_ZN8ATTClass12prepWriteReqEjhPh+0x202>
    2878:	b8 01       	movw	r22, r16
    287a:	89 e8       	ldi	r24, 0x89	; 137
    287c:	93 e0       	ldi	r25, 0x03	; 3
    287e:	9d d3       	rcall	.+1850   	; 0x2fba <_ZN9GATTClass9attributeEj>
    2880:	8c 01       	movw	r16, r24
    2882:	dc 01       	movw	r26, r24
    2884:	ed 91       	ld	r30, X+
    2886:	fc 91       	ld	r31, X
    2888:	04 80       	ldd	r0, Z+4	; 0x04
    288a:	f5 81       	ldd	r31, Z+5	; 0x05
    288c:	e0 2d       	mov	r30, r0
    288e:	09 95       	icall
    2890:	83 30       	cpi	r24, 0x03	; 3
    2892:	98 42       	sbci	r25, 0x28	; 40
    2894:	41 f0       	breq	.+16     	; 0x28a6 <_ZN8ATTClass12prepWriteReqEjhPh+0xb0>
    2896:	0b e0       	ldi	r16, 0x0B	; 11
    2898:	93 01       	movw	r18, r6
    289a:	46 e1       	ldi	r20, 0x16	; 22
    289c:	b4 01       	movw	r22, r8
    289e:	c7 01       	movw	r24, r14
    28a0:	0e 94 aa 0b 	call	0x1754	; 0x1754 <_ZN8ATTClass9sendErrorEjhjh>
    28a4:	a9 c0       	rjmp	.+338    	; 0x29f8 <_ZN8ATTClass12prepWriteReqEjhPh+0x202>
    28a6:	c8 01       	movw	r24, r16
    28a8:	0e 94 ca 02 	call	0x594	; 0x594 <_ZN19LocalCharacteristic11valueHandleEv>
    28ac:	68 16       	cp	r6, r24
    28ae:	79 06       	cpc	r7, r25
    28b0:	41 f0       	breq	.+16     	; 0x28c2 <_ZN8ATTClass12prepWriteReqEjhPh+0xcc>
    28b2:	0b e0       	ldi	r16, 0x0B	; 11
    28b4:	93 01       	movw	r18, r6
    28b6:	46 e1       	ldi	r20, 0x16	; 22
    28b8:	b4 01       	movw	r22, r8
    28ba:	c7 01       	movw	r24, r14
    28bc:	0e 94 aa 0b 	call	0x1754	; 0x1754 <_ZN8ATTClass9sendErrorEjhjh>
    28c0:	9b c0       	rjmp	.+310    	; 0x29f8 <_ZN8ATTClass12prepWriteReqEjhPh+0x202>
    28c2:	c8 01       	movw	r24, r16
    28c4:	0e 94 45 02 	call	0x48a	; 0x48a <_ZN19LocalCharacteristic10propertiesEv>
    28c8:	83 fd       	sbrc	r24, 3
    28ca:	08 c0       	rjmp	.+16     	; 0x28dc <_ZN8ATTClass12prepWriteReqEjhPh+0xe6>
    28cc:	03 e0       	ldi	r16, 0x03	; 3
    28ce:	93 01       	movw	r18, r6
    28d0:	46 e1       	ldi	r20, 0x16	; 22
    28d2:	b4 01       	movw	r22, r8
    28d4:	c7 01       	movw	r24, r14
    28d6:	0e 94 aa 0b 	call	0x1754	; 0x1754 <_ZN8ATTClass9sendErrorEjhjh>
    28da:	8e c0       	rjmp	.+284    	; 0x29f8 <_ZN8ATTClass12prepWriteReqEjhPh+0x202>
    28dc:	f7 01       	movw	r30, r14
    28de:	80 85       	ldd	r24, Z+8	; 0x08
    28e0:	91 85       	ldd	r25, Z+9	; 0x09
    28e2:	00 97       	sbiw	r24, 0x00	; 0
    28e4:	d9 f4       	brne	.+54     	; 0x291c <_ZN8ATTClass12prepWriteReqEjhPh+0x126>
    28e6:	c8 01       	movw	r24, r16
    28e8:	0e 94 48 02 	call	0x490	; 0x490 <_ZN19LocalCharacteristic9valueSizeEv>
    28ec:	9b 83       	std	Y+3, r25	; 0x03
    28ee:	8a 83       	std	Y+2, r24	; 0x02
    28f0:	bc 01       	movw	r22, r24
    28f2:	d7 01       	movw	r26, r14
    28f4:	1a 96       	adiw	r26, 0x0a	; 10
    28f6:	8d 91       	ld	r24, X+
    28f8:	9c 91       	ld	r25, X
    28fa:	1b 97       	sbiw	r26, 0x0b	; 11
    28fc:	0e 94 d5 2b 	call	0x57aa	; 0x57aa <realloc>
    2900:	f7 01       	movw	r30, r14
    2902:	93 87       	std	Z+11, r25	; 0x0b
    2904:	82 87       	std	Z+10, r24	; 0x0a
    2906:	15 86       	std	Z+13, r1	; 0x0d
    2908:	14 86       	std	Z+12, r1	; 0x0c
    290a:	71 86       	std	Z+9, r7	; 0x09
    290c:	60 86       	std	Z+8, r6	; 0x08
    290e:	4a 81       	ldd	r20, Y+2	; 0x02
    2910:	5b 81       	ldd	r21, Y+3	; 0x03
    2912:	60 e0       	ldi	r22, 0x00	; 0
    2914:	70 e0       	ldi	r23, 0x00	; 0
    2916:	0e 94 c0 2e 	call	0x5d80	; 0x5d80 <memset>
    291a:	0b c0       	rjmp	.+22     	; 0x2932 <_ZN8ATTClass12prepWriteReqEjhPh+0x13c>
    291c:	68 16       	cp	r6, r24
    291e:	79 06       	cpc	r7, r25
    2920:	41 f0       	breq	.+16     	; 0x2932 <_ZN8ATTClass12prepWriteReqEjhPh+0x13c>
    2922:	0e e0       	ldi	r16, 0x0E	; 14
    2924:	93 01       	movw	r18, r6
    2926:	46 e1       	ldi	r20, 0x16	; 22
    2928:	b4 01       	movw	r22, r8
    292a:	c7 01       	movw	r24, r14
    292c:	0e 94 aa 0b 	call	0x1754	; 0x1754 <_ZN8ATTClass9sendErrorEjhjh>
    2930:	63 c0       	rjmp	.+198    	; 0x29f8 <_ZN8ATTClass12prepWriteReqEjhPh+0x202>
    2932:	d7 01       	movw	r26, r14
    2934:	1c 96       	adiw	r26, 0x0c	; 12
    2936:	8d 91       	ld	r24, X+
    2938:	9c 91       	ld	r25, X
    293a:	1d 97       	sbiw	r26, 0x0d	; 13
    293c:	48 16       	cp	r4, r24
    293e:	59 06       	cpc	r5, r25
    2940:	91 f4       	brne	.+36     	; 0x2966 <_ZN8ATTClass12prepWriteReqEjhPh+0x170>
    2942:	89 81       	ldd	r24, Y+1	; 0x01
    2944:	84 50       	subi	r24, 0x04	; 4
    2946:	e8 2f       	mov	r30, r24
    2948:	f0 e0       	ldi	r31, 0x00	; 0
    294a:	fb 83       	std	Y+3, r31	; 0x03
    294c:	ea 83       	std	Y+2, r30	; 0x02
    294e:	e4 0d       	add	r30, r4
    2950:	f5 1d       	adc	r31, r5
    2952:	fd 83       	std	Y+5, r31	; 0x05
    2954:	ec 83       	std	Y+4, r30	; 0x04
    2956:	c8 01       	movw	r24, r16
    2958:	0e 94 48 02 	call	0x490	; 0x490 <_ZN19LocalCharacteristic9valueSizeEv>
    295c:	2c 81       	ldd	r18, Y+4	; 0x04
    295e:	3d 81       	ldd	r19, Y+5	; 0x05
    2960:	82 17       	cp	r24, r18
    2962:	93 07       	cpc	r25, r19
    2964:	40 f4       	brcc	.+16     	; 0x2976 <_ZN8ATTClass12prepWriteReqEjhPh+0x180>
    2966:	07 e0       	ldi	r16, 0x07	; 7
    2968:	93 01       	movw	r18, r6
    296a:	46 e1       	ldi	r20, 0x16	; 22
    296c:	b4 01       	movw	r22, r8
    296e:	c7 01       	movw	r24, r14
    2970:	0e 94 aa 0b 	call	0x1754	; 0x1754 <_ZN8ATTClass9sendErrorEjhjh>
    2974:	41 c0       	rjmp	.+130    	; 0x29f8 <_ZN8ATTClass12prepWriteReqEjhPh+0x202>
    2976:	d7 01       	movw	r26, r14
    2978:	1a 96       	adiw	r26, 0x0a	; 10
    297a:	8d 91       	ld	r24, X+
    297c:	9c 91       	ld	r25, X
    297e:	1b 97       	sbiw	r26, 0x0b	; 11
    2980:	b1 01       	movw	r22, r2
    2982:	6c 5f       	subi	r22, 0xFC	; 252
    2984:	7f 4f       	sbci	r23, 0xFF	; 255
    2986:	4a 81       	ldd	r20, Y+2	; 0x02
    2988:	5b 81       	ldd	r21, Y+3	; 0x03
    298a:	84 0d       	add	r24, r4
    298c:	95 1d       	adc	r25, r5
    298e:	0e 94 b7 2e 	call	0x5d6e	; 0x5d6e <memcpy>
    2992:	f7 01       	movw	r30, r14
    2994:	84 85       	ldd	r24, Z+12	; 0x0c
    2996:	95 85       	ldd	r25, Z+13	; 0x0d
    2998:	2a 81       	ldd	r18, Y+2	; 0x02
    299a:	3b 81       	ldd	r19, Y+3	; 0x03
    299c:	82 0f       	add	r24, r18
    299e:	93 1f       	adc	r25, r19
    29a0:	95 87       	std	Z+13, r25	; 0x0d
    29a2:	84 87       	std	Z+12, r24	; 0x0c
    29a4:	86 81       	ldd	r24, Z+6	; 0x06
    29a6:	97 81       	ldd	r25, Z+7	; 0x07
    29a8:	ad b7       	in	r26, 0x3d	; 61
    29aa:	be b7       	in	r27, 0x3e	; 62
    29ac:	a8 1b       	sub	r26, r24
    29ae:	b9 0b       	sbc	r27, r25
    29b0:	0f b6       	in	r0, 0x3f	; 63
    29b2:	f8 94       	cli
    29b4:	be bf       	out	0x3e, r27	; 62
    29b6:	0f be       	out	0x3f, r0	; 63
    29b8:	ad bf       	out	0x3d, r26	; 61
    29ba:	ed b7       	in	r30, 0x3d	; 61
    29bc:	fe b7       	in	r31, 0x3e	; 62
    29be:	31 96       	adiw	r30, 0x01	; 1
    29c0:	7f 01       	movw	r14, r30
    29c2:	87 e1       	ldi	r24, 0x17	; 23
    29c4:	11 96       	adiw	r26, 0x01	; 1
    29c6:	8c 93       	st	X, r24
    29c8:	b9 81       	ldd	r27, Y+1	; 0x01
    29ca:	0b 2f       	mov	r16, r27
    29cc:	10 e0       	ldi	r17, 0x00	; 0
    29ce:	a8 01       	movw	r20, r16
    29d0:	b1 01       	movw	r22, r2
    29d2:	cf 01       	movw	r24, r30
    29d4:	01 96       	adiw	r24, 0x01	; 1
    29d6:	0e 94 b7 2e 	call	0x5d6e	; 0x5d6e <memcpy>
    29da:	98 01       	movw	r18, r16
    29dc:	2f 5f       	subi	r18, 0xFF	; 255
    29de:	3f 4f       	sbci	r19, 0xFF	; 255
    29e0:	87 01       	movw	r16, r14
    29e2:	44 e0       	ldi	r20, 0x04	; 4
    29e4:	b4 01       	movw	r22, r8
    29e6:	89 e6       	ldi	r24, 0x69	; 105
    29e8:	94 e0       	ldi	r25, 0x04	; 4
    29ea:	13 d5       	rcall	.+2598   	; 0x3412 <_ZN8HCIClass13sendAclPacketEjhhPv>
    29ec:	0f b6       	in	r0, 0x3f	; 63
    29ee:	f8 94       	cli
    29f0:	be be       	out	0x3e, r11	; 62
    29f2:	0f be       	out	0x3f, r0	; 63
    29f4:	ad be       	out	0x3d, r10	; 61
    29f6:	05 c0       	rjmp	.+10     	; 0x2a02 <_ZN8ATTClass12prepWriteReqEjhPh+0x20c>
    29f8:	0f b6       	in	r0, 0x3f	; 63
    29fa:	f8 94       	cli
    29fc:	be be       	out	0x3e, r11	; 62
    29fe:	0f be       	out	0x3f, r0	; 63
    2a00:	ad be       	out	0x3d, r10	; 61
    2a02:	0f b6       	in	r0, 0x3f	; 63
    2a04:	f8 94       	cli
    2a06:	de be       	out	0x3e, r13	; 62
    2a08:	0f be       	out	0x3f, r0	; 63
    2a0a:	cd be       	out	0x3d, r12	; 61
    2a0c:	0f 90       	pop	r0
    2a0e:	0f 90       	pop	r0
    2a10:	0f 90       	pop	r0
    2a12:	0f 90       	pop	r0
    2a14:	0f 90       	pop	r0
    2a16:	df 91       	pop	r29
    2a18:	cf 91       	pop	r28
    2a1a:	1f 91       	pop	r17
    2a1c:	0f 91       	pop	r16
    2a1e:	ff 90       	pop	r15
    2a20:	ef 90       	pop	r14
    2a22:	df 90       	pop	r13
    2a24:	cf 90       	pop	r12
    2a26:	bf 90       	pop	r11
    2a28:	af 90       	pop	r10
    2a2a:	9f 90       	pop	r9
    2a2c:	8f 90       	pop	r8
    2a2e:	7f 90       	pop	r7
    2a30:	6f 90       	pop	r6
    2a32:	5f 90       	pop	r5
    2a34:	4f 90       	pop	r4
    2a36:	3f 90       	pop	r3
    2a38:	2f 90       	pop	r2
    2a3a:	08 95       	ret

00002a3c <_ZN8ATTClass12execWriteReqEjhPh>:
    2a3c:	4f 92       	push	r4
    2a3e:	5f 92       	push	r5
    2a40:	6f 92       	push	r6
    2a42:	7f 92       	push	r7
    2a44:	8f 92       	push	r8
    2a46:	9f 92       	push	r9
    2a48:	af 92       	push	r10
    2a4a:	bf 92       	push	r11
    2a4c:	cf 92       	push	r12
    2a4e:	df 92       	push	r13
    2a50:	ef 92       	push	r14
    2a52:	ff 92       	push	r15
    2a54:	0f 93       	push	r16
    2a56:	1f 93       	push	r17
    2a58:	cf 93       	push	r28
    2a5a:	df 93       	push	r29
    2a5c:	cd b7       	in	r28, 0x3d	; 61
    2a5e:	de b7       	in	r29, 0x3e	; 62
    2a60:	6c 97       	sbiw	r28, 0x1c	; 28
    2a62:	0f b6       	in	r0, 0x3f	; 63
    2a64:	f8 94       	cli
    2a66:	de bf       	out	0x3e, r29	; 62
    2a68:	0f be       	out	0x3f, r0	; 63
    2a6a:	cd bf       	out	0x3d, r28	; 61
    2a6c:	7c 01       	movw	r14, r24
    2a6e:	6b 01       	movw	r12, r22
    2a70:	ad b6       	in	r10, 0x3d	; 61
    2a72:	be b6       	in	r11, 0x3e	; 62
    2a74:	8d b6       	in	r8, 0x3d	; 61
    2a76:	9e b6       	in	r9, 0x3e	; 62
    2a78:	41 30       	cpi	r20, 0x01	; 1
    2a7a:	61 f0       	breq	.+24     	; 0x2a94 <_ZN8ATTClass12execWriteReqEjhPh+0x58>
    2a7c:	04 e0       	ldi	r16, 0x04	; 4
    2a7e:	20 e0       	ldi	r18, 0x00	; 0
    2a80:	30 e0       	ldi	r19, 0x00	; 0
    2a82:	48 e1       	ldi	r20, 0x18	; 24
    2a84:	0e 94 aa 0b 	call	0x1754	; 0x1754 <_ZN8ATTClass9sendErrorEjhjh>
    2a88:	0f b6       	in	r0, 0x3f	; 63
    2a8a:	f8 94       	cli
    2a8c:	be be       	out	0x3e, r11	; 62
    2a8e:	0f be       	out	0x3f, r0	; 63
    2a90:	ad be       	out	0x3d, r10	; 61
    2a92:	50 c0       	rjmp	.+160    	; 0x2b34 <_ZN8ATTClass12execWriteReqEjhPh+0xf8>
    2a94:	fc 01       	movw	r30, r24
    2a96:	60 85       	ldd	r22, Z+8	; 0x08
    2a98:	71 85       	ldd	r23, Z+9	; 0x09
    2a9a:	61 15       	cp	r22, r1
    2a9c:	71 05       	cpc	r23, r1
    2a9e:	39 f1       	breq	.+78     	; 0x2aee <_ZN8ATTClass12execWriteReqEjhPh+0xb2>
    2aa0:	f9 01       	movw	r30, r18
    2aa2:	80 81       	ld	r24, Z
    2aa4:	80 ff       	sbrs	r24, 0
    2aa6:	23 c0       	rjmp	.+70     	; 0x2aee <_ZN8ATTClass12execWriteReqEjhPh+0xb2>
    2aa8:	61 50       	subi	r22, 0x01	; 1
    2aaa:	71 09       	sbc	r23, r1
    2aac:	89 e8       	ldi	r24, 0x89	; 137
    2aae:	93 e0       	ldi	r25, 0x03	; 3
    2ab0:	84 d2       	rcall	.+1288   	; 0x2fba <_ZN9GATTClass9attributeEj>
    2ab2:	8c 01       	movw	r16, r24
    2ab4:	f7 01       	movw	r30, r14
    2ab6:	64 81       	ldd	r22, Z+4	; 0x04
    2ab8:	75 81       	ldd	r23, Z+5	; 0x05
    2aba:	6c 15       	cp	r22, r12
    2abc:	7d 05       	cpc	r23, r13
    2abe:	b9 f4       	brne	.+46     	; 0x2aee <_ZN8ATTClass12execWriteReqEjhPh+0xb2>
    2ac0:	44 84       	ldd	r4, Z+12	; 0x0c
    2ac2:	55 84       	ldd	r5, Z+13	; 0x0d
    2ac4:	62 84       	ldd	r6, Z+10	; 0x0a
    2ac6:	73 84       	ldd	r7, Z+11	; 0x0b
    2ac8:	a7 01       	movw	r20, r14
    2aca:	42 5f       	subi	r20, 0xF2	; 242
    2acc:	5f 4f       	sbci	r21, 0xFF	; 255
    2ace:	ce 01       	movw	r24, r28
    2ad0:	01 96       	adiw	r24, 0x01	; 1
    2ad2:	0e 94 42 08 	call	0x1084	; 0x1084 <_ZN9BLEDeviceC1EjPh>
    2ad6:	92 01       	movw	r18, r4
    2ad8:	a3 01       	movw	r20, r6
    2ada:	be 01       	movw	r22, r28
    2adc:	6f 5f       	subi	r22, 0xFF	; 255
    2ade:	7f 4f       	sbci	r23, 0xFF	; 255
    2ae0:	c8 01       	movw	r24, r16
    2ae2:	0e 94 47 04 	call	0x88e	; 0x88e <_ZN19LocalCharacteristic10writeValueE9BLEDevicePKhi>
    2ae6:	ce 01       	movw	r24, r28
    2ae8:	01 96       	adiw	r24, 0x01	; 1
    2aea:	0e 94 5c 07 	call	0xeb8	; 0xeb8 <_ZN9BLEDeviceD1Ev>
    2aee:	f7 01       	movw	r30, r14
    2af0:	11 86       	std	Z+9, r1	; 0x09
    2af2:	10 86       	std	Z+8, r1	; 0x08
    2af4:	15 86       	std	Z+13, r1	; 0x0d
    2af6:	14 86       	std	Z+12, r1	; 0x0c
    2af8:	86 81       	ldd	r24, Z+6	; 0x06
    2afa:	97 81       	ldd	r25, Z+7	; 0x07
    2afc:	2d b7       	in	r18, 0x3d	; 61
    2afe:	3e b7       	in	r19, 0x3e	; 62
    2b00:	28 1b       	sub	r18, r24
    2b02:	39 0b       	sbc	r19, r25
    2b04:	0f b6       	in	r0, 0x3f	; 63
    2b06:	f8 94       	cli
    2b08:	3e bf       	out	0x3e, r19	; 62
    2b0a:	0f be       	out	0x3f, r0	; 63
    2b0c:	2d bf       	out	0x3d, r18	; 61
    2b0e:	0d b7       	in	r16, 0x3d	; 61
    2b10:	1e b7       	in	r17, 0x3e	; 62
    2b12:	0f 5f       	subi	r16, 0xFF	; 255
    2b14:	1f 4f       	sbci	r17, 0xFF	; 255
    2b16:	89 e1       	ldi	r24, 0x19	; 25
    2b18:	ed b7       	in	r30, 0x3d	; 61
    2b1a:	fe b7       	in	r31, 0x3e	; 62
    2b1c:	81 83       	std	Z+1, r24	; 0x01
    2b1e:	21 e0       	ldi	r18, 0x01	; 1
    2b20:	44 e0       	ldi	r20, 0x04	; 4
    2b22:	b6 01       	movw	r22, r12
    2b24:	89 e6       	ldi	r24, 0x69	; 105
    2b26:	94 e0       	ldi	r25, 0x04	; 4
    2b28:	74 d4       	rcall	.+2280   	; 0x3412 <_ZN8HCIClass13sendAclPacketEjhhPv>
    2b2a:	0f b6       	in	r0, 0x3f	; 63
    2b2c:	f8 94       	cli
    2b2e:	9e be       	out	0x3e, r9	; 62
    2b30:	0f be       	out	0x3f, r0	; 63
    2b32:	8d be       	out	0x3d, r8	; 61
    2b34:	0f b6       	in	r0, 0x3f	; 63
    2b36:	f8 94       	cli
    2b38:	be be       	out	0x3e, r11	; 62
    2b3a:	0f be       	out	0x3f, r0	; 63
    2b3c:	ad be       	out	0x3d, r10	; 61
    2b3e:	6c 96       	adiw	r28, 0x1c	; 28
    2b40:	0f b6       	in	r0, 0x3f	; 63
    2b42:	f8 94       	cli
    2b44:	de bf       	out	0x3e, r29	; 62
    2b46:	0f be       	out	0x3f, r0	; 63
    2b48:	cd bf       	out	0x3d, r28	; 61
    2b4a:	df 91       	pop	r29
    2b4c:	cf 91       	pop	r28
    2b4e:	1f 91       	pop	r17
    2b50:	0f 91       	pop	r16
    2b52:	ff 90       	pop	r15
    2b54:	ef 90       	pop	r14
    2b56:	df 90       	pop	r13
    2b58:	cf 90       	pop	r12
    2b5a:	bf 90       	pop	r11
    2b5c:	af 90       	pop	r10
    2b5e:	9f 90       	pop	r9
    2b60:	8f 90       	pop	r8
    2b62:	7f 90       	pop	r7
    2b64:	6f 90       	pop	r6
    2b66:	5f 90       	pop	r5
    2b68:	4f 90       	pop	r4
    2b6a:	08 95       	ret

00002b6c <_ZN8ATTClass10handleDataEjhPh>:
    2b6c:	cf 92       	push	r12
    2b6e:	df 92       	push	r13
    2b70:	ef 92       	push	r14
    2b72:	ff 92       	push	r15
    2b74:	0f 93       	push	r16
    2b76:	1f 93       	push	r17
    2b78:	a2 2f       	mov	r26, r18
    2b7a:	b3 2f       	mov	r27, r19
    2b7c:	5d 91       	ld	r21, X+
    2b7e:	41 50       	subi	r20, 0x01	; 1
    2b80:	c5 2e       	mov	r12, r21
    2b82:	d1 2c       	mov	r13, r1
    2b84:	f6 01       	movw	r30, r12
    2b86:	32 97       	sbiw	r30, 0x02	; 2
    2b88:	e1 35       	cpi	r30, 0x51	; 81
    2b8a:	f1 05       	cpc	r31, r1
    2b8c:	50 f5       	brcc	.+84     	; 0x2be2 <_ZN8ATTClass10handleDataEjhPh+0x76>
    2b8e:	ea 5b       	subi	r30, 0xBA	; 186
    2b90:	ff 4f       	sbci	r31, 0xFF	; 255
    2b92:	0c 94 92 2a 	jmp	0x5524	; 0x5524 <__tablejump2__>
    2b96:	9d 01       	movw	r18, r26
    2b98:	0e 94 d1 0b 	call	0x17a2	; 0x17a2 <_ZN8ATTClass6mtuReqEjhPh>
    2b9c:	28 c0       	rjmp	.+80     	; 0x2bee <_ZN8ATTClass10handleDataEjhPh+0x82>
    2b9e:	9d 01       	movw	r18, r26
    2ba0:	0e 94 03 0c 	call	0x1806	; 0x1806 <_ZN8ATTClass11findInfoReqEjhPh>
    2ba4:	24 c0       	rjmp	.+72     	; 0x2bee <_ZN8ATTClass10handleDataEjhPh+0x82>
    2ba6:	9d 01       	movw	r18, r26
    2ba8:	0e 94 36 0d 	call	0x1a6c	; 0x1a6c <_ZN8ATTClass13findByTypeReqEjhPh>
    2bac:	20 c0       	rjmp	.+64     	; 0x2bee <_ZN8ATTClass10handleDataEjhPh+0x82>
    2bae:	9d 01       	movw	r18, r26
    2bb0:	07 db       	rcall	.-2546   	; 0x21c0 <_ZN8ATTClass13readByTypeReqEjhPh>
    2bb2:	1d c0       	rjmp	.+58     	; 0x2bee <_ZN8ATTClass10handleDataEjhPh+0x82>
    2bb4:	9d 01       	movw	r18, r26
    2bb6:	4d d8       	rcall	.-3942   	; 0x1c52 <_ZN8ATTClass14readByGroupReqEjhPh>
    2bb8:	1a c0       	rjmp	.+52     	; 0x2bee <_ZN8ATTClass10handleDataEjhPh+0x82>
    2bba:	8d 01       	movw	r16, r26
    2bbc:	24 2f       	mov	r18, r20
    2bbe:	45 2f       	mov	r20, r21
    2bc0:	5d d9       	rcall	.-3398   	; 0x1e7c <_ZN8ATTClass17readOrReadBlobReqEjhhPh>
    2bc2:	15 c0       	rjmp	.+42     	; 0x2bee <_ZN8ATTClass10handleDataEjhPh+0x82>
    2bc4:	8d 01       	movw	r16, r26
    2bc6:	24 2f       	mov	r18, r20
    2bc8:	45 2f       	mov	r20, r21
    2bca:	c9 dc       	rcall	.-1646   	; 0x255e <_ZN8ATTClass13writeReqOrCmdEjhhPh>
    2bcc:	10 c0       	rjmp	.+32     	; 0x2bee <_ZN8ATTClass10handleDataEjhPh+0x82>
    2bce:	9d 01       	movw	r18, r26
    2bd0:	12 de       	rcall	.-988    	; 0x27f6 <_ZN8ATTClass12prepWriteReqEjhPh>
    2bd2:	0d c0       	rjmp	.+26     	; 0x2bee <_ZN8ATTClass10handleDataEjhPh+0x82>
    2bd4:	9d 01       	movw	r18, r26
    2bd6:	32 df       	rcall	.-412    	; 0x2a3c <_ZN8ATTClass12execWriteReqEjhPh>
    2bd8:	0a c0       	rjmp	.+20     	; 0x2bee <_ZN8ATTClass10handleDataEjhPh+0x82>
    2bda:	21 e0       	ldi	r18, 0x01	; 1
    2bdc:	fc 01       	movw	r30, r24
    2bde:	24 8b       	std	Z+20, r18	; 0x14
    2be0:	06 c0       	rjmp	.+12     	; 0x2bee <_ZN8ATTClass10handleDataEjhPh+0x82>
    2be2:	06 e0       	ldi	r16, 0x06	; 6
    2be4:	20 e0       	ldi	r18, 0x00	; 0
    2be6:	30 e0       	ldi	r19, 0x00	; 0
    2be8:	45 2f       	mov	r20, r21
    2bea:	0e 94 aa 0b 	call	0x1754	; 0x1754 <_ZN8ATTClass9sendErrorEjhjh>
    2bee:	1f 91       	pop	r17
    2bf0:	0f 91       	pop	r16
    2bf2:	ff 90       	pop	r15
    2bf4:	ef 90       	pop	r14
    2bf6:	df 90       	pop	r13
    2bf8:	cf 90       	pop	r12
    2bfa:	08 95       	ret

00002bfc <_GLOBAL__sub_I__ZN8ATTClassC2Ev>:
    }
}

ATTClass x_att;
    2bfc:	8c e5       	ldi	r24, 0x5C	; 92
    2bfe:	93 e0       	ldi	r25, 0x03	; 3
    2c00:	0c 94 4f 09 	jmp	0x129e	; 0x129e <_ZN8ATTClassC1Ev>
    2c04:	08 95       	ret

00002c06 <_GLOBAL__sub_D__ZN8ATTClassC2Ev>:
    2c06:	8c e5       	ldi	r24, 0x5C	; 92
    2c08:	93 e0       	ldi	r25, 0x03	; 3
    2c0a:	0c 94 39 09 	jmp	0x1272	; 0x1272 <_ZN8ATTClassD1Ev>
    2c0e:	08 95       	ret

00002c10 <_ZN8GAPClassD1Ev>:
    m_advertisingInterval = advertisingInterval;
}

void GAPClass::setConnectable(bool connectable)
{
    m_connectable = connectable;
    2c10:	08 95       	ret

00002c12 <_ZN8GAPClassD0Ev>:
    2c12:	0c 94 de 23 	jmp	0x47bc	; 0x47bc <_ZdlPv>
    2c16:	08 95       	ret

00002c18 <_ZN8GAPClassC1Ev>:
    2c18:	fc 01       	movw	r30, r24
    2c1a:	89 e9       	ldi	r24, 0x99	; 153
    2c1c:	92 e0       	ldi	r25, 0x02	; 2
    2c1e:	91 83       	std	Z+1, r25	; 0x01
    2c20:	80 83       	st	Z, r24
    2c22:	12 82       	std	Z+2, r1	; 0x02
    2c24:	14 82       	std	Z+4, r1	; 0x04
    2c26:	13 82       	std	Z+3, r1	; 0x03
    2c28:	16 82       	std	Z+6, r1	; 0x06
    2c2a:	15 82       	std	Z+5, r1	; 0x05
    2c2c:	10 86       	std	Z+8, r1	; 0x08
    2c2e:	17 82       	std	Z+7, r1	; 0x07
    2c30:	12 86       	std	Z+10, r1	; 0x0a
    2c32:	11 86       	std	Z+9, r1	; 0x09
    2c34:	80 ea       	ldi	r24, 0xA0	; 160
    2c36:	90 e0       	ldi	r25, 0x00	; 0
    2c38:	94 87       	std	Z+12, r25	; 0x0c
    2c3a:	83 87       	std	Z+11, r24	; 0x0b
    2c3c:	81 e0       	ldi	r24, 0x01	; 1
    2c3e:	85 87       	std	Z+13, r24	; 0x0d
    2c40:	17 86       	std	Z+15, r1	; 0x0f
    2c42:	16 86       	std	Z+14, r1	; 0x0e
    2c44:	11 8a       	std	Z+17, r1	; 0x11
    2c46:	10 8a       	std	Z+16, r1	; 0x10
    2c48:	08 95       	ret

00002c4a <_ZN8GAPClass11advertisingEv>:
    2c4a:	fc 01       	movw	r30, r24
    2c4c:	82 81       	ldd	r24, Z+2	; 0x02
    2c4e:	08 95       	ret

00002c50 <_ZN8GAPClass9advertiseEv>:
    2c50:	6f 92       	push	r6
    2c52:	7f 92       	push	r7
    2c54:	8f 92       	push	r8
    2c56:	af 92       	push	r10
    2c58:	cf 92       	push	r12
    2c5a:	df 92       	push	r13
    2c5c:	ef 92       	push	r14
    2c5e:	ff 92       	push	r15
    2c60:	0f 93       	push	r16
    2c62:	1f 93       	push	r17
    2c64:	cf 93       	push	r28
    2c66:	df 93       	push	r29
    2c68:	cd b7       	in	r28, 0x3d	; 61
    2c6a:	de b7       	in	r29, 0x3e	; 62
    2c6c:	c7 55       	subi	r28, 0x57	; 87
    2c6e:	d1 09       	sbc	r29, r1
    2c70:	0f b6       	in	r0, 0x3f	; 63
    2c72:	f8 94       	cli
    2c74:	de bf       	out	0x3e, r29	; 62
    2c76:	0f be       	out	0x3f, r0	; 63
    2c78:	cd bf       	out	0x3d, r28	; 61
    2c7a:	3c 01       	movw	r6, r24
    2c7c:	fe 01       	movw	r30, r28
    2c7e:	31 96       	adiw	r30, 0x01	; 1
    2c80:	86 e0       	ldi	r24, 0x06	; 6
    2c82:	df 01       	movw	r26, r30
    2c84:	1d 92       	st	X+, r1
    2c86:	8a 95       	dec	r24
    2c88:	e9 f7       	brne	.-6      	; 0x2c84 <_ZN8GAPClass9advertiseEv+0x34>
    2c8a:	f3 01       	movw	r30, r6
    2c8c:	85 85       	ldd	r24, Z+13	; 0x0d
    2c8e:	81 11       	cpse	r24, r1
    2c90:	06 c0       	rjmp	.+12     	; 0x2c9e <_ZN8GAPClass9advertiseEv+0x4e>
    2c92:	81 85       	ldd	r24, Z+9	; 0x09
    2c94:	92 85       	ldd	r25, Z+10	; 0x0a
    2c96:	89 2b       	or	r24, r25
    2c98:	21 f4       	brne	.+8      	; 0x2ca2 <_ZN8GAPClass9advertiseEv+0x52>
    2c9a:	23 e0       	ldi	r18, 0x03	; 3
    2c9c:	03 c0       	rjmp	.+6      	; 0x2ca4 <_ZN8GAPClass9advertiseEv+0x54>
    2c9e:	20 e0       	ldi	r18, 0x00	; 0
    2ca0:	01 c0       	rjmp	.+2      	; 0x2ca4 <_ZN8GAPClass9advertiseEv+0x54>
    2ca2:	22 e0       	ldi	r18, 0x02	; 2
    2ca4:	d3 01       	movw	r26, r6
    2ca6:	12 96       	adiw	r26, 0x02	; 2
    2ca8:	1c 92       	st	X, r1
    2caa:	12 97       	sbiw	r26, 0x02	; 2
    2cac:	1b 96       	adiw	r26, 0x0b	; 11
    2cae:	6d 91       	ld	r22, X+
    2cb0:	7c 91       	ld	r23, X
    2cb2:	1c 97       	sbiw	r26, 0x0c	; 12
    2cb4:	81 2c       	mov	r8, r1
    2cb6:	0f 2e       	mov	r0, r31
    2cb8:	f7 e0       	ldi	r31, 0x07	; 7
    2cba:	af 2e       	mov	r10, r31
    2cbc:	f0 2d       	mov	r31, r0
    2cbe:	fe 01       	movw	r30, r28
    2cc0:	31 96       	adiw	r30, 0x01	; 1
    2cc2:	6f 01       	movw	r12, r30
    2cc4:	e1 2c       	mov	r14, r1
    2cc6:	00 e0       	ldi	r16, 0x00	; 0
    2cc8:	ab 01       	movw	r20, r22
    2cca:	89 e6       	ldi	r24, 0x69	; 105
    2ccc:	94 e0       	ldi	r25, 0x04	; 4
    2cce:	4d d5       	rcall	.+2714   	; 0x376a <_ZN8HCIClass22setLeAdvertisingParamsEjjhhhPhhh>
    2cd0:	7c 01       	movw	r14, r24
    2cd2:	89 2b       	or	r24, r25
    2cd4:	09 f0       	breq	.+2      	; 0x2cd8 <_ZN8GAPClass9advertiseEv+0x88>
    2cd6:	d7 c0       	rjmp	.+430    	; 0x2e86 <_ZN8GAPClass9advertiseEv+0x236>
    2cd8:	82 e0       	ldi	r24, 0x02	; 2
    2cda:	8f 83       	std	Y+7, r24	; 0x07
    2cdc:	81 e0       	ldi	r24, 0x01	; 1
    2cde:	88 87       	std	Y+8, r24	; 0x08
    2ce0:	86 e0       	ldi	r24, 0x06	; 6
    2ce2:	89 87       	std	Y+9, r24	; 0x09
    2ce4:	d3 01       	movw	r26, r6
    2ce6:	13 96       	adiw	r26, 0x03	; 3
    2ce8:	6d 91       	ld	r22, X+
    2cea:	7c 91       	ld	r23, X
    2cec:	14 97       	sbiw	r26, 0x04	; 4
    2cee:	61 15       	cp	r22, r1
    2cf0:	71 05       	cpc	r23, r1
    2cf2:	29 f1       	breq	.+74     	; 0x2d3e <_ZN8GAPClass9advertiseEv+0xee>
    2cf4:	ce 01       	movw	r24, r28
    2cf6:	8b 5b       	subi	r24, 0xBB	; 187
    2cf8:	9f 4f       	sbci	r25, 0xFF	; 255
    2cfa:	0e 94 c9 08 	call	0x1192	; 0x1192 <_ZN7BLEUUIDC1EPKc>
    2cfe:	ce 01       	movw	r24, r28
    2d00:	8b 5b       	subi	r24, 0xBB	; 187
    2d02:	9f 4f       	sbci	r25, 0xFF	; 255
    2d04:	0e 94 36 09 	call	0x126c	; 0x126c <_ZN7BLEUUID6lengthEv>
    2d08:	08 2f       	mov	r16, r24
    2d0a:	81 e0       	ldi	r24, 0x01	; 1
    2d0c:	80 0f       	add	r24, r16
    2d0e:	8a 87       	std	Y+10, r24	; 0x0a
    2d10:	80 2f       	mov	r24, r16
    2d12:	90 e0       	ldi	r25, 0x00	; 0
    2d14:	03 97       	sbiw	r24, 0x03	; 3
    2d16:	14 f4       	brge	.+4      	; 0x2d1c <_ZN8GAPClass9advertiseEv+0xcc>
    2d18:	82 e0       	ldi	r24, 0x02	; 2
    2d1a:	01 c0       	rjmp	.+2      	; 0x2d1e <_ZN8GAPClass9advertiseEv+0xce>
    2d1c:	86 e0       	ldi	r24, 0x06	; 6
    2d1e:	8b 87       	std	Y+11, r24	; 0x0b
    2d20:	ce 01       	movw	r24, r28
    2d22:	8b 5b       	subi	r24, 0xBB	; 187
    2d24:	9f 4f       	sbci	r25, 0xFF	; 255
    2d26:	0e 94 34 09 	call	0x1268	; 0x1268 <_ZN7BLEUUID4dataEv>
    2d2a:	40 2f       	mov	r20, r16
    2d2c:	50 e0       	ldi	r21, 0x00	; 0
    2d2e:	bc 01       	movw	r22, r24
    2d30:	ce 01       	movw	r24, r28
    2d32:	0c 96       	adiw	r24, 0x0c	; 12
    2d34:	0e 94 b7 2e 	call	0x5d6e	; 0x5d6e <memcpy>
    2d38:	65 e0       	ldi	r22, 0x05	; 5
    2d3a:	60 0f       	add	r22, r16
    2d3c:	1b c0       	rjmp	.+54     	; 0x2d74 <_ZN8GAPClass9advertiseEv+0x124>
    2d3e:	f3 01       	movw	r30, r6
    2d40:	65 81       	ldd	r22, Z+5	; 0x05
    2d42:	76 81       	ldd	r23, Z+6	; 0x06
    2d44:	61 15       	cp	r22, r1
    2d46:	71 05       	cpc	r23, r1
    2d48:	91 f0       	breq	.+36     	; 0x2d6e <_ZN8GAPClass9advertiseEv+0x11e>
    2d4a:	07 81       	ldd	r16, Z+7	; 0x07
    2d4c:	10 85       	ldd	r17, Z+8	; 0x08
    2d4e:	01 15       	cp	r16, r1
    2d50:	11 05       	cpc	r17, r1
    2d52:	79 f0       	breq	.+30     	; 0x2d72 <_ZN8GAPClass9advertiseEv+0x122>
    2d54:	81 e0       	ldi	r24, 0x01	; 1
    2d56:	80 0f       	add	r24, r16
    2d58:	8a 87       	std	Y+10, r24	; 0x0a
    2d5a:	8f ef       	ldi	r24, 0xFF	; 255
    2d5c:	8b 87       	std	Y+11, r24	; 0x0b
    2d5e:	a8 01       	movw	r20, r16
    2d60:	ce 01       	movw	r24, r28
    2d62:	0c 96       	adiw	r24, 0x0c	; 12
    2d64:	0e 94 b7 2e 	call	0x5d6e	; 0x5d6e <memcpy>
    2d68:	65 e0       	ldi	r22, 0x05	; 5
    2d6a:	60 0f       	add	r22, r16
    2d6c:	03 c0       	rjmp	.+6      	; 0x2d74 <_ZN8GAPClass9advertiseEv+0x124>
    2d6e:	63 e0       	ldi	r22, 0x03	; 3
    2d70:	01 c0       	rjmp	.+2      	; 0x2d74 <_ZN8GAPClass9advertiseEv+0x124>
    2d72:	63 e0       	ldi	r22, 0x03	; 3
    2d74:	d3 01       	movw	r26, r6
    2d76:	1e 96       	adiw	r26, 0x0e	; 14
    2d78:	8d 91       	ld	r24, X+
    2d7a:	9c 91       	ld	r25, X
    2d7c:	1f 97       	sbiw	r26, 0x0f	; 15
    2d7e:	00 97       	sbiw	r24, 0x00	; 0
    2d80:	f1 f1       	breq	.+124    	; 0x2dfe <_ZN8GAPClass9advertiseEv+0x1ae>
    2d82:	50 96       	adiw	r26, 0x10	; 16
    2d84:	cd 90       	ld	r12, X+
    2d86:	dc 90       	ld	r13, X
    2d88:	51 97       	sbiw	r26, 0x11	; 17
    2d8a:	1c 14       	cp	r1, r12
    2d8c:	1d 04       	cpc	r1, r13
    2d8e:	bc f5       	brge	.+110    	; 0x2dfe <_ZN8GAPClass9advertiseEv+0x1ae>
    2d90:	26 2f       	mov	r18, r22
    2d92:	30 e0       	ldi	r19, 0x00	; 0
    2d94:	a6 01       	movw	r20, r12
    2d96:	4c 5f       	subi	r20, 0xFC	; 252
    2d98:	5f 4f       	sbci	r21, 0xFF	; 255
    2d9a:	24 17       	cp	r18, r20
    2d9c:	35 07       	cpc	r19, r21
    2d9e:	7c f1       	brlt	.+94     	; 0x2dfe <_ZN8GAPClass9advertiseEv+0x1ae>
    2da0:	e7 e0       	ldi	r30, 0x07	; 7
    2da2:	f0 e0       	ldi	r31, 0x00	; 0
    2da4:	ec 0f       	add	r30, r28
    2da6:	fd 1f       	adc	r31, r29
    2da8:	e2 0f       	add	r30, r18
    2daa:	f3 1f       	adc	r31, r19
    2dac:	43 e0       	ldi	r20, 0x03	; 3
    2dae:	4c 0d       	add	r20, r12
    2db0:	40 83       	st	Z, r20
    2db2:	21 e0       	ldi	r18, 0x01	; 1
    2db4:	26 0f       	add	r18, r22
    2db6:	e7 e0       	ldi	r30, 0x07	; 7
    2db8:	f0 e0       	ldi	r31, 0x00	; 0
    2dba:	ec 0f       	add	r30, r28
    2dbc:	fd 1f       	adc	r31, r29
    2dbe:	e2 0f       	add	r30, r18
    2dc0:	f1 1d       	adc	r31, r1
    2dc2:	26 e1       	ldi	r18, 0x16	; 22
    2dc4:	20 83       	st	Z, r18
    2dc6:	22 e0       	ldi	r18, 0x02	; 2
    2dc8:	26 0f       	add	r18, r22
    2dca:	e7 e0       	ldi	r30, 0x07	; 7
    2dcc:	f0 e0       	ldi	r31, 0x00	; 0
    2dce:	ec 0f       	add	r30, r28
    2dd0:	fd 1f       	adc	r31, r29
    2dd2:	e2 0f       	add	r30, r18
    2dd4:	f1 1d       	adc	r31, r1
    2dd6:	52 96       	adiw	r26, 0x12	; 18
    2dd8:	2d 91       	ld	r18, X+
    2dda:	3c 91       	ld	r19, X
    2ddc:	53 97       	sbiw	r26, 0x13	; 19
    2dde:	31 83       	std	Z+1, r19	; 0x01
    2de0:	20 83       	st	Z, r18
    2de2:	04 e0       	ldi	r16, 0x04	; 4
    2de4:	06 0f       	add	r16, r22
    2de6:	a6 01       	movw	r20, r12
    2de8:	bc 01       	movw	r22, r24
    2dea:	87 e0       	ldi	r24, 0x07	; 7
    2dec:	90 e0       	ldi	r25, 0x00	; 0
    2dee:	8c 0f       	add	r24, r28
    2df0:	9d 1f       	adc	r25, r29
    2df2:	80 0f       	add	r24, r16
    2df4:	91 1d       	adc	r25, r1
    2df6:	0e 94 b7 2e 	call	0x5d6e	; 0x5d6e <memcpy>
    2dfa:	60 2f       	mov	r22, r16
    2dfc:	6c 0d       	add	r22, r12
    2dfe:	ae 01       	movw	r20, r28
    2e00:	49 5f       	subi	r20, 0xF9	; 249
    2e02:	5f 4f       	sbci	r21, 0xFF	; 255
    2e04:	89 e6       	ldi	r24, 0x69	; 105
    2e06:	94 e0       	ldi	r25, 0x04	; 4
    2e08:	e7 d4       	rcall	.+2510   	; 0x37d8 <_ZN8HCIClass20setLeAdvertisingDataEhPh>
    2e0a:	6c 01       	movw	r12, r24
    2e0c:	89 2b       	or	r24, r25
    2e0e:	09 f0       	breq	.+2      	; 0x2e12 <_ZN8GAPClass9advertiseEv+0x1c2>
    2e10:	3e c0       	rjmp	.+124    	; 0x2e8e <_ZN8GAPClass9advertiseEv+0x23e>
    2e12:	f3 01       	movw	r30, r6
    2e14:	61 85       	ldd	r22, Z+9	; 0x09
    2e16:	72 85       	ldd	r23, Z+10	; 0x0a
    2e18:	61 15       	cp	r22, r1
    2e1a:	71 05       	cpc	r23, r1
    2e1c:	e9 f0       	breq	.+58     	; 0x2e58 <_ZN8GAPClass9advertiseEv+0x208>
    2e1e:	fb 01       	movw	r30, r22
    2e20:	01 90       	ld	r0, Z+
    2e22:	00 20       	and	r0, r0
    2e24:	e9 f7       	brne	.-6      	; 0x2e20 <_ZN8GAPClass9advertiseEv+0x1d0>
    2e26:	31 97       	sbiw	r30, 0x01	; 1
    2e28:	8f 01       	movw	r16, r30
    2e2a:	06 1b       	sub	r16, r22
    2e2c:	17 0b       	sbc	r17, r23
    2e2e:	0e 31       	cpi	r16, 0x1E	; 30
    2e30:	11 05       	cpc	r17, r1
    2e32:	2c f0       	brlt	.+10     	; 0x2e3e <_ZN8GAPClass9advertiseEv+0x1ee>
    2e34:	88 e0       	ldi	r24, 0x08	; 8
    2e36:	8f a3       	std	Y+39, r24	; 0x27
    2e38:	0d e1       	ldi	r16, 0x1D	; 29
    2e3a:	10 e0       	ldi	r17, 0x00	; 0
    2e3c:	02 c0       	rjmp	.+4      	; 0x2e42 <_ZN8GAPClass9advertiseEv+0x1f2>
    2e3e:	89 e0       	ldi	r24, 0x09	; 9
    2e40:	8f a3       	std	Y+39, r24	; 0x27
    2e42:	81 e0       	ldi	r24, 0x01	; 1
    2e44:	80 0f       	add	r24, r16
    2e46:	8e a3       	std	Y+38, r24	; 0x26
    2e48:	a8 01       	movw	r20, r16
    2e4a:	ce 01       	movw	r24, r28
    2e4c:	88 96       	adiw	r24, 0x28	; 40
    2e4e:	0e 94 b7 2e 	call	0x5d6e	; 0x5d6e <memcpy>
    2e52:	62 e0       	ldi	r22, 0x02	; 2
    2e54:	60 0f       	add	r22, r16
    2e56:	01 c0       	rjmp	.+2      	; 0x2e5a <_ZN8GAPClass9advertiseEv+0x20a>
    2e58:	60 e0       	ldi	r22, 0x00	; 0
    2e5a:	ae 01       	movw	r20, r28
    2e5c:	4a 5d       	subi	r20, 0xDA	; 218
    2e5e:	5f 4f       	sbci	r21, 0xFF	; 255
    2e60:	89 e6       	ldi	r24, 0x69	; 105
    2e62:	94 e0       	ldi	r25, 0x04	; 4
    2e64:	ec d4       	rcall	.+2520   	; 0x383e <_ZN8HCIClass21setLeScanResponseDataEhPh>
    2e66:	7c 01       	movw	r14, r24
    2e68:	89 2b       	or	r24, r25
    2e6a:	81 f4       	brne	.+32     	; 0x2e8c <_ZN8GAPClass9advertiseEv+0x23c>
    2e6c:	61 e0       	ldi	r22, 0x01	; 1
    2e6e:	89 e6       	ldi	r24, 0x69	; 105
    2e70:	94 e0       	ldi	r25, 0x04	; 4
    2e72:	18 d5       	rcall	.+2608   	; 0x38a4 <_ZN8HCIClass20setLeAdvertiseEnableEh>
    2e74:	89 2b       	or	r24, r25
    2e76:	59 f4       	brne	.+22     	; 0x2e8e <_ZN8GAPClass9advertiseEv+0x23e>
    2e78:	d3 01       	movw	r26, r6
    2e7a:	12 96       	adiw	r26, 0x02	; 2
    2e7c:	1c 92       	st	X, r1
    2e7e:	ee 24       	eor	r14, r14
    2e80:	e3 94       	inc	r14
    2e82:	f1 2c       	mov	r15, r1
    2e84:	04 c0       	rjmp	.+8      	; 0x2e8e <_ZN8GAPClass9advertiseEv+0x23e>
    2e86:	e1 2c       	mov	r14, r1
    2e88:	f1 2c       	mov	r15, r1
    2e8a:	01 c0       	rjmp	.+2      	; 0x2e8e <_ZN8GAPClass9advertiseEv+0x23e>
    2e8c:	76 01       	movw	r14, r12
    2e8e:	c7 01       	movw	r24, r14
    2e90:	c9 5a       	subi	r28, 0xA9	; 169
    2e92:	df 4f       	sbci	r29, 0xFF	; 255
    2e94:	0f b6       	in	r0, 0x3f	; 63
    2e96:	f8 94       	cli
    2e98:	de bf       	out	0x3e, r29	; 62
    2e9a:	0f be       	out	0x3f, r0	; 63
    2e9c:	cd bf       	out	0x3d, r28	; 61
    2e9e:	df 91       	pop	r29
    2ea0:	cf 91       	pop	r28
    2ea2:	1f 91       	pop	r17
    2ea4:	0f 91       	pop	r16
    2ea6:	ff 90       	pop	r15
    2ea8:	ef 90       	pop	r14
    2eaa:	df 90       	pop	r13
    2eac:	cf 90       	pop	r12
    2eae:	af 90       	pop	r10
    2eb0:	8f 90       	pop	r8
    2eb2:	7f 90       	pop	r7
    2eb4:	6f 90       	pop	r6
    2eb6:	08 95       	ret

00002eb8 <_ZN8GAPClass24setAdvertisedServiceDataEjPKhi>:
}

void GAPClass::setAdvertisedServiceData(uint16_t uuid, const uint8_t data[], int length)
{
    2eb8:	fc 01       	movw	r30, r24
    m_serviceDataUuid = uuid;
    2eba:	73 8b       	std	Z+19, r23	; 0x13
    2ebc:	62 8b       	std	Z+18, r22	; 0x12
    m_serviceData = data;
    2ebe:	57 87       	std	Z+15, r21	; 0x0f
    2ec0:	46 87       	std	Z+14, r20	; 0x0e
    m_serviceDataLength = length;
    2ec2:	31 8b       	std	Z+17, r19	; 0x11
    2ec4:	20 8b       	std	Z+16, r18	; 0x10
    2ec6:	08 95       	ret

00002ec8 <_GLOBAL__sub_I__ZN8GAPClassC2Ev>:
}

GAPClass x_gap;
    2ec8:	85 e7       	ldi	r24, 0x75	; 117
    2eca:	93 e0       	ldi	r25, 0x03	; 3
    2ecc:	a5 ce       	rjmp	.-694    	; 0x2c18 <_ZN8GAPClassC1Ev>
    2ece:	08 95       	ret

00002ed0 <_ZN9GATTClassC1Ev>:
{
    LocalService* localService = service.local();
    if (localService) {
        addService(localService);
    }
}
    2ed0:	6f 92       	push	r6
    2ed2:	7f 92       	push	r7
    2ed4:	8f 92       	push	r8
    2ed6:	9f 92       	push	r9
    2ed8:	af 92       	push	r10
    2eda:	bf 92       	push	r11
    2edc:	cf 92       	push	r12
    2ede:	df 92       	push	r13
    2ee0:	ef 92       	push	r14
    2ee2:	ff 92       	push	r15
    2ee4:	0f 93       	push	r16
    2ee6:	cf 93       	push	r28
    2ee8:	df 93       	push	r29
    2eea:	ec 01       	movw	r28, r24
    2eec:	82 ec       	ldi	r24, 0xC2	; 194
    2eee:	92 e0       	ldi	r25, 0x02	; 2
    2ef0:	fe 01       	movw	r30, r28
    2ef2:	81 93       	st	Z+, r24
    2ef4:	91 93       	st	Z+, r25
    2ef6:	7f 01       	movw	r14, r30
    2ef8:	6d e9       	ldi	r22, 0x9D	; 157
    2efa:	72 e0       	ldi	r23, 0x02	; 2
    2efc:	cf 01       	movw	r24, r30
    2efe:	0e 94 f5 05 	call	0xbea	; 0xbea <_ZN12LocalServiceC1EPKc>
    2f02:	4e 01       	movw	r8, r28
    2f04:	f3 e2       	ldi	r31, 0x23	; 35
    2f06:	8f 0e       	add	r8, r31
    2f08:	91 1c       	adc	r9, r1
    2f0a:	00 e0       	ldi	r16, 0x00	; 0
    2f0c:	24 e1       	ldi	r18, 0x14	; 20
    2f0e:	30 e0       	ldi	r19, 0x00	; 0
    2f10:	42 e0       	ldi	r20, 0x02	; 2
    2f12:	62 ea       	ldi	r22, 0xA2	; 162
    2f14:	72 e0       	ldi	r23, 0x02	; 2
    2f16:	c4 01       	movw	r24, r8
    2f18:	0e 94 13 03 	call	0x626	; 0x626 <_ZN19LocalCharacteristicC1EPKchib>
    2f1c:	5e 01       	movw	r10, r28
    2f1e:	85 e5       	ldi	r24, 0x55	; 85
    2f20:	a8 0e       	add	r10, r24
    2f22:	b1 1c       	adc	r11, r1
    2f24:	22 e0       	ldi	r18, 0x02	; 2
    2f26:	30 e0       	ldi	r19, 0x00	; 0
    2f28:	42 e0       	ldi	r20, 0x02	; 2
    2f2a:	67 ea       	ldi	r22, 0xA7	; 167
    2f2c:	72 e0       	ldi	r23, 0x02	; 2
    2f2e:	c5 01       	movw	r24, r10
    2f30:	0e 94 13 03 	call	0x626	; 0x626 <_ZN19LocalCharacteristicC1EPKchib>
    2f34:	6e 01       	movw	r12, r28
    2f36:	e7 e8       	ldi	r30, 0x87	; 135
    2f38:	ce 0e       	add	r12, r30
    2f3a:	d1 1c       	adc	r13, r1
    2f3c:	6c ea       	ldi	r22, 0xAC	; 172
    2f3e:	72 e0       	ldi	r23, 0x02	; 2
    2f40:	c6 01       	movw	r24, r12
    2f42:	0e 94 f5 05 	call	0xbea	; 0xbea <_ZN12LocalServiceC1EPKc>
    2f46:	3e 01       	movw	r6, r28
    2f48:	f8 ea       	ldi	r31, 0xA8	; 168
    2f4a:	6f 0e       	add	r6, r31
    2f4c:	71 1c       	adc	r7, r1
    2f4e:	24 e0       	ldi	r18, 0x04	; 4
    2f50:	30 e0       	ldi	r19, 0x00	; 0
    2f52:	40 e2       	ldi	r20, 0x20	; 32
    2f54:	61 eb       	ldi	r22, 0xB1	; 177
    2f56:	72 e0       	ldi	r23, 0x02	; 2
    2f58:	c3 01       	movw	r24, r6
    2f5a:	0e 94 13 03 	call	0x626	; 0x626 <_ZN19LocalCharacteristicC1EPKchib>
    2f5e:	c6 52       	subi	r28, 0x26	; 38
    2f60:	df 4f       	sbci	r29, 0xFF	; 255
    2f62:	19 82       	std	Y+1, r1	; 0x01
    2f64:	18 82       	st	Y, r1
    2f66:	1b 82       	std	Y+3, r1	; 0x03
    2f68:	1a 82       	std	Y+2, r1	; 0x02
    2f6a:	1d 82       	std	Y+5, r1	; 0x05
    2f6c:	1c 82       	std	Y+4, r1	; 0x04
    2f6e:	c7 01       	movw	r24, r14
    2f70:	0e 94 e8 06 	call	0xdd0	; 0xdd0 <_ZN12BLEAttribute6retainEv>
    2f74:	c6 01       	movw	r24, r12
    2f76:	0e 94 e8 06 	call	0xdd0	; 0xdd0 <_ZN12BLEAttribute6retainEv>
    2f7a:	b4 01       	movw	r22, r8
    2f7c:	c7 01       	movw	r24, r14
    2f7e:	0e 94 30 06 	call	0xc60	; 0xc60 <_ZN12LocalService17addCharacteristicEP19LocalCharacteristic>
    2f82:	b5 01       	movw	r22, r10
    2f84:	c7 01       	movw	r24, r14
    2f86:	0e 94 30 06 	call	0xc60	; 0xc60 <_ZN12LocalService17addCharacteristicEP19LocalCharacteristic>
    2f8a:	b3 01       	movw	r22, r6
    2f8c:	c6 01       	movw	r24, r12
    2f8e:	0e 94 30 06 	call	0xc60	; 0xc60 <_ZN12LocalService17addCharacteristicEP19LocalCharacteristic>
    2f92:	df 91       	pop	r29
    2f94:	cf 91       	pop	r28
    2f96:	0f 91       	pop	r16
    2f98:	ff 90       	pop	r15
    2f9a:	ef 90       	pop	r14
    2f9c:	df 90       	pop	r13
    2f9e:	cf 90       	pop	r12
    2fa0:	bf 90       	pop	r11
    2fa2:	af 90       	pop	r10
    2fa4:	9f 90       	pop	r9
    2fa6:	8f 90       	pop	r8
    2fa8:	7f 90       	pop	r7
    2faa:	6f 90       	pop	r6
    2fac:	08 95       	ret

00002fae <_ZN9GATTClass14attributeCountEv>:
    2fae:	86 52       	subi	r24, 0x26	; 38
    2fb0:	9f 4f       	sbci	r25, 0xFF	; 255
    2fb2:	fc 01       	movw	r30, r24
    2fb4:	80 81       	ld	r24, Z
    2fb6:	91 81       	ldd	r25, Z+1	; 0x01
    2fb8:	08 95       	ret

00002fba <_ZN9GATTClass9attributeEj>:
    2fba:	fc 01       	movw	r30, r24
    2fbc:	e6 52       	subi	r30, 0x26	; 38
    2fbe:	ff 4f       	sbci	r31, 0xFF	; 255
    2fc0:	20 81       	ld	r18, Z
    2fc2:	31 81       	ldd	r19, Z+1	; 0x01
    2fc4:	62 17       	cp	r22, r18
    2fc6:	73 07       	cpc	r23, r19
    2fc8:	90 f4       	brcc	.+36     	; 0x2fee <_ZN9GATTClass9attributeEj+0x34>
    2fca:	02 80       	ldd	r0, Z+2	; 0x02
    2fcc:	f3 81       	ldd	r31, Z+3	; 0x03
    2fce:	e0 2d       	mov	r30, r0
    2fd0:	61 15       	cp	r22, r1
    2fd2:	71 05       	cpc	r23, r1
    2fd4:	49 f0       	breq	.+18     	; 0x2fe8 <_ZN9GATTClass9attributeEj+0x2e>
    2fd6:	80 e0       	ldi	r24, 0x00	; 0
    2fd8:	90 e0       	ldi	r25, 0x00	; 0
    2fda:	02 80       	ldd	r0, Z+2	; 0x02
    2fdc:	f3 81       	ldd	r31, Z+3	; 0x03
    2fde:	e0 2d       	mov	r30, r0
    2fe0:	01 96       	adiw	r24, 0x01	; 1
    2fe2:	68 17       	cp	r22, r24
    2fe4:	79 07       	cpc	r23, r25
    2fe6:	c9 f7       	brne	.-14     	; 0x2fda <_ZN9GATTClass9attributeEj+0x20>
    2fe8:	80 81       	ld	r24, Z
    2fea:	91 81       	ldd	r25, Z+1	; 0x01
    2fec:	08 95       	ret
    2fee:	80 e0       	ldi	r24, 0x00	; 0
    2ff0:	90 e0       	ldi	r25, 0x00	; 0
    2ff2:	08 95       	ret

00002ff4 <_ZN9GATTClass28serviceUuidForCharacteristicEP19LocalCharacteristic>:
    2ff4:	8f 92       	push	r8
    2ff6:	9f 92       	push	r9
    2ff8:	af 92       	push	r10
    2ffa:	bf 92       	push	r11
    2ffc:	cf 92       	push	r12
    2ffe:	df 92       	push	r13
    3000:	ef 92       	push	r14
    3002:	ff 92       	push	r15
    3004:	0f 93       	push	r16
    3006:	1f 93       	push	r17
    3008:	cf 93       	push	r28
    300a:	df 93       	push	r29
    300c:	fc 01       	movw	r30, r24
    300e:	e6 52       	subi	r30, 0x26	; 38
    3010:	ff 4f       	sbci	r31, 0xFF	; 255
    3012:	20 81       	ld	r18, Z
    3014:	31 81       	ldd	r19, Z+1	; 0x01
    3016:	23 2b       	or	r18, r19
    3018:	b9 f1       	breq	.+110    	; 0x3088 <_ZN9GATTClass28serviceUuidForCharacteristicEP19LocalCharacteristic+0x94>
    301a:	5b 01       	movw	r10, r22
    301c:	7c 01       	movw	r14, r24
    301e:	00 e0       	ldi	r16, 0x00	; 0
    3020:	10 e0       	ldi	r17, 0x00	; 0
    3022:	81 2c       	mov	r8, r1
    3024:	91 2c       	mov	r9, r1
    3026:	6f 01       	movw	r12, r30
    3028:	b8 01       	movw	r22, r16
    302a:	c7 01       	movw	r24, r14
    302c:	c6 df       	rcall	.-116    	; 0x2fba <_ZN9GATTClass9attributeEj>
    302e:	ec 01       	movw	r28, r24
    3030:	e8 81       	ld	r30, Y
    3032:	f9 81       	ldd	r31, Y+1	; 0x01
    3034:	04 80       	ldd	r0, Z+4	; 0x04
    3036:	f5 81       	ldd	r31, Z+5	; 0x05
    3038:	e0 2d       	mov	r30, r0
    303a:	09 95       	icall
    303c:	81 15       	cp	r24, r1
    303e:	98 42       	sbci	r25, 0x28	; 40
    3040:	21 f0       	breq	.+8      	; 0x304a <_ZN9GATTClass28serviceUuidForCharacteristicEP19LocalCharacteristic+0x56>
    3042:	ca 15       	cp	r28, r10
    3044:	db 05       	cpc	r29, r11
    3046:	11 f4       	brne	.+4      	; 0x304c <_ZN9GATTClass28serviceUuidForCharacteristicEP19LocalCharacteristic+0x58>
    3048:	09 c0       	rjmp	.+18     	; 0x305c <_ZN9GATTClass28serviceUuidForCharacteristicEP19LocalCharacteristic+0x68>
    304a:	4e 01       	movw	r8, r28
    304c:	0f 5f       	subi	r16, 0xFF	; 255
    304e:	1f 4f       	sbci	r17, 0xFF	; 255
    3050:	f6 01       	movw	r30, r12
    3052:	80 81       	ld	r24, Z
    3054:	91 81       	ldd	r25, Z+1	; 0x01
    3056:	08 17       	cp	r16, r24
    3058:	19 07       	cpc	r17, r25
    305a:	30 f3       	brcs	.-52     	; 0x3028 <_ZN9GATTClass28serviceUuidForCharacteristicEP19LocalCharacteristic+0x34>
    305c:	81 14       	cp	r8, r1
    305e:	91 04       	cpc	r9, r1
    3060:	b1 f0       	breq	.+44     	; 0x308e <_ZN9GATTClass28serviceUuidForCharacteristicEP19LocalCharacteristic+0x9a>
    3062:	c4 01       	movw	r24, r8
    3064:	0e 94 e5 06 	call	0xdca	; 0xdca <_ZN12BLEAttribute10uuidLengthEv>
    3068:	82 30       	cpi	r24, 0x02	; 2
    306a:	39 f4       	brne	.+14     	; 0x307a <_ZN9GATTClass28serviceUuidForCharacteristicEP19LocalCharacteristic+0x86>
    306c:	c4 01       	movw	r24, r8
    306e:	0e 94 e2 06 	call	0xdc4	; 0xdc4 <_ZN12BLEAttribute8uuidDataEv>
    3072:	fc 01       	movw	r30, r24
    3074:	80 81       	ld	r24, Z
    3076:	91 81       	ldd	r25, Z+1	; 0x01
    3078:	0c c0       	rjmp	.+24     	; 0x3092 <_ZN9GATTClass28serviceUuidForCharacteristicEP19LocalCharacteristic+0x9e>
    307a:	c4 01       	movw	r24, r8
    307c:	0e 94 e2 06 	call	0xdc4	; 0xdc4 <_ZN12BLEAttribute8uuidDataEv>
    3080:	fc 01       	movw	r30, r24
    3082:	82 85       	ldd	r24, Z+10	; 0x0a
    3084:	93 85       	ldd	r25, Z+11	; 0x0b
    3086:	05 c0       	rjmp	.+10     	; 0x3092 <_ZN9GATTClass28serviceUuidForCharacteristicEP19LocalCharacteristic+0x9e>
    3088:	80 e0       	ldi	r24, 0x00	; 0
    308a:	90 e0       	ldi	r25, 0x00	; 0
    308c:	02 c0       	rjmp	.+4      	; 0x3092 <_ZN9GATTClass28serviceUuidForCharacteristicEP19LocalCharacteristic+0x9e>
    308e:	80 e0       	ldi	r24, 0x00	; 0
    3090:	90 e0       	ldi	r25, 0x00	; 0
    3092:	df 91       	pop	r29
    3094:	cf 91       	pop	r28
    3096:	1f 91       	pop	r17
    3098:	0f 91       	pop	r16
    309a:	ff 90       	pop	r15
    309c:	ef 90       	pop	r14
    309e:	df 90       	pop	r13
    30a0:	cf 90       	pop	r12
    30a2:	bf 90       	pop	r11
    30a4:	af 90       	pop	r10
    30a6:	9f 90       	pop	r9
    30a8:	8f 90       	pop	r8
    30aa:	08 95       	ret

000030ac <_ZN10LinkedListIP12BLEAttributeE5clearEv>:
    30ac:	ef 92       	push	r14
    30ae:	ff 92       	push	r15
    30b0:	0f 93       	push	r16
    30b2:	1f 93       	push	r17
    30b4:	cf 93       	push	r28
    30b6:	df 93       	push	r29
    30b8:	7c 01       	movw	r14, r24
    30ba:	fc 01       	movw	r30, r24
    30bc:	82 81       	ldd	r24, Z+2	; 0x02
    30be:	93 81       	ldd	r25, Z+3	; 0x03
    30c0:	20 81       	ld	r18, Z
    30c2:	31 81       	ldd	r19, Z+1	; 0x01
    30c4:	23 2b       	or	r18, r19
    30c6:	81 f0       	breq	.+32     	; 0x30e8 <_ZN10LinkedListIP12BLEAttributeE5clearEv+0x3c>
    30c8:	c0 e0       	ldi	r28, 0x00	; 0
    30ca:	d0 e0       	ldi	r29, 0x00	; 0
    30cc:	fc 01       	movw	r30, r24
    30ce:	02 81       	ldd	r16, Z+2	; 0x02
    30d0:	13 81       	ldd	r17, Z+3	; 0x03
    30d2:	0e 94 de 23 	call	0x47bc	; 0x47bc <_ZdlPv>
    30d6:	21 96       	adiw	r28, 0x01	; 1
    30d8:	80 2f       	mov	r24, r16
    30da:	91 2f       	mov	r25, r17
    30dc:	f7 01       	movw	r30, r14
    30de:	20 81       	ld	r18, Z
    30e0:	31 81       	ldd	r19, Z+1	; 0x01
    30e2:	c2 17       	cp	r28, r18
    30e4:	d3 07       	cpc	r29, r19
    30e6:	90 f3       	brcs	.-28     	; 0x30cc <_ZN10LinkedListIP12BLEAttributeE5clearEv+0x20>
    30e8:	f7 01       	movw	r30, r14
    30ea:	11 82       	std	Z+1, r1	; 0x01
    30ec:	10 82       	st	Z, r1
    30ee:	13 82       	std	Z+3, r1	; 0x03
    30f0:	12 82       	std	Z+2, r1	; 0x02
    30f2:	15 82       	std	Z+5, r1	; 0x05
    30f4:	14 82       	std	Z+4, r1	; 0x04
    30f6:	df 91       	pop	r29
    30f8:	cf 91       	pop	r28
    30fa:	1f 91       	pop	r17
    30fc:	0f 91       	pop	r16
    30fe:	ff 90       	pop	r15
    3100:	ef 90       	pop	r14
    3102:	08 95       	ret

00003104 <_ZN9GATTClass15clearAttributesEv>:
    3104:	cf 92       	push	r12
    3106:	df 92       	push	r13
    3108:	ef 92       	push	r14
    310a:	ff 92       	push	r15
    310c:	0f 93       	push	r16
    310e:	1f 93       	push	r17
    3110:	cf 93       	push	r28
    3112:	df 93       	push	r29
    3114:	7c 01       	movw	r14, r24
    3116:	fc 01       	movw	r30, r24
    3118:	e6 52       	subi	r30, 0x26	; 38
    311a:	ff 4f       	sbci	r31, 0xFF	; 255
    311c:	80 81       	ld	r24, Z
    311e:	91 81       	ldd	r25, Z+1	; 0x01
    3120:	89 2b       	or	r24, r25
    3122:	f1 f0       	breq	.+60     	; 0x3160 <_ZN9GATTClass15clearAttributesEv+0x5c>
    3124:	c0 e0       	ldi	r28, 0x00	; 0
    3126:	d0 e0       	ldi	r29, 0x00	; 0
    3128:	6f 01       	movw	r12, r30
    312a:	be 01       	movw	r22, r28
    312c:	c7 01       	movw	r24, r14
    312e:	45 df       	rcall	.-374    	; 0x2fba <_ZN9GATTClass9attributeEj>
    3130:	8c 01       	movw	r16, r24
    3132:	0e 94 f0 06 	call	0xde0	; 0xde0 <_ZN12BLEAttribute7releaseEv>
    3136:	18 16       	cp	r1, r24
    3138:	19 06       	cpc	r1, r25
    313a:	5c f0       	brlt	.+22     	; 0x3152 <_ZN9GATTClass15clearAttributesEv+0x4e>
    313c:	01 15       	cp	r16, r1
    313e:	11 05       	cpc	r17, r1
    3140:	41 f0       	breq	.+16     	; 0x3152 <_ZN9GATTClass15clearAttributesEv+0x4e>
    3142:	d8 01       	movw	r26, r16
    3144:	ed 91       	ld	r30, X+
    3146:	fc 91       	ld	r31, X
    3148:	02 80       	ldd	r0, Z+2	; 0x02
    314a:	f3 81       	ldd	r31, Z+3	; 0x03
    314c:	e0 2d       	mov	r30, r0
    314e:	c8 01       	movw	r24, r16
    3150:	09 95       	icall
    3152:	21 96       	adiw	r28, 0x01	; 1
    3154:	f6 01       	movw	r30, r12
    3156:	80 81       	ld	r24, Z
    3158:	91 81       	ldd	r25, Z+1	; 0x01
    315a:	c8 17       	cp	r28, r24
    315c:	d9 07       	cpc	r29, r25
    315e:	28 f3       	brcs	.-54     	; 0x312a <_ZN9GATTClass15clearAttributesEv+0x26>
    3160:	c7 01       	movw	r24, r14
    3162:	86 52       	subi	r24, 0x26	; 38
    3164:	9f 4f       	sbci	r25, 0xFF	; 255
    3166:	a2 df       	rcall	.-188    	; 0x30ac <_ZN10LinkedListIP12BLEAttributeE5clearEv>
    3168:	df 91       	pop	r29
    316a:	cf 91       	pop	r28
    316c:	1f 91       	pop	r17
    316e:	0f 91       	pop	r16
    3170:	ff 90       	pop	r15
    3172:	ef 90       	pop	r14
    3174:	df 90       	pop	r13
    3176:	cf 90       	pop	r12
    3178:	08 95       	ret

0000317a <_GLOBAL__sub_I__ZN9GATTClassC2Ev>:
        }
    }
    m_attributes.clear();
}

GATTClass x_gatt;
    317a:	89 e8       	ldi	r24, 0x89	; 137
    317c:	93 e0       	ldi	r25, 0x03	; 3
    317e:	a8 ce       	rjmp	.-688    	; 0x2ed0 <_ZN9GATTClassC1Ev>
    3180:	08 95       	ret

00003182 <_ZN9GATTClassD1Ev>:
    m_genericAccessService.addCharacteristic(&m_deviceNameCharacteristic);
    m_genericAccessService.addCharacteristic(&m_appearanceCharacteristic);
    m_genericAttributeService.addCharacteristic(&m_servicesChangedCharacteristic);
}

GATTClass::~GATTClass()
    3182:	cf 93       	push	r28
    3184:	df 93       	push	r29
    3186:	ec 01       	movw	r28, r24
    3188:	82 ec       	ldi	r24, 0xC2	; 194
    318a:	92 e0       	ldi	r25, 0x02	; 2
    318c:	99 83       	std	Y+1, r25	; 0x01
    318e:	88 83       	st	Y, r24
{
    clearAttributes();
    3190:	ce 01       	movw	r24, r28
    3192:	b8 df       	rcall	.-144    	; 0x3104 <_ZN9GATTClass15clearAttributesEv>
    3194:	ce 01       	movw	r24, r28
    3196:	86 52       	subi	r24, 0x26	; 38
    3198:	9f 4f       	sbci	r25, 0xFF	; 255
    319a:	88 df       	rcall	.-240    	; 0x30ac <_ZN10LinkedListIP12BLEAttributeE5clearEv>
    m_genericAccessService.addCharacteristic(&m_deviceNameCharacteristic);
    m_genericAccessService.addCharacteristic(&m_appearanceCharacteristic);
    m_genericAttributeService.addCharacteristic(&m_servicesChangedCharacteristic);
}

GATTClass::~GATTClass()
    319c:	ce 01       	movw	r24, r28
    319e:	88 55       	subi	r24, 0x58	; 88
    31a0:	9f 4f       	sbci	r25, 0xFF	; 255
    31a2:	0e 94 8d 03 	call	0x71a	; 0x71a <_ZN19LocalCharacteristicD1Ev>
    31a6:	ce 01       	movw	r24, r28
    31a8:	89 57       	subi	r24, 0x79	; 121
    31aa:	9f 4f       	sbci	r25, 0xFF	; 255
    31ac:	0e 94 84 06 	call	0xd08	; 0xd08 <_ZN12LocalServiceD1Ev>
    31b0:	ce 01       	movw	r24, r28
    31b2:	8b 5a       	subi	r24, 0xAB	; 171
    31b4:	9f 4f       	sbci	r25, 0xFF	; 255
    31b6:	0e 94 8d 03 	call	0x71a	; 0x71a <_ZN19LocalCharacteristicD1Ev>
    31ba:	ce 01       	movw	r24, r28
    31bc:	83 96       	adiw	r24, 0x23	; 35
    31be:	0e 94 8d 03 	call	0x71a	; 0x71a <_ZN19LocalCharacteristicD1Ev>
    31c2:	ce 01       	movw	r24, r28
    31c4:	02 96       	adiw	r24, 0x02	; 2
    31c6:	0e 94 84 06 	call	0xd08	; 0xd08 <_ZN12LocalServiceD1Ev>
{
    clearAttributes();
}
    31ca:	df 91       	pop	r29
    31cc:	cf 91       	pop	r28
    31ce:	08 95       	ret

000031d0 <_ZN9GATTClassD0Ev>:
    m_genericAccessService.addCharacteristic(&m_deviceNameCharacteristic);
    m_genericAccessService.addCharacteristic(&m_appearanceCharacteristic);
    m_genericAttributeService.addCharacteristic(&m_servicesChangedCharacteristic);
}

GATTClass::~GATTClass()
    31d0:	cf 93       	push	r28
    31d2:	df 93       	push	r29
    31d4:	ec 01       	movw	r28, r24
{
    clearAttributes();
}
    31d6:	d5 df       	rcall	.-86     	; 0x3182 <_ZN9GATTClassD1Ev>
    31d8:	ce 01       	movw	r24, r28
    31da:	0e 94 de 23 	call	0x47bc	; 0x47bc <_ZdlPv>
    31de:	df 91       	pop	r29
    31e0:	cf 91       	pop	r28
    31e2:	08 95       	ret

000031e4 <_GLOBAL__sub_D__ZN9GATTClassC2Ev>:
        }
    }
    m_attributes.clear();
}

GATTClass x_gatt;
    31e4:	89 e8       	ldi	r24, 0x89	; 137
    31e6:	93 e0       	ldi	r25, 0x03	; 3
    31e8:	cc cf       	rjmp	.-104    	; 0x3182 <_ZN9GATTClassD1Ev>
    31ea:	08 95       	ret

000031ec <_ZN8HCIClassD1Ev>:
    }
}

void HCIClass::dumpPacket(const char* prefix, uint8_t plen, uint8_t pdata[])
{
    for (uint8_t i = 0; i < plen; i++) {
    31ec:	08 95       	ret

000031ee <_ZN8HCIClassD0Ev>:
    31ee:	0c 94 de 23 	jmp	0x47bc	; 0x47bc <_ZdlPv>
    31f2:	08 95       	ret

000031f4 <_ZN8HCIClass20handleNumCompPacketsEjj>:
    31f4:	41 15       	cp	r20, r1
    31f6:	51 05       	cpc	r21, r1
    31f8:	61 f0       	breq	.+24     	; 0x3212 <_ZN8HCIClass20handleNumCompPacketsEjj+0x1e>
    31fa:	fc 01       	movw	r30, r24
    31fc:	e2 5f       	subi	r30, 0xF2	; 242
    31fe:	fe 4f       	sbci	r31, 0xFE	; 254
    3200:	20 81       	ld	r18, Z
    3202:	62 2f       	mov	r22, r18
    3204:	70 e0       	ldi	r23, 0x00	; 0
    3206:	46 17       	cp	r20, r22
    3208:	57 07       	cpc	r21, r23
    320a:	18 f4       	brcc	.+6      	; 0x3212 <_ZN8HCIClass20handleNumCompPacketsEjj+0x1e>
    320c:	24 1b       	sub	r18, r20
    320e:	20 83       	st	Z, r18
    3210:	08 95       	ret
    3212:	fc 01       	movw	r30, r24
    3214:	e2 5f       	subi	r30, 0xF2	; 242
    3216:	fe 4f       	sbci	r31, 0xFE	; 254
    3218:	10 82       	st	Z, r1
    321a:	08 95       	ret

0000321c <_ZN8HCIClass17handleEventPacketEhPh>:
    321c:	6f 92       	push	r6
    321e:	7f 92       	push	r7
    3220:	8f 92       	push	r8
    3222:	af 92       	push	r10
    3224:	bf 92       	push	r11
    3226:	cf 92       	push	r12
    3228:	df 92       	push	r13
    322a:	ef 92       	push	r14
    322c:	ff 92       	push	r15
    322e:	0f 93       	push	r16
    3230:	1f 93       	push	r17
    3232:	cf 93       	push	r28
    3234:	df 93       	push	r29
    3236:	7c 01       	movw	r14, r24
    3238:	ea 01       	movw	r28, r20
    323a:	88 81       	ld	r24, Y
    323c:	85 30       	cpi	r24, 0x05	; 5
    323e:	99 f4       	brne	.+38     	; 0x3266 <_ZN8HCIClass17handleEventPacketEhPh+0x4a>
    3240:	4d 81       	ldd	r20, Y+5	; 0x05
    3242:	50 e0       	ldi	r21, 0x00	; 0
    3244:	6b 81       	ldd	r22, Y+3	; 0x03
    3246:	8c e5       	ldi	r24, 0x5C	; 92
    3248:	93 e0       	ldi	r25, 0x03	; 3
    324a:	0e 94 b0 09 	call	0x1360	; 0x1360 <_ZN8ATTClass16removeConnectionEhj>
    324e:	4d 81       	ldd	r20, Y+5	; 0x05
    3250:	50 e0       	ldi	r21, 0x00	; 0
    3252:	6b 81       	ldd	r22, Y+3	; 0x03
    3254:	7c 81       	ldd	r23, Y+4	; 0x04
    3256:	80 e8       	ldi	r24, 0x80	; 128
    3258:	95 e0       	ldi	r25, 0x05	; 5
    325a:	53 d4       	rcall	.+2214   	; 0x3b02 <_ZN19L2CAPSignalingClass16removeConnectionEjj>
    325c:	61 e0       	ldi	r22, 0x01	; 1
    325e:	89 e6       	ldi	r24, 0x69	; 105
    3260:	94 e0       	ldi	r25, 0x04	; 4
    3262:	20 d3       	rcall	.+1600   	; 0x38a4 <_ZN8HCIClass20setLeAdvertiseEnableEh>
    3264:	53 c0       	rjmp	.+166    	; 0x330c <_ZN8HCIClass17handleEventPacketEhPh+0xf0>
    3266:	8e 30       	cpi	r24, 0x0E	; 14
    3268:	a9 f4       	brne	.+42     	; 0x3294 <_ZN8HCIClass17handleEventPacketEhPh+0x78>
    326a:	8b 81       	ldd	r24, Y+3	; 0x03
    326c:	9c 81       	ldd	r25, Y+4	; 0x04
    326e:	f7 01       	movw	r30, r14
    3270:	ea 5f       	subi	r30, 0xFA	; 250
    3272:	fe 4f       	sbci	r31, 0xFE	; 254
    3274:	91 83       	std	Z+1, r25	; 0x01
    3276:	80 83       	st	Z, r24
    3278:	32 96       	adiw	r30, 0x02	; 2
    327a:	8d 81       	ldd	r24, Y+5	; 0x05
    327c:	90 e0       	ldi	r25, 0x00	; 0
    327e:	91 83       	std	Z+1, r25	; 0x01
    3280:	80 83       	st	Z, r24
    3282:	32 96       	adiw	r30, 0x02	; 2
    3284:	89 81       	ldd	r24, Y+1	; 0x01
    3286:	84 50       	subi	r24, 0x04	; 4
    3288:	80 83       	st	Z, r24
    328a:	31 96       	adiw	r30, 0x01	; 1
    328c:	26 96       	adiw	r28, 0x06	; 6
    328e:	d1 83       	std	Z+1, r29	; 0x01
    3290:	c0 83       	st	Z, r28
    3292:	3c c0       	rjmp	.+120    	; 0x330c <_ZN8HCIClass17handleEventPacketEhPh+0xf0>
    3294:	83 31       	cpi	r24, 0x13	; 19
    3296:	81 f4       	brne	.+32     	; 0x32b8 <_ZN8HCIClass17handleEventPacketEhPh+0x9c>
    3298:	0a 81       	ldd	r16, Y+2	; 0x02
    329a:	23 96       	adiw	r28, 0x03	; 3
    329c:	00 23       	and	r16, r16
    329e:	b1 f1       	breq	.+108    	; 0x330c <_ZN8HCIClass17handleEventPacketEhPh+0xf0>
    32a0:	10 e0       	ldi	r17, 0x00	; 0
    32a2:	4a 81       	ldd	r20, Y+2	; 0x02
    32a4:	5b 81       	ldd	r21, Y+3	; 0x03
    32a6:	68 81       	ld	r22, Y
    32a8:	79 81       	ldd	r23, Y+1	; 0x01
    32aa:	c7 01       	movw	r24, r14
    32ac:	a3 df       	rcall	.-186    	; 0x31f4 <_ZN8HCIClass20handleNumCompPacketsEjj>
    32ae:	24 96       	adiw	r28, 0x04	; 4
    32b0:	1f 5f       	subi	r17, 0xFF	; 255
    32b2:	01 13       	cpse	r16, r17
    32b4:	f6 cf       	rjmp	.-20     	; 0x32a2 <_ZN8HCIClass17handleEventPacketEhPh+0x86>
    32b6:	2a c0       	rjmp	.+84     	; 0x330c <_ZN8HCIClass17handleEventPacketEhPh+0xf0>
    32b8:	8e 33       	cpi	r24, 0x3E	; 62
    32ba:	41 f5       	brne	.+80     	; 0x330c <_ZN8HCIClass17handleEventPacketEhPh+0xf0>
    32bc:	8a 81       	ldd	r24, Y+2	; 0x02
    32be:	81 30       	cpi	r24, 0x01	; 1
    32c0:	29 f5       	brne	.+74     	; 0x330c <_ZN8HCIClass17handleEventPacketEhPh+0xf0>
    32c2:	8b 81       	ldd	r24, Y+3	; 0x03
    32c4:	81 11       	cpse	r24, r1
    32c6:	22 c0       	rjmp	.+68     	; 0x330c <_ZN8HCIClass17handleEventPacketEhPh+0xf0>
    32c8:	3a 01       	movw	r6, r20
    32ca:	88 e0       	ldi	r24, 0x08	; 8
    32cc:	68 0e       	add	r6, r24
    32ce:	71 1c       	adc	r7, r1
    32d0:	aa 88       	ldd	r10, Y+18	; 0x12
    32d2:	bb 88       	ldd	r11, Y+19	; 0x13
    32d4:	c8 88       	ldd	r12, Y+16	; 0x10
    32d6:	d9 88       	ldd	r13, Y+17	; 0x11
    32d8:	ee 84       	ldd	r14, Y+14	; 0x0e
    32da:	ff 84       	ldd	r15, Y+15	; 0x0f
    32dc:	6c 81       	ldd	r22, Y+4	; 0x04
    32de:	7d 81       	ldd	r23, Y+5	; 0x05
    32e0:	8c 88       	ldd	r8, Y+20	; 0x14
    32e2:	83 01       	movw	r16, r6
    32e4:	2f 81       	ldd	r18, Y+7	; 0x07
    32e6:	4e 81       	ldd	r20, Y+6	; 0x06
    32e8:	8c e5       	ldi	r24, 0x5C	; 92
    32ea:	93 e0       	ldi	r25, 0x03	; 3
    32ec:	0e 94 76 09 	call	0x12ec	; 0x12ec <_ZN8ATTClass13addConnectionEjhhPhjjjh>
    32f0:	aa 88       	ldd	r10, Y+18	; 0x12
    32f2:	bb 88       	ldd	r11, Y+19	; 0x13
    32f4:	c8 88       	ldd	r12, Y+16	; 0x10
    32f6:	d9 88       	ldd	r13, Y+17	; 0x11
    32f8:	ee 84       	ldd	r14, Y+14	; 0x0e
    32fa:	ff 84       	ldd	r15, Y+15	; 0x0f
    32fc:	6c 81       	ldd	r22, Y+4	; 0x04
    32fe:	7d 81       	ldd	r23, Y+5	; 0x05
    3300:	8c 88       	ldd	r8, Y+20	; 0x14
    3302:	2f 81       	ldd	r18, Y+7	; 0x07
    3304:	4e 81       	ldd	r20, Y+6	; 0x06
    3306:	80 e8       	ldi	r24, 0x80	; 128
    3308:	95 e0       	ldi	r25, 0x05	; 5
    330a:	b1 d3       	rcall	.+1890   	; 0x3a6e <_ZN19L2CAPSignalingClass13addConnectionEjhhPhjjjh>
    330c:	df 91       	pop	r29
    330e:	cf 91       	pop	r28
    3310:	1f 91       	pop	r17
    3312:	0f 91       	pop	r16
    3314:	ff 90       	pop	r15
    3316:	ef 90       	pop	r14
    3318:	df 90       	pop	r13
    331a:	cf 90       	pop	r12
    331c:	bf 90       	pop	r11
    331e:	af 90       	pop	r10
    3320:	8f 90       	pop	r8
    3322:	7f 90       	pop	r7
    3324:	6f 90       	pop	r6
    3326:	08 95       	ret

00003328 <_ZN8HCIClass4pollEm>:
    3328:	ef 92       	push	r14
    332a:	ff 92       	push	r15
    332c:	0f 93       	push	r16
    332e:	1f 93       	push	r17
    3330:	cf 93       	push	r28
    3332:	df 93       	push	r29
    3334:	ec 01       	movw	r28, r24
    3336:	41 15       	cp	r20, r1
    3338:	51 05       	cpc	r21, r1
    333a:	61 05       	cpc	r22, r1
    333c:	71 05       	cpc	r23, r1
    333e:	59 f0       	breq	.+22     	; 0x3356 <_ZN8HCIClass4pollEm+0x2e>
    3340:	80 91 e4 02 	lds	r24, 0x02E4	; 0x8002e4 <x_hciTransport>
    3344:	90 91 e5 02 	lds	r25, 0x02E5	; 0x8002e5 <x_hciTransport+0x1>
    3348:	dc 01       	movw	r26, r24
    334a:	ed 91       	ld	r30, X+
    334c:	fc 91       	ld	r31, X
    334e:	04 80       	ldd	r0, Z+4	; 0x04
    3350:	f5 81       	ldd	r31, Z+5	; 0x05
    3352:	e0 2d       	mov	r30, r0
    3354:	09 95       	icall
    3356:	00 91 e4 02 	lds	r16, 0x02E4	; 0x8002e4 <x_hciTransport>
    335a:	10 91 e5 02 	lds	r17, 0x02E5	; 0x8002e5 <x_hciTransport+0x1>
    335e:	7e 01       	movw	r14, r28
    3360:	b5 e0       	ldi	r27, 0x05	; 5
    3362:	eb 0e       	add	r14, r27
    3364:	f1 1c       	adc	r15, r1
    3366:	d8 01       	movw	r26, r16
    3368:	ed 91       	ld	r30, X+
    336a:	fc 91       	ld	r31, X
    336c:	06 80       	ldd	r0, Z+6	; 0x06
    336e:	f7 81       	ldd	r31, Z+7	; 0x07
    3370:	e0 2d       	mov	r30, r0
    3372:	c8 01       	movw	r24, r16
    3374:	09 95       	icall
    3376:	89 2b       	or	r24, r25
    3378:	09 f4       	brne	.+2      	; 0x337c <_ZN8HCIClass4pollEm+0x54>
    337a:	3f c0       	rjmp	.+126    	; 0x33fa <_ZN8HCIClass4pollEm+0xd2>
    337c:	d8 01       	movw	r26, r16
    337e:	ed 91       	ld	r30, X+
    3380:	fc 91       	ld	r31, X
    3382:	02 84       	ldd	r0, Z+10	; 0x0a
    3384:	f3 85       	ldd	r31, Z+11	; 0x0b
    3386:	e0 2d       	mov	r30, r0
    3388:	c8 01       	movw	r24, r16
    338a:	09 95       	icall
    338c:	6a 81       	ldd	r22, Y+2	; 0x02
    338e:	7b 81       	ldd	r23, Y+3	; 0x03
    3390:	9b 01       	movw	r18, r22
    3392:	2f 5f       	subi	r18, 0xFF	; 255
    3394:	3f 4f       	sbci	r19, 0xFF	; 255
    3396:	3b 83       	std	Y+3, r19	; 0x03
    3398:	2a 83       	std	Y+2, r18	; 0x02
    339a:	fe 01       	movw	r30, r28
    339c:	e6 0f       	add	r30, r22
    339e:	f7 1f       	adc	r31, r23
    33a0:	84 83       	std	Z+4, r24	; 0x04
    33a2:	8c 81       	ldd	r24, Y+4	; 0x04
    33a4:	82 30       	cpi	r24, 0x02	; 2
    33a6:	a1 f4       	brne	.+40     	; 0x33d0 <_ZN8HCIClass4pollEm+0xa8>
    33a8:	26 30       	cpi	r18, 0x06	; 6
    33aa:	31 05       	cpc	r19, r1
    33ac:	e4 f2       	brlt	.-72     	; 0x3366 <_ZN8HCIClass4pollEm+0x3e>
    33ae:	88 85       	ldd	r24, Y+8	; 0x08
    33b0:	90 e0       	ldi	r25, 0x00	; 0
    33b2:	98 2f       	mov	r25, r24
    33b4:	88 27       	eor	r24, r24
    33b6:	4f 81       	ldd	r20, Y+7	; 0x07
    33b8:	84 0f       	add	r24, r20
    33ba:	91 1d       	adc	r25, r1
    33bc:	05 96       	adiw	r24, 0x05	; 5
    33be:	28 17       	cp	r18, r24
    33c0:	39 07       	cpc	r19, r25
    33c2:	8c f2       	brlt	.-94     	; 0x3366 <_ZN8HCIClass4pollEm+0x3e>
    33c4:	1b 82       	std	Y+3, r1	; 0x03
    33c6:	1a 82       	std	Y+2, r1	; 0x02
    33c8:	a7 01       	movw	r20, r14
    33ca:	ce 01       	movw	r24, r28
    33cc:	ad d0       	rcall	.+346    	; 0x3528 <_ZN8HCIClass19handleAclDataPacketEhPh>
    33ce:	cb cf       	rjmp	.-106    	; 0x3366 <_ZN8HCIClass4pollEm+0x3e>
    33d0:	84 30       	cpi	r24, 0x04	; 4
    33d2:	81 f4       	brne	.+32     	; 0x33f4 <_ZN8HCIClass4pollEm+0xcc>
    33d4:	24 30       	cpi	r18, 0x04	; 4
    33d6:	31 05       	cpc	r19, r1
    33d8:	34 f2       	brlt	.-116    	; 0x3366 <_ZN8HCIClass4pollEm+0x3e>
    33da:	8e 81       	ldd	r24, Y+6	; 0x06
    33dc:	90 e0       	ldi	r25, 0x00	; 0
    33de:	03 96       	adiw	r24, 0x03	; 3
    33e0:	28 17       	cp	r18, r24
    33e2:	39 07       	cpc	r19, r25
    33e4:	0c f4       	brge	.+2      	; 0x33e8 <_ZN8HCIClass4pollEm+0xc0>
    33e6:	bf cf       	rjmp	.-130    	; 0x3366 <_ZN8HCIClass4pollEm+0x3e>
    33e8:	1b 82       	std	Y+3, r1	; 0x03
    33ea:	1a 82       	std	Y+2, r1	; 0x02
    33ec:	a7 01       	movw	r20, r14
    33ee:	ce 01       	movw	r24, r28
    33f0:	15 df       	rcall	.-470    	; 0x321c <_ZN8HCIClass17handleEventPacketEhPh>
    33f2:	b9 cf       	rjmp	.-142    	; 0x3366 <_ZN8HCIClass4pollEm+0x3e>
    33f4:	1b 82       	std	Y+3, r1	; 0x03
    33f6:	1a 82       	std	Y+2, r1	; 0x02
    33f8:	b6 cf       	rjmp	.-148    	; 0x3366 <_ZN8HCIClass4pollEm+0x3e>
    33fa:	df 91       	pop	r29
    33fc:	cf 91       	pop	r28
    33fe:	1f 91       	pop	r17
    3400:	0f 91       	pop	r16
    3402:	ff 90       	pop	r15
    3404:	ef 90       	pop	r14
    3406:	08 95       	ret

00003408 <_ZN8HCIClass4pollEv>:
    3408:	40 e0       	ldi	r20, 0x00	; 0
    340a:	50 e0       	ldi	r21, 0x00	; 0
    340c:	ba 01       	movw	r22, r20
    340e:	8c cf       	rjmp	.-232    	; 0x3328 <_ZN8HCIClass4pollEm>
    3410:	08 95       	ret

00003412 <_ZN8HCIClass13sendAclPacketEjhhPv>:
    3412:	3f 92       	push	r3
    3414:	4f 92       	push	r4
    3416:	5f 92       	push	r5
    3418:	6f 92       	push	r6
    341a:	7f 92       	push	r7
    341c:	8f 92       	push	r8
    341e:	9f 92       	push	r9
    3420:	af 92       	push	r10
    3422:	bf 92       	push	r11
    3424:	cf 92       	push	r12
    3426:	df 92       	push	r13
    3428:	ef 92       	push	r14
    342a:	ff 92       	push	r15
    342c:	0f 93       	push	r16
    342e:	1f 93       	push	r17
    3430:	cf 93       	push	r28
    3432:	df 93       	push	r29
    3434:	cd b7       	in	r28, 0x3d	; 61
    3436:	de b7       	in	r29, 0x3e	; 62
    3438:	7c 01       	movw	r14, r24
    343a:	3b 01       	movw	r6, r22
    343c:	44 2e       	mov	r4, r20
    343e:	52 2e       	mov	r5, r18
    3440:	8d b6       	in	r8, 0x3d	; 61
    3442:	9e b6       	in	r9, 0x3e	; 62
    3444:	fc 01       	movw	r30, r24
    3446:	e2 5f       	subi	r30, 0xF2	; 242
    3448:	fe 4f       	sbci	r31, 0xFE	; 254
    344a:	30 80       	ld	r3, Z
    344c:	31 97       	sbiw	r30, 0x01	; 1
    344e:	80 81       	ld	r24, Z
    3450:	38 16       	cp	r3, r24
    3452:	70 f0       	brcs	.+28     	; 0x3470 <_ZN8HCIClass13sendAclPacketEjhhPv+0x5e>
    3454:	57 01       	movw	r10, r14
    3456:	82 ef       	ldi	r24, 0xF2	; 242
    3458:	a8 1a       	sub	r10, r24
    345a:	8e ef       	ldi	r24, 0xFE	; 254
    345c:	b8 0a       	sbc	r11, r24
    345e:	6f 01       	movw	r12, r30
    3460:	c7 01       	movw	r24, r14
    3462:	d2 df       	rcall	.-92     	; 0x3408 <_ZN8HCIClass4pollEv>
    3464:	d5 01       	movw	r26, r10
    3466:	3c 90       	ld	r3, X
    3468:	f6 01       	movw	r30, r12
    346a:	80 81       	ld	r24, Z
    346c:	38 16       	cp	r3, r24
    346e:	c0 f7       	brcc	.-16     	; 0x3460 <_ZN8HCIClass13sendAclPacketEjhhPv+0x4e>
    3470:	45 2d       	mov	r20, r5
    3472:	50 e0       	ldi	r21, 0x00	; 0
    3474:	5a 01       	movw	r10, r20
    3476:	f9 e0       	ldi	r31, 0x09	; 9
    3478:	af 0e       	add	r10, r31
    347a:	b1 1c       	adc	r11, r1
    347c:	8d b7       	in	r24, 0x3d	; 61
    347e:	9e b7       	in	r25, 0x3e	; 62
    3480:	8a 19       	sub	r24, r10
    3482:	9b 09       	sbc	r25, r11
    3484:	0f b6       	in	r0, 0x3f	; 63
    3486:	f8 94       	cli
    3488:	9e bf       	out	0x3e, r25	; 62
    348a:	0f be       	out	0x3f, r0	; 63
    348c:	8d bf       	out	0x3d, r24	; 61
    348e:	ad b7       	in	r26, 0x3d	; 61
    3490:	be b7       	in	r27, 0x3e	; 62
    3492:	11 96       	adiw	r26, 0x01	; 1
    3494:	6d 01       	movw	r12, r26
    3496:	82 e0       	ldi	r24, 0x02	; 2
    3498:	ed b7       	in	r30, 0x3d	; 61
    349a:	fe b7       	in	r31, 0x3e	; 62
    349c:	81 83       	std	Z+1, r24	; 0x01
    349e:	12 96       	adiw	r26, 0x02	; 2
    34a0:	7c 92       	st	X, r7
    34a2:	6e 92       	st	-X, r6
    34a4:	11 97       	sbiw	r26, 0x01	; 1
    34a6:	84 e0       	ldi	r24, 0x04	; 4
    34a8:	85 0d       	add	r24, r5
    34aa:	90 e0       	ldi	r25, 0x00	; 0
    34ac:	14 96       	adiw	r26, 0x04	; 4
    34ae:	9c 93       	st	X, r25
    34b0:	8e 93       	st	-X, r24
    34b2:	13 97       	sbiw	r26, 0x03	; 3
    34b4:	16 96       	adiw	r26, 0x06	; 6
    34b6:	5c 93       	st	X, r21
    34b8:	4e 93       	st	-X, r20
    34ba:	15 97       	sbiw	r26, 0x05	; 5
    34bc:	51 2c       	mov	r5, r1
    34be:	18 96       	adiw	r26, 0x08	; 8
    34c0:	5c 92       	st	X, r5
    34c2:	4e 92       	st	-X, r4
    34c4:	17 97       	sbiw	r26, 0x07	; 7
    34c6:	8d b7       	in	r24, 0x3d	; 61
    34c8:	9e b7       	in	r25, 0x3e	; 62
    34ca:	0a 96       	adiw	r24, 0x0a	; 10
    34cc:	b8 01       	movw	r22, r16
    34ce:	0e 94 b7 2e 	call	0x5d6e	; 0x5d6e <memcpy>
    34d2:	f7 01       	movw	r30, r14
    34d4:	e2 5f       	subi	r30, 0xF2	; 242
    34d6:	fe 4f       	sbci	r31, 0xFE	; 254
    34d8:	33 94       	inc	r3
    34da:	30 82       	st	Z, r3
    34dc:	80 91 e4 02 	lds	r24, 0x02E4	; 0x8002e4 <x_hciTransport>
    34e0:	90 91 e5 02 	lds	r25, 0x02E5	; 0x8002e5 <x_hciTransport+0x1>
    34e4:	dc 01       	movw	r26, r24
    34e6:	ed 91       	ld	r30, X+
    34e8:	fc 91       	ld	r31, X
    34ea:	04 84       	ldd	r0, Z+12	; 0x0c
    34ec:	f5 85       	ldd	r31, Z+13	; 0x0d
    34ee:	e0 2d       	mov	r30, r0
    34f0:	a5 01       	movw	r20, r10
    34f2:	b6 01       	movw	r22, r12
    34f4:	09 95       	icall
    34f6:	80 e0       	ldi	r24, 0x00	; 0
    34f8:	90 e0       	ldi	r25, 0x00	; 0
    34fa:	0f b6       	in	r0, 0x3f	; 63
    34fc:	f8 94       	cli
    34fe:	9e be       	out	0x3e, r9	; 62
    3500:	0f be       	out	0x3f, r0	; 63
    3502:	8d be       	out	0x3d, r8	; 61
    3504:	df 91       	pop	r29
    3506:	cf 91       	pop	r28
    3508:	1f 91       	pop	r17
    350a:	0f 91       	pop	r16
    350c:	ff 90       	pop	r15
    350e:	ef 90       	pop	r14
    3510:	df 90       	pop	r13
    3512:	cf 90       	pop	r12
    3514:	bf 90       	pop	r11
    3516:	af 90       	pop	r10
    3518:	9f 90       	pop	r9
    351a:	8f 90       	pop	r8
    351c:	7f 90       	pop	r7
    351e:	6f 90       	pop	r6
    3520:	5f 90       	pop	r5
    3522:	4f 90       	pop	r4
    3524:	3f 90       	pop	r3
    3526:	08 95       	ret

00003528 <_ZN8HCIClass19handleAclDataPacketEhPh>:
    3528:	0f 93       	push	r16
    352a:	1f 93       	push	r17
    352c:	cf 93       	push	r28
    352e:	df 93       	push	r29
    3530:	cd b7       	in	r28, 0x3d	; 61
    3532:	de b7       	in	r29, 0x3e	; 62
    3534:	2a 97       	sbiw	r28, 0x0a	; 10
    3536:	0f b6       	in	r0, 0x3f	; 63
    3538:	f8 94       	cli
    353a:	de bf       	out	0x3e, r29	; 62
    353c:	0f be       	out	0x3f, r0	; 63
    353e:	cd bf       	out	0x3d, r28	; 61
    3540:	fa 01       	movw	r30, r20
    3542:	66 81       	ldd	r22, Z+6	; 0x06
    3544:	77 81       	ldd	r23, Z+7	; 0x07
    3546:	64 30       	cpi	r22, 0x04	; 4
    3548:	71 05       	cpc	r23, r1
    354a:	59 f4       	brne	.+22     	; 0x3562 <_ZN8HCIClass19handleAclDataPacketEhPh+0x3a>
    354c:	9c 01       	movw	r18, r24
    354e:	23 5f       	subi	r18, 0xF3	; 243
    3550:	3f 4f       	sbci	r19, 0xFF	; 255
    3552:	60 81       	ld	r22, Z
    3554:	71 81       	ldd	r23, Z+1	; 0x01
    3556:	7f 70       	andi	r23, 0x0F	; 15
    3558:	44 81       	ldd	r20, Z+4	; 0x04
    355a:	8c e5       	ldi	r24, 0x5C	; 92
    355c:	93 e0       	ldi	r25, 0x03	; 3
    355e:	06 db       	rcall	.-2548   	; 0x2b6c <_ZN8ATTClass10handleDataEjhPh>
    3560:	28 c0       	rjmp	.+80     	; 0x35b2 <_ZN8HCIClass19handleAclDataPacketEhPh+0x8a>
    3562:	65 30       	cpi	r22, 0x05	; 5
    3564:	71 05       	cpc	r23, r1
    3566:	59 f4       	brne	.+22     	; 0x357e <_ZN8HCIClass19handleAclDataPacketEhPh+0x56>
    3568:	9c 01       	movw	r18, r24
    356a:	23 5f       	subi	r18, 0xF3	; 243
    356c:	3f 4f       	sbci	r19, 0xFF	; 255
    356e:	60 81       	ld	r22, Z
    3570:	71 81       	ldd	r23, Z+1	; 0x01
    3572:	7f 70       	andi	r23, 0x0F	; 15
    3574:	44 81       	ldd	r20, Z+4	; 0x04
    3576:	80 e8       	ldi	r24, 0x80	; 128
    3578:	95 e0       	ldi	r25, 0x05	; 5
    357a:	2c d3       	rcall	.+1624   	; 0x3bd4 <_ZN19L2CAPSignalingClass10handleDataEjhPh>
    357c:	1a c0       	rjmp	.+52     	; 0x35b2 <_ZN8HCIClass19handleAclDataPacketEhPh+0x8a>
    357e:	8e 01       	movw	r16, r28
    3580:	0f 5f       	subi	r16, 0xFF	; 255
    3582:	1f 4f       	sbci	r17, 0xFF	; 255
    3584:	2a e0       	ldi	r18, 0x0A	; 10
    3586:	d8 01       	movw	r26, r16
    3588:	1d 92       	st	X+, r1
    358a:	2a 95       	dec	r18
    358c:	e9 f7       	brne	.-6      	; 0x3588 <_ZN8HCIClass19handleAclDataPacketEhPh+0x60>
    358e:	21 e0       	ldi	r18, 0x01	; 1
    3590:	29 83       	std	Y+1, r18	; 0x01
    3592:	26 e0       	ldi	r18, 0x06	; 6
    3594:	30 e0       	ldi	r19, 0x00	; 0
    3596:	3c 83       	std	Y+4, r19	; 0x04
    3598:	2b 83       	std	Y+3, r18	; 0x03
    359a:	22 e0       	ldi	r18, 0x02	; 2
    359c:	30 e0       	ldi	r19, 0x00	; 0
    359e:	3e 83       	std	Y+6, r19	; 0x06
    35a0:	2d 83       	std	Y+5, r18	; 0x05
    35a2:	78 87       	std	Y+8, r23	; 0x08
    35a4:	6f 83       	std	Y+7, r22	; 0x07
    35a6:	60 81       	ld	r22, Z
    35a8:	71 81       	ldd	r23, Z+1	; 0x01
    35aa:	7f 70       	andi	r23, 0x0F	; 15
    35ac:	2a e0       	ldi	r18, 0x0A	; 10
    35ae:	45 e0       	ldi	r20, 0x05	; 5
    35b0:	30 df       	rcall	.-416    	; 0x3412 <_ZN8HCIClass13sendAclPacketEjhhPv>
    35b2:	2a 96       	adiw	r28, 0x0a	; 10
    35b4:	0f b6       	in	r0, 0x3f	; 63
    35b6:	f8 94       	cli
    35b8:	de bf       	out	0x3e, r29	; 62
    35ba:	0f be       	out	0x3f, r0	; 63
    35bc:	cd bf       	out	0x3d, r28	; 61
    35be:	df 91       	pop	r29
    35c0:	cf 91       	pop	r28
    35c2:	1f 91       	pop	r17
    35c4:	0f 91       	pop	r16
    35c6:	08 95       	ret

000035c8 <_ZN8HCIClass11sendCommandEjhPv>:
    35c8:	4f 92       	push	r4
    35ca:	5f 92       	push	r5
    35cc:	6f 92       	push	r6
    35ce:	7f 92       	push	r7
    35d0:	af 92       	push	r10
    35d2:	bf 92       	push	r11
    35d4:	cf 92       	push	r12
    35d6:	df 92       	push	r13
    35d8:	ef 92       	push	r14
    35da:	ff 92       	push	r15
    35dc:	0f 93       	push	r16
    35de:	1f 93       	push	r17
    35e0:	cf 93       	push	r28
    35e2:	df 93       	push	r29
    35e4:	cd b7       	in	r28, 0x3d	; 61
    35e6:	de b7       	in	r29, 0x3e	; 62
    35e8:	8c 01       	movw	r16, r24
    35ea:	7b 01       	movw	r14, r22
    35ec:	ad b6       	in	r10, 0x3d	; 61
    35ee:	be b6       	in	r11, 0x3e	; 62
    35f0:	50 e0       	ldi	r21, 0x00	; 0
    35f2:	3a 01       	movw	r6, r20
    35f4:	64 e0       	ldi	r22, 0x04	; 4
    35f6:	66 0e       	add	r6, r22
    35f8:	71 1c       	adc	r7, r1
    35fa:	ad b7       	in	r26, 0x3d	; 61
    35fc:	be b7       	in	r27, 0x3e	; 62
    35fe:	a6 19       	sub	r26, r6
    3600:	b7 09       	sbc	r27, r7
    3602:	0f b6       	in	r0, 0x3f	; 63
    3604:	f8 94       	cli
    3606:	be bf       	out	0x3e, r27	; 62
    3608:	0f be       	out	0x3f, r0	; 63
    360a:	ad bf       	out	0x3d, r26	; 61
    360c:	ed b7       	in	r30, 0x3d	; 61
    360e:	fe b7       	in	r31, 0x3e	; 62
    3610:	31 96       	adiw	r30, 0x01	; 1
    3612:	6f 01       	movw	r12, r30
    3614:	91 e0       	ldi	r25, 0x01	; 1
    3616:	11 96       	adiw	r26, 0x01	; 1
    3618:	9c 93       	st	X, r25
    361a:	f2 82       	std	Z+2, r15	; 0x02
    361c:	e1 82       	std	Z+1, r14	; 0x01
    361e:	43 83       	std	Z+3, r20	; 0x03
    3620:	8d b7       	in	r24, 0x3d	; 61
    3622:	9e b7       	in	r25, 0x3e	; 62
    3624:	05 96       	adiw	r24, 0x05	; 5
    3626:	b9 01       	movw	r22, r18
    3628:	0e 94 b7 2e 	call	0x5d6e	; 0x5d6e <memcpy>
    362c:	80 91 e4 02 	lds	r24, 0x02E4	; 0x8002e4 <x_hciTransport>
    3630:	90 91 e5 02 	lds	r25, 0x02E5	; 0x8002e5 <x_hciTransport+0x1>
    3634:	dc 01       	movw	r26, r24
    3636:	ed 91       	ld	r30, X+
    3638:	fc 91       	ld	r31, X
    363a:	04 84       	ldd	r0, Z+12	; 0x0c
    363c:	f5 85       	ldd	r31, Z+13	; 0x0d
    363e:	e0 2d       	mov	r30, r0
    3640:	a3 01       	movw	r20, r6
    3642:	b6 01       	movw	r22, r12
    3644:	09 95       	icall
    3646:	f8 01       	movw	r30, r16
    3648:	ea 5f       	subi	r30, 0xFA	; 250
    364a:	fe 4f       	sbci	r31, 0xFE	; 254
    364c:	8f ef       	ldi	r24, 0xFF	; 255
    364e:	9f ef       	ldi	r25, 0xFF	; 255
    3650:	91 83       	std	Z+1, r25	; 0x01
    3652:	80 83       	st	Z, r24
    3654:	32 96       	adiw	r30, 0x02	; 2
    3656:	91 83       	std	Z+1, r25	; 0x01
    3658:	80 83       	st	Z, r24
    365a:	85 ea       	ldi	r24, 0xA5	; 165
    365c:	96 e0       	ldi	r25, 0x06	; 6
    365e:	a9 d7       	rcall	.+3922   	; 0x45b2 <_ZN9TickTIMER11getMillisecEv>
    3660:	68 01       	movw	r12, r16
    3662:	ba ef       	ldi	r27, 0xFA	; 250
    3664:	cb 1a       	sub	r12, r27
    3666:	be ef       	ldi	r27, 0xFE	; 254
    3668:	db 0a       	sbc	r13, r27
    366a:	2b 01       	movw	r4, r22
    366c:	3c 01       	movw	r6, r24
    366e:	e8 ee       	ldi	r30, 0xE8	; 232
    3670:	4e 0e       	add	r4, r30
    3672:	e3 e0       	ldi	r30, 0x03	; 3
    3674:	5e 1e       	adc	r5, r30
    3676:	61 1c       	adc	r6, r1
    3678:	71 1c       	adc	r7, r1
    367a:	d6 01       	movw	r26, r12
    367c:	8d 91       	ld	r24, X+
    367e:	9c 91       	ld	r25, X
    3680:	e8 16       	cp	r14, r24
    3682:	f9 06       	cpc	r15, r25
    3684:	59 f0       	breq	.+22     	; 0x369c <_ZN8HCIClass11sendCommandEjhPv+0xd4>
    3686:	85 ea       	ldi	r24, 0xA5	; 165
    3688:	96 e0       	ldi	r25, 0x06	; 6
    368a:	93 d7       	rcall	.+3878   	; 0x45b2 <_ZN9TickTIMER11getMillisecEv>
    368c:	64 15       	cp	r22, r4
    368e:	75 05       	cpc	r23, r5
    3690:	86 05       	cpc	r24, r6
    3692:	97 05       	cpc	r25, r7
    3694:	18 f4       	brcc	.+6      	; 0x369c <_ZN8HCIClass11sendCommandEjhPv+0xd4>
    3696:	c8 01       	movw	r24, r16
    3698:	b7 de       	rcall	.-658    	; 0x3408 <_ZN8HCIClass4pollEv>
    369a:	ef cf       	rjmp	.-34     	; 0x367a <_ZN8HCIClass11sendCommandEjhPv+0xb2>
    369c:	f8 01       	movw	r30, r16
    369e:	e8 5f       	subi	r30, 0xF8	; 248
    36a0:	fe 4f       	sbci	r31, 0xFE	; 254
    36a2:	80 81       	ld	r24, Z
    36a4:	91 81       	ldd	r25, Z+1	; 0x01
    36a6:	0f b6       	in	r0, 0x3f	; 63
    36a8:	f8 94       	cli
    36aa:	be be       	out	0x3e, r11	; 62
    36ac:	0f be       	out	0x3f, r0	; 63
    36ae:	ad be       	out	0x3d, r10	; 61
    36b0:	df 91       	pop	r29
    36b2:	cf 91       	pop	r28
    36b4:	1f 91       	pop	r17
    36b6:	0f 91       	pop	r16
    36b8:	ff 90       	pop	r15
    36ba:	ef 90       	pop	r14
    36bc:	df 90       	pop	r13
    36be:	cf 90       	pop	r12
    36c0:	bf 90       	pop	r11
    36c2:	af 90       	pop	r10
    36c4:	7f 90       	pop	r7
    36c6:	6f 90       	pop	r6
    36c8:	5f 90       	pop	r5
    36ca:	4f 90       	pop	r4
    36cc:	08 95       	ret

000036ce <_ZN8HCIClass10readBDAddrEPh>:
    36ce:	0f 93       	push	r16
    36d0:	1f 93       	push	r17
    36d2:	cf 93       	push	r28
    36d4:	df 93       	push	r29
    36d6:	ec 01       	movw	r28, r24
    36d8:	8b 01       	movw	r16, r22
    36da:	20 e0       	ldi	r18, 0x00	; 0
    36dc:	30 e0       	ldi	r19, 0x00	; 0
    36de:	40 e0       	ldi	r20, 0x00	; 0
    36e0:	69 e0       	ldi	r22, 0x09	; 9
    36e2:	70 e1       	ldi	r23, 0x10	; 16
    36e4:	71 df       	rcall	.-286    	; 0x35c8 <_ZN8HCIClass11sendCommandEjhPv>
    36e6:	00 97       	sbiw	r24, 0x00	; 0
    36e8:	51 f4       	brne	.+20     	; 0x36fe <_ZN8HCIClass10readBDAddrEPh+0x30>
    36ea:	c5 5f       	subi	r28, 0xF5	; 245
    36ec:	de 4f       	sbci	r29, 0xFE	; 254
    36ee:	e8 81       	ld	r30, Y
    36f0:	f9 81       	ldd	r31, Y+1	; 0x01
    36f2:	26 e0       	ldi	r18, 0x06	; 6
    36f4:	d8 01       	movw	r26, r16
    36f6:	01 90       	ld	r0, Z+
    36f8:	0d 92       	st	X+, r0
    36fa:	2a 95       	dec	r18
    36fc:	e1 f7       	brne	.-8      	; 0x36f6 <_ZN8HCIClass10readBDAddrEPh+0x28>
    36fe:	df 91       	pop	r29
    3700:	cf 91       	pop	r28
    3702:	1f 91       	pop	r17
    3704:	0f 91       	pop	r16
    3706:	08 95       	ret

00003708 <_ZN8HCIClass8readRssiEj>:
    3708:	0f 93       	push	r16
    370a:	1f 93       	push	r17
    370c:	cf 93       	push	r28
    370e:	df 93       	push	r29
    3710:	00 d0       	rcall	.+0      	; 0x3712 <_ZN8HCIClass8readRssiEj+0xa>
    3712:	cd b7       	in	r28, 0x3d	; 61
    3714:	de b7       	in	r29, 0x3e	; 62
    3716:	8c 01       	movw	r16, r24
    3718:	7a 83       	std	Y+2, r23	; 0x02
    371a:	69 83       	std	Y+1, r22	; 0x01
    371c:	9e 01       	movw	r18, r28
    371e:	2f 5f       	subi	r18, 0xFF	; 255
    3720:	3f 4f       	sbci	r19, 0xFF	; 255
    3722:	42 e0       	ldi	r20, 0x02	; 2
    3724:	65 e0       	ldi	r22, 0x05	; 5
    3726:	74 e1       	ldi	r23, 0x14	; 20
    3728:	4f df       	rcall	.-354    	; 0x35c8 <_ZN8HCIClass11sendCommandEjhPv>
    372a:	89 2b       	or	r24, r25
    372c:	91 f4       	brne	.+36     	; 0x3752 <_ZN8HCIClass8readRssiEj+0x4a>
    372e:	f8 01       	movw	r30, r16
    3730:	e5 5f       	subi	r30, 0xF5	; 245
    3732:	fe 4f       	sbci	r31, 0xFE	; 254
    3734:	01 90       	ld	r0, Z+
    3736:	f0 81       	ld	r31, Z
    3738:	e0 2d       	mov	r30, r0
    373a:	20 81       	ld	r18, Z
    373c:	31 81       	ldd	r19, Z+1	; 0x01
    373e:	89 81       	ldd	r24, Y+1	; 0x01
    3740:	9a 81       	ldd	r25, Y+2	; 0x02
    3742:	28 17       	cp	r18, r24
    3744:	39 07       	cpc	r19, r25
    3746:	41 f4       	brne	.+16     	; 0x3758 <_ZN8HCIClass8readRssiEj+0x50>
    3748:	82 81       	ldd	r24, Z+2	; 0x02
    374a:	08 2e       	mov	r0, r24
    374c:	00 0c       	add	r0, r0
    374e:	99 0b       	sbc	r25, r25
    3750:	05 c0       	rjmp	.+10     	; 0x375c <_ZN8HCIClass8readRssiEj+0x54>
    3752:	8f e7       	ldi	r24, 0x7F	; 127
    3754:	90 e0       	ldi	r25, 0x00	; 0
    3756:	02 c0       	rjmp	.+4      	; 0x375c <_ZN8HCIClass8readRssiEj+0x54>
    3758:	8f e7       	ldi	r24, 0x7F	; 127
    375a:	90 e0       	ldi	r25, 0x00	; 0
    375c:	0f 90       	pop	r0
    375e:	0f 90       	pop	r0
    3760:	df 91       	pop	r29
    3762:	cf 91       	pop	r28
    3764:	1f 91       	pop	r17
    3766:	0f 91       	pop	r16
    3768:	08 95       	ret

0000376a <_ZN8HCIClass22setLeAdvertisingParamsEjjhhhPhhh>:
    376a:	8f 92       	push	r8
    376c:	af 92       	push	r10
    376e:	cf 92       	push	r12
    3770:	df 92       	push	r13
    3772:	ef 92       	push	r14
    3774:	0f 93       	push	r16
    3776:	cf 93       	push	r28
    3778:	df 93       	push	r29
    377a:	cd b7       	in	r28, 0x3d	; 61
    377c:	de b7       	in	r29, 0x3e	; 62
    377e:	2f 97       	sbiw	r28, 0x0f	; 15
    3780:	0f b6       	in	r0, 0x3f	; 63
    3782:	f8 94       	cli
    3784:	de bf       	out	0x3e, r29	; 62
    3786:	0f be       	out	0x3f, r0	; 63
    3788:	cd bf       	out	0x3d, r28	; 61
    378a:	7a 83       	std	Y+2, r23	; 0x02
    378c:	69 83       	std	Y+1, r22	; 0x01
    378e:	5c 83       	std	Y+4, r21	; 0x04
    3790:	4b 83       	std	Y+3, r20	; 0x03
    3792:	2d 83       	std	Y+5, r18	; 0x05
    3794:	0e 83       	std	Y+6, r16	; 0x06
    3796:	ef 82       	std	Y+7, r14	; 0x07
    3798:	26 e0       	ldi	r18, 0x06	; 6
    379a:	f6 01       	movw	r30, r12
    379c:	de 01       	movw	r26, r28
    379e:	18 96       	adiw	r26, 0x08	; 8
    37a0:	01 90       	ld	r0, Z+
    37a2:	0d 92       	st	X+, r0
    37a4:	2a 95       	dec	r18
    37a6:	e1 f7       	brne	.-8      	; 0x37a0 <_ZN8HCIClass22setLeAdvertisingParamsEjjhhhPhhh+0x36>
    37a8:	ae 86       	std	Y+14, r10	; 0x0e
    37aa:	8f 86       	std	Y+15, r8	; 0x0f
    37ac:	9e 01       	movw	r18, r28
    37ae:	2f 5f       	subi	r18, 0xFF	; 255
    37b0:	3f 4f       	sbci	r19, 0xFF	; 255
    37b2:	4f e0       	ldi	r20, 0x0F	; 15
    37b4:	66 e0       	ldi	r22, 0x06	; 6
    37b6:	70 e2       	ldi	r23, 0x20	; 32
    37b8:	07 df       	rcall	.-498    	; 0x35c8 <_ZN8HCIClass11sendCommandEjhPv>
    37ba:	2f 96       	adiw	r28, 0x0f	; 15
    37bc:	0f b6       	in	r0, 0x3f	; 63
    37be:	f8 94       	cli
    37c0:	de bf       	out	0x3e, r29	; 62
    37c2:	0f be       	out	0x3f, r0	; 63
    37c4:	cd bf       	out	0x3d, r28	; 61
    37c6:	df 91       	pop	r29
    37c8:	cf 91       	pop	r28
    37ca:	0f 91       	pop	r16
    37cc:	ef 90       	pop	r14
    37ce:	df 90       	pop	r13
    37d0:	cf 90       	pop	r12
    37d2:	af 90       	pop	r10
    37d4:	8f 90       	pop	r8
    37d6:	08 95       	ret

000037d8 <_ZN8HCIClass20setLeAdvertisingDataEhPh>:
    37d8:	ef 92       	push	r14
    37da:	ff 92       	push	r15
    37dc:	0f 93       	push	r16
    37de:	1f 93       	push	r17
    37e0:	cf 93       	push	r28
    37e2:	df 93       	push	r29
    37e4:	cd b7       	in	r28, 0x3d	; 61
    37e6:	de b7       	in	r29, 0x3e	; 62
    37e8:	a0 97       	sbiw	r28, 0x20	; 32
    37ea:	0f b6       	in	r0, 0x3f	; 63
    37ec:	f8 94       	cli
    37ee:	de bf       	out	0x3e, r29	; 62
    37f0:	0f be       	out	0x3f, r0	; 63
    37f2:	cd bf       	out	0x3d, r28	; 61
    37f4:	7c 01       	movw	r14, r24
    37f6:	ca 01       	movw	r24, r20
    37f8:	8e 01       	movw	r16, r28
    37fa:	0f 5f       	subi	r16, 0xFF	; 255
    37fc:	1f 4f       	sbci	r17, 0xFF	; 255
    37fe:	20 e2       	ldi	r18, 0x20	; 32
    3800:	f8 01       	movw	r30, r16
    3802:	11 92       	st	Z+, r1
    3804:	2a 95       	dec	r18
    3806:	e9 f7       	brne	.-6      	; 0x3802 <_ZN8HCIClass20setLeAdvertisingDataEhPh+0x2a>
    3808:	69 83       	std	Y+1, r22	; 0x01
    380a:	46 2f       	mov	r20, r22
    380c:	50 e0       	ldi	r21, 0x00	; 0
    380e:	bc 01       	movw	r22, r24
    3810:	ce 01       	movw	r24, r28
    3812:	02 96       	adiw	r24, 0x02	; 2
    3814:	0e 94 b7 2e 	call	0x5d6e	; 0x5d6e <memcpy>
    3818:	98 01       	movw	r18, r16
    381a:	40 e2       	ldi	r20, 0x20	; 32
    381c:	68 e0       	ldi	r22, 0x08	; 8
    381e:	70 e2       	ldi	r23, 0x20	; 32
    3820:	c7 01       	movw	r24, r14
    3822:	d2 de       	rcall	.-604    	; 0x35c8 <_ZN8HCIClass11sendCommandEjhPv>
    3824:	a0 96       	adiw	r28, 0x20	; 32
    3826:	0f b6       	in	r0, 0x3f	; 63
    3828:	f8 94       	cli
    382a:	de bf       	out	0x3e, r29	; 62
    382c:	0f be       	out	0x3f, r0	; 63
    382e:	cd bf       	out	0x3d, r28	; 61
    3830:	df 91       	pop	r29
    3832:	cf 91       	pop	r28
    3834:	1f 91       	pop	r17
    3836:	0f 91       	pop	r16
    3838:	ff 90       	pop	r15
    383a:	ef 90       	pop	r14
    383c:	08 95       	ret

0000383e <_ZN8HCIClass21setLeScanResponseDataEhPh>:
    383e:	ef 92       	push	r14
    3840:	ff 92       	push	r15
    3842:	0f 93       	push	r16
    3844:	1f 93       	push	r17
    3846:	cf 93       	push	r28
    3848:	df 93       	push	r29
    384a:	cd b7       	in	r28, 0x3d	; 61
    384c:	de b7       	in	r29, 0x3e	; 62
    384e:	a0 97       	sbiw	r28, 0x20	; 32
    3850:	0f b6       	in	r0, 0x3f	; 63
    3852:	f8 94       	cli
    3854:	de bf       	out	0x3e, r29	; 62
    3856:	0f be       	out	0x3f, r0	; 63
    3858:	cd bf       	out	0x3d, r28	; 61
    385a:	7c 01       	movw	r14, r24
    385c:	ca 01       	movw	r24, r20
    385e:	8e 01       	movw	r16, r28
    3860:	0f 5f       	subi	r16, 0xFF	; 255
    3862:	1f 4f       	sbci	r17, 0xFF	; 255
    3864:	20 e2       	ldi	r18, 0x20	; 32
    3866:	f8 01       	movw	r30, r16
    3868:	11 92       	st	Z+, r1
    386a:	2a 95       	dec	r18
    386c:	e9 f7       	brne	.-6      	; 0x3868 <_ZN8HCIClass21setLeScanResponseDataEhPh+0x2a>
    386e:	69 83       	std	Y+1, r22	; 0x01
    3870:	46 2f       	mov	r20, r22
    3872:	50 e0       	ldi	r21, 0x00	; 0
    3874:	bc 01       	movw	r22, r24
    3876:	ce 01       	movw	r24, r28
    3878:	02 96       	adiw	r24, 0x02	; 2
    387a:	0e 94 b7 2e 	call	0x5d6e	; 0x5d6e <memcpy>
    387e:	98 01       	movw	r18, r16
    3880:	40 e2       	ldi	r20, 0x20	; 32
    3882:	69 e0       	ldi	r22, 0x09	; 9
    3884:	70 e2       	ldi	r23, 0x20	; 32
    3886:	c7 01       	movw	r24, r14
    3888:	9f de       	rcall	.-706    	; 0x35c8 <_ZN8HCIClass11sendCommandEjhPv>
    388a:	a0 96       	adiw	r28, 0x20	; 32
    388c:	0f b6       	in	r0, 0x3f	; 63
    388e:	f8 94       	cli
    3890:	de bf       	out	0x3e, r29	; 62
    3892:	0f be       	out	0x3f, r0	; 63
    3894:	cd bf       	out	0x3d, r28	; 61
    3896:	df 91       	pop	r29
    3898:	cf 91       	pop	r28
    389a:	1f 91       	pop	r17
    389c:	0f 91       	pop	r16
    389e:	ff 90       	pop	r15
    38a0:	ef 90       	pop	r14
    38a2:	08 95       	ret

000038a4 <_ZN8HCIClass20setLeAdvertiseEnableEh>:
    38a4:	cf 93       	push	r28
    38a6:	df 93       	push	r29
    38a8:	1f 92       	push	r1
    38aa:	cd b7       	in	r28, 0x3d	; 61
    38ac:	de b7       	in	r29, 0x3e	; 62
    38ae:	69 83       	std	Y+1, r22	; 0x01
    38b0:	9e 01       	movw	r18, r28
    38b2:	2f 5f       	subi	r18, 0xFF	; 255
    38b4:	3f 4f       	sbci	r19, 0xFF	; 255
    38b6:	41 e0       	ldi	r20, 0x01	; 1
    38b8:	6a e0       	ldi	r22, 0x0A	; 10
    38ba:	70 e2       	ldi	r23, 0x20	; 32
    38bc:	85 de       	rcall	.-758    	; 0x35c8 <_ZN8HCIClass11sendCommandEjhPv>
    38be:	0f 90       	pop	r0
    38c0:	df 91       	pop	r29
    38c2:	cf 91       	pop	r28
    38c4:	08 95       	ret

000038c6 <_ZN8HCIClass18updateLeConnectionEjjjjj>:
    38c6:	ef 92       	push	r14
    38c8:	ff 92       	push	r15
    38ca:	0f 93       	push	r16
    38cc:	1f 93       	push	r17
    38ce:	cf 93       	push	r28
    38d0:	df 93       	push	r29
    38d2:	cd b7       	in	r28, 0x3d	; 61
    38d4:	de b7       	in	r29, 0x3e	; 62
    38d6:	2e 97       	sbiw	r28, 0x0e	; 14
    38d8:	0f b6       	in	r0, 0x3f	; 63
    38da:	f8 94       	cli
    38dc:	de bf       	out	0x3e, r29	; 62
    38de:	0f be       	out	0x3f, r0	; 63
    38e0:	cd bf       	out	0x3d, r28	; 61
    38e2:	7a 83       	std	Y+2, r23	; 0x02
    38e4:	69 83       	std	Y+1, r22	; 0x01
    38e6:	5c 83       	std	Y+4, r21	; 0x04
    38e8:	4b 83       	std	Y+3, r20	; 0x03
    38ea:	3e 83       	std	Y+6, r19	; 0x06
    38ec:	2d 83       	std	Y+5, r18	; 0x05
    38ee:	18 87       	std	Y+8, r17	; 0x08
    38f0:	0f 83       	std	Y+7, r16	; 0x07
    38f2:	fa 86       	std	Y+10, r15	; 0x0a
    38f4:	e9 86       	std	Y+9, r14	; 0x09
    38f6:	24 e0       	ldi	r18, 0x04	; 4
    38f8:	30 e0       	ldi	r19, 0x00	; 0
    38fa:	3c 87       	std	Y+12, r19	; 0x0c
    38fc:	2b 87       	std	Y+11, r18	; 0x0b
    38fe:	26 e0       	ldi	r18, 0x06	; 6
    3900:	30 e0       	ldi	r19, 0x00	; 0
    3902:	3e 87       	std	Y+14, r19	; 0x0e
    3904:	2d 87       	std	Y+13, r18	; 0x0d
    3906:	9e 01       	movw	r18, r28
    3908:	2f 5f       	subi	r18, 0xFF	; 255
    390a:	3f 4f       	sbci	r19, 0xFF	; 255
    390c:	4e e0       	ldi	r20, 0x0E	; 14
    390e:	63 e1       	ldi	r22, 0x13	; 19
    3910:	70 e2       	ldi	r23, 0x20	; 32
    3912:	5a de       	rcall	.-844    	; 0x35c8 <_ZN8HCIClass11sendCommandEjhPv>
    3914:	2e 96       	adiw	r28, 0x0e	; 14
    3916:	0f b6       	in	r0, 0x3f	; 63
    3918:	f8 94       	cli
    391a:	de bf       	out	0x3e, r29	; 62
    391c:	0f be       	out	0x3f, r0	; 63
    391e:	cd bf       	out	0x3d, r28	; 61
    3920:	df 91       	pop	r29
    3922:	cf 91       	pop	r28
    3924:	1f 91       	pop	r17
    3926:	0f 91       	pop	r16
    3928:	ff 90       	pop	r15
    392a:	ef 90       	pop	r14
    392c:	08 95       	ret

0000392e <_ZN8HCIClass10disconnectEj>:
    392e:	cf 93       	push	r28
    3930:	df 93       	push	r29
    3932:	00 d0       	rcall	.+0      	; 0x3934 <_ZN8HCIClass10disconnectEj+0x6>
    3934:	1f 92       	push	r1
    3936:	cd b7       	in	r28, 0x3d	; 61
    3938:	de b7       	in	r29, 0x3e	; 62
    393a:	23 e1       	ldi	r18, 0x13	; 19
    393c:	2b 83       	std	Y+3, r18	; 0x03
    393e:	7a 83       	std	Y+2, r23	; 0x02
    3940:	69 83       	std	Y+1, r22	; 0x01
    3942:	9e 01       	movw	r18, r28
    3944:	2f 5f       	subi	r18, 0xFF	; 255
    3946:	3f 4f       	sbci	r19, 0xFF	; 255
    3948:	43 e0       	ldi	r20, 0x03	; 3
    394a:	66 e0       	ldi	r22, 0x06	; 6
    394c:	74 e0       	ldi	r23, 0x04	; 4
    394e:	3c de       	rcall	.-904    	; 0x35c8 <_ZN8HCIClass11sendCommandEjhPv>
    3950:	0f 90       	pop	r0
    3952:	0f 90       	pop	r0
    3954:	0f 90       	pop	r0
    3956:	df 91       	pop	r29
    3958:	cf 91       	pop	r28
    395a:	08 95       	ret

0000395c <_GLOBAL__sub_I__ZN8HCIClassC2Ev>:
#include "protocol/HCITransport.h"
#include "protocol/L2CAPSignaling.h"
#include "protocol/ATT.h"
#include "protocol/HCI.h"

HCIClass::HCIClass() : m_recvIndex(0), m_pendingPacket(0)
    395c:	e9 e6       	ldi	r30, 0x69	; 105
    395e:	f4 e0       	ldi	r31, 0x04	; 4
    3960:	8a ec       	ldi	r24, 0xCA	; 202
    3962:	92 e0       	ldi	r25, 0x02	; 2
    3964:	91 83       	std	Z+1, r25	; 0x01
    3966:	80 83       	st	Z, r24
    3968:	13 82       	std	Z+3, r1	; 0x03
    396a:	12 82       	std	Z+2, r1	; 0x02
    396c:	10 92 77 05 	sts	0x0577, r1	; 0x800577 <x_hci+0x10e>
    3970:	08 95       	ret

00003972 <_ZN21HCIUartTransportClassD1Ev>:

#include "system/BluetoothUART.h"
#include "system/TickTIMER.h"
#include "protocol/HCIUartTransport.h"

HCIUartTransportClass::HCIUartTransportClass(BluetoothUART& uart, unsigned long baudrate) : m_uart(&uart), m_baudrate(baudrate)
    3972:	08 95       	ret

00003974 <_ZN21HCIUartTransportClass5beginEv>:
    3974:	fc 01       	movw	r30, r24
    3976:	44 81       	ldd	r20, Z+4	; 0x04
    3978:	55 81       	ldd	r21, Z+5	; 0x05
    397a:	66 81       	ldd	r22, Z+6	; 0x06
    397c:	77 81       	ldd	r23, Z+7	; 0x07
    397e:	82 81       	ldd	r24, Z+2	; 0x02
    3980:	93 81       	ldd	r25, Z+3	; 0x03
    3982:	4d d1       	rcall	.+666    	; 0x3c1e <_ZN13BluetoothUART5beginEm>
    3984:	81 e0       	ldi	r24, 0x01	; 1
    3986:	90 e0       	ldi	r25, 0x00	; 0
    3988:	08 95       	ret

0000398a <_ZN21HCIUartTransportClass3endEv>:
    398a:	fc 01       	movw	r30, r24
    398c:	82 81       	ldd	r24, Z+2	; 0x02
    398e:	93 81       	ldd	r25, Z+3	; 0x03
    3990:	fd c2       	rjmp	.+1530   	; 0x3f8c <_ZN13BluetoothUART3endEv>
    3992:	08 95       	ret

00003994 <_ZN21HCIUartTransportClass4waitEm>:
    3994:	8f 92       	push	r8
    3996:	9f 92       	push	r9
    3998:	af 92       	push	r10
    399a:	bf 92       	push	r11
    399c:	cf 92       	push	r12
    399e:	df 92       	push	r13
    39a0:	ef 92       	push	r14
    39a2:	ff 92       	push	r15
    39a4:	cf 93       	push	r28
    39a6:	df 93       	push	r29
    39a8:	ec 01       	movw	r28, r24
    39aa:	4a 01       	movw	r8, r20
    39ac:	5b 01       	movw	r10, r22
    39ae:	85 ea       	ldi	r24, 0xA5	; 165
    39b0:	96 e0       	ldi	r25, 0x06	; 6
    39b2:	ff d5       	rcall	.+3070   	; 0x45b2 <_ZN9TickTIMER11getMillisecEv>
    39b4:	6b 01       	movw	r12, r22
    39b6:	7c 01       	movw	r14, r24
    39b8:	85 ea       	ldi	r24, 0xA5	; 165
    39ba:	96 e0       	ldi	r25, 0x06	; 6
    39bc:	fa d5       	rcall	.+3060   	; 0x45b2 <_ZN9TickTIMER11getMillisecEv>
    39be:	dc 01       	movw	r26, r24
    39c0:	cb 01       	movw	r24, r22
    39c2:	8c 19       	sub	r24, r12
    39c4:	9d 09       	sbc	r25, r13
    39c6:	ae 09       	sbc	r26, r14
    39c8:	bf 09       	sbc	r27, r15
    39ca:	88 15       	cp	r24, r8
    39cc:	99 05       	cpc	r25, r9
    39ce:	aa 05       	cpc	r26, r10
    39d0:	bb 05       	cpc	r27, r11
    39d2:	48 f4       	brcc	.+18     	; 0x39e6 <_ZN21HCIUartTransportClass4waitEm+0x52>
    39d4:	e8 81       	ld	r30, Y
    39d6:	f9 81       	ldd	r31, Y+1	; 0x01
    39d8:	06 80       	ldd	r0, Z+6	; 0x06
    39da:	f7 81       	ldd	r31, Z+7	; 0x07
    39dc:	e0 2d       	mov	r30, r0
    39de:	ce 01       	movw	r24, r28
    39e0:	09 95       	icall
    39e2:	89 2b       	or	r24, r25
    39e4:	49 f3       	breq	.-46     	; 0x39b8 <_ZN21HCIUartTransportClass4waitEm+0x24>
    39e6:	df 91       	pop	r29
    39e8:	cf 91       	pop	r28
    39ea:	ff 90       	pop	r15
    39ec:	ef 90       	pop	r14
    39ee:	df 90       	pop	r13
    39f0:	cf 90       	pop	r12
    39f2:	bf 90       	pop	r11
    39f4:	af 90       	pop	r10
    39f6:	9f 90       	pop	r9
    39f8:	8f 90       	pop	r8
    39fa:	08 95       	ret

000039fc <_ZN21HCIUartTransportClass9availableEv>:
    39fc:	fc 01       	movw	r30, r24
    39fe:	82 81       	ldd	r24, Z+2	; 0x02
    3a00:	93 81       	ldd	r25, Z+3	; 0x03
    3a02:	32 c1       	rjmp	.+612    	; 0x3c68 <_ZN13BluetoothUART9availableEv>
    3a04:	08 95       	ret

00003a06 <_ZN21HCIUartTransportClass4peekEv>:
    3a06:	fc 01       	movw	r30, r24
    3a08:	82 81       	ldd	r24, Z+2	; 0x02
    3a0a:	93 81       	ldd	r25, Z+3	; 0x03
    3a0c:	3f c1       	rjmp	.+638    	; 0x3c8c <_ZN13BluetoothUART4peekEv>
    3a0e:	08 95       	ret

00003a10 <_ZN21HCIUartTransportClass4readEv>:
    3a10:	fc 01       	movw	r30, r24
    3a12:	82 81       	ldd	r24, Z+2	; 0x02
    3a14:	93 81       	ldd	r25, Z+3	; 0x03
    3a16:	47 c1       	rjmp	.+654    	; 0x3ca6 <_ZN13BluetoothUART4readEv>
    3a18:	08 95       	ret

00003a1a <_ZN21HCIUartTransportClass5writeEPKhj>:
    3a1a:	0f 93       	push	r16
    3a1c:	1f 93       	push	r17
    3a1e:	cf 93       	push	r28
    3a20:	df 93       	push	r29
    3a22:	ec 01       	movw	r28, r24
    3a24:	8a 81       	ldd	r24, Y+2	; 0x02
    3a26:	9b 81       	ldd	r25, Y+3	; 0x03
    3a28:	97 d1       	rcall	.+814    	; 0x3d58 <_ZN13BluetoothUART5writeEPKhj>
    3a2a:	8c 01       	movw	r16, r24
    3a2c:	8a 81       	ldd	r24, Y+2	; 0x02
    3a2e:	9b 81       	ldd	r25, Y+3	; 0x03
    3a30:	85 d2       	rcall	.+1290   	; 0x3f3c <_ZN13BluetoothUART5flushEv>
    3a32:	c8 01       	movw	r24, r16
    3a34:	df 91       	pop	r29
    3a36:	cf 91       	pop	r28
    3a38:	1f 91       	pop	r17
    3a3a:	0f 91       	pop	r16
    3a3c:	08 95       	ret

00003a3e <_ZN21HCIUartTransportClassD0Ev>:
    3a3e:	be c6       	rjmp	.+3452   	; 0x47bc <_ZdlPv>
    3a40:	08 95       	ret

00003a42 <_GLOBAL__sub_I__ZN21HCIUartTransportClassC2ER13BluetoothUARTm>:
    3a42:	e8 e7       	ldi	r30, 0x78	; 120
    3a44:	f5 e0       	ldi	r31, 0x05	; 5
    3a46:	82 ed       	ldi	r24, 0xD2	; 210
    3a48:	92 e0       	ldi	r25, 0x02	; 2
    3a4a:	91 83       	std	Z+1, r25	; 0x01
    3a4c:	80 83       	st	Z, r24
    3a4e:	86 e8       	ldi	r24, 0x86	; 134
    3a50:	95 e0       	ldi	r25, 0x05	; 5
    3a52:	93 83       	std	Z+3, r25	; 0x03
    3a54:	82 83       	std	Z+2, r24	; 0x02
    3a56:	80 e0       	ldi	r24, 0x00	; 0
    3a58:	92 ec       	ldi	r25, 0xC2	; 194
    3a5a:	a1 e0       	ldi	r26, 0x01	; 1
    3a5c:	b0 e0       	ldi	r27, 0x00	; 0
    3a5e:	84 83       	std	Z+4, r24	; 0x04
    3a60:	95 83       	std	Z+5, r25	; 0x05
    3a62:	a6 83       	std	Z+6, r26	; 0x06
    3a64:	b7 83       	std	Z+7, r27	; 0x07
    3a66:	08 95       	ret

00003a68 <_ZN19L2CAPSignalingClassD1Ev>:
        x_hci.updateLeConnection(handle, request->minInterval, request->maxInterval, request->latency, request->supervisionTimeout);
    }
}

void L2CAPSignalingClass::connParamUpdateRes(uint16_t, uint8_t, uint8_t, uint8_t[])
{
    3a68:	08 95       	ret

00003a6a <_ZN19L2CAPSignalingClassD0Ev>:
    3a6a:	a8 c6       	rjmp	.+3408   	; 0x47bc <_ZdlPv>
    3a6c:	08 95       	ret

00003a6e <_ZN19L2CAPSignalingClass13addConnectionEjhhPhjjjh>:
    3a6e:	ef 92       	push	r14
    3a70:	ff 92       	push	r15
    3a72:	0f 93       	push	r16
    3a74:	1f 93       	push	r17
    3a76:	cf 93       	push	r28
    3a78:	df 93       	push	r29
    3a7a:	cd b7       	in	r28, 0x3d	; 61
    3a7c:	de b7       	in	r29, 0x3e	; 62
    3a7e:	2c 97       	sbiw	r28, 0x0c	; 12
    3a80:	0f b6       	in	r0, 0x3f	; 63
    3a82:	f8 94       	cli
    3a84:	de bf       	out	0x3e, r29	; 62
    3a86:	0f be       	out	0x3f, r0	; 63
    3a88:	cd bf       	out	0x3d, r28	; 61
    3a8a:	41 30       	cpi	r20, 0x01	; 1
    3a8c:	69 f5       	brne	.+90     	; 0x3ae8 <_ZN19L2CAPSignalingClass13addConnectionEjhhPhjjjh+0x7a>
    3a8e:	fc 01       	movw	r30, r24
    3a90:	22 81       	ldd	r18, Z+2	; 0x02
    3a92:	33 81       	ldd	r19, Z+3	; 0x03
    3a94:	21 15       	cp	r18, r1
    3a96:	31 05       	cpc	r19, r1
    3a98:	39 f1       	breq	.+78     	; 0x3ae8 <_ZN19L2CAPSignalingClass13addConnectionEjhhPhjjjh+0x7a>
    3a9a:	84 81       	ldd	r24, Z+4	; 0x04
    3a9c:	95 81       	ldd	r25, Z+5	; 0x05
    3a9e:	00 97       	sbiw	r24, 0x00	; 0
    3aa0:	19 f1       	breq	.+70     	; 0x3ae8 <_ZN19L2CAPSignalingClass13addConnectionEjhhPhjjjh+0x7a>
    3aa2:	e2 16       	cp	r14, r18
    3aa4:	f3 06       	cpc	r15, r19
    3aa6:	18 f0       	brcs	.+6      	; 0x3aae <_ZN19L2CAPSignalingClass13addConnectionEjhhPhjjjh+0x40>
    3aa8:	8e 15       	cp	r24, r14
    3aaa:	9f 05       	cpc	r25, r15
    3aac:	e8 f4       	brcc	.+58     	; 0x3ae8 <_ZN19L2CAPSignalingClass13addConnectionEjhhPhjjjh+0x7a>
    3aae:	8e 01       	movw	r16, r28
    3ab0:	0f 5f       	subi	r16, 0xFF	; 255
    3ab2:	1f 4f       	sbci	r17, 0xFF	; 255
    3ab4:	4c e0       	ldi	r20, 0x0C	; 12
    3ab6:	f8 01       	movw	r30, r16
    3ab8:	11 92       	st	Z+, r1
    3aba:	4a 95       	dec	r20
    3abc:	e9 f7       	brne	.-6      	; 0x3ab8 <_ZN19L2CAPSignalingClass13addConnectionEjhhPhjjjh+0x4a>
    3abe:	42 e1       	ldi	r20, 0x12	; 18
    3ac0:	49 83       	std	Y+1, r20	; 0x01
    3ac2:	41 e0       	ldi	r20, 0x01	; 1
    3ac4:	4a 83       	std	Y+2, r20	; 0x02
    3ac6:	48 e0       	ldi	r20, 0x08	; 8
    3ac8:	50 e0       	ldi	r21, 0x00	; 0
    3aca:	5c 83       	std	Y+4, r21	; 0x04
    3acc:	4b 83       	std	Y+3, r20	; 0x03
    3ace:	48 ec       	ldi	r20, 0xC8	; 200
    3ad0:	50 e0       	ldi	r21, 0x00	; 0
    3ad2:	5c 87       	std	Y+12, r21	; 0x0c
    3ad4:	4b 87       	std	Y+11, r20	; 0x0b
    3ad6:	3e 83       	std	Y+6, r19	; 0x06
    3ad8:	2d 83       	std	Y+5, r18	; 0x05
    3ada:	98 87       	std	Y+8, r25	; 0x08
    3adc:	8f 83       	std	Y+7, r24	; 0x07
    3ade:	2c e0       	ldi	r18, 0x0C	; 12
    3ae0:	45 e0       	ldi	r20, 0x05	; 5
    3ae2:	89 e6       	ldi	r24, 0x69	; 105
    3ae4:	94 e0       	ldi	r25, 0x04	; 4
    3ae6:	95 dc       	rcall	.-1750   	; 0x3412 <_ZN8HCIClass13sendAclPacketEjhhPv>
    3ae8:	2c 96       	adiw	r28, 0x0c	; 12
    3aea:	0f b6       	in	r0, 0x3f	; 63
    3aec:	f8 94       	cli
    3aee:	de bf       	out	0x3e, r29	; 62
    3af0:	0f be       	out	0x3f, r0	; 63
    3af2:	cd bf       	out	0x3d, r28	; 61
    3af4:	df 91       	pop	r29
    3af6:	cf 91       	pop	r28
    3af8:	1f 91       	pop	r17
    3afa:	0f 91       	pop	r16
    3afc:	ff 90       	pop	r15
    3afe:	ef 90       	pop	r14
    3b00:	08 95       	ret

00003b02 <_ZN19L2CAPSignalingClass16removeConnectionEjj>:
    3b02:	08 95       	ret

00003b04 <_ZN19L2CAPSignalingClass18connParamUpdateReqEjhhPh>:
    3b04:	af 92       	push	r10
    3b06:	bf 92       	push	r11
    3b08:	cf 92       	push	r12
    3b0a:	df 92       	push	r13
    3b0c:	ef 92       	push	r14
    3b0e:	ff 92       	push	r15
    3b10:	0f 93       	push	r16
    3b12:	1f 93       	push	r17
    3b14:	cf 93       	push	r28
    3b16:	df 93       	push	r29
    3b18:	00 d0       	rcall	.+0      	; 0x3b1a <_ZN19L2CAPSignalingClass18connParamUpdateReqEjhhPh+0x16>
    3b1a:	00 d0       	rcall	.+0      	; 0x3b1c <_ZN19L2CAPSignalingClass18connParamUpdateReqEjhhPh+0x18>
    3b1c:	00 d0       	rcall	.+0      	; 0x3b1e <_ZN19L2CAPSignalingClass18connParamUpdateReqEjhhPh+0x1a>
    3b1e:	cd b7       	in	r28, 0x3d	; 61
    3b20:	de b7       	in	r29, 0x3e	; 62
    3b22:	28 30       	cpi	r18, 0x08	; 8
    3b24:	08 f4       	brcc	.+2      	; 0x3b28 <_ZN19L2CAPSignalingClass18connParamUpdateReqEjhhPh+0x24>
    3b26:	45 c0       	rjmp	.+138    	; 0x3bb2 <_ZN19L2CAPSignalingClass18connParamUpdateReqEjhhPh+0xae>
    3b28:	fe 01       	movw	r30, r28
    3b2a:	31 96       	adiw	r30, 0x01	; 1
    3b2c:	26 e0       	ldi	r18, 0x06	; 6
    3b2e:	df 01       	movw	r26, r30
    3b30:	1d 92       	st	X+, r1
    3b32:	2a 95       	dec	r18
    3b34:	e9 f7       	brne	.-6      	; 0x3b30 <_ZN19L2CAPSignalingClass18connParamUpdateReqEjhhPh+0x2c>
    3b36:	23 e1       	ldi	r18, 0x13	; 19
    3b38:	29 83       	std	Y+1, r18	; 0x01
    3b3a:	22 e0       	ldi	r18, 0x02	; 2
    3b3c:	30 e0       	ldi	r19, 0x00	; 0
    3b3e:	3c 83       	std	Y+4, r19	; 0x04
    3b40:	2b 83       	std	Y+3, r18	; 0x03
    3b42:	4a 83       	std	Y+2, r20	; 0x02
    3b44:	fc 01       	movw	r30, r24
    3b46:	22 81       	ldd	r18, Z+2	; 0x02
    3b48:	33 81       	ldd	r19, Z+3	; 0x03
    3b4a:	21 15       	cp	r18, r1
    3b4c:	31 05       	cpc	r19, r1
    3b4e:	b1 f0       	breq	.+44     	; 0x3b7c <_ZN19L2CAPSignalingClass18connParamUpdateReqEjhhPh+0x78>
    3b50:	84 81       	ldd	r24, Z+4	; 0x04
    3b52:	95 81       	ldd	r25, Z+5	; 0x05
    3b54:	00 97       	sbiw	r24, 0x00	; 0
    3b56:	91 f0       	breq	.+36     	; 0x3b7c <_ZN19L2CAPSignalingClass18connParamUpdateReqEjhhPh+0x78>
    3b58:	d8 01       	movw	r26, r16
    3b5a:	4d 91       	ld	r20, X+
    3b5c:	5c 91       	ld	r21, X
    3b5e:	11 97       	sbiw	r26, 0x01	; 1
    3b60:	42 17       	cp	r20, r18
    3b62:	53 07       	cpc	r21, r19
    3b64:	38 f0       	brcs	.+14     	; 0x3b74 <_ZN19L2CAPSignalingClass18connParamUpdateReqEjhhPh+0x70>
    3b66:	12 96       	adiw	r26, 0x02	; 2
    3b68:	2d 91       	ld	r18, X+
    3b6a:	3c 91       	ld	r19, X
    3b6c:	13 97       	sbiw	r26, 0x03	; 3
    3b6e:	82 17       	cp	r24, r18
    3b70:	93 07       	cpc	r25, r19
    3b72:	20 f4       	brcc	.+8      	; 0x3b7c <_ZN19L2CAPSignalingClass18connParamUpdateReqEjhhPh+0x78>
    3b74:	81 e0       	ldi	r24, 0x01	; 1
    3b76:	90 e0       	ldi	r25, 0x00	; 0
    3b78:	9e 83       	std	Y+6, r25	; 0x06
    3b7a:	8d 83       	std	Y+5, r24	; 0x05
    3b7c:	68 01       	movw	r12, r16
    3b7e:	5b 01       	movw	r10, r22
    3b80:	8e 01       	movw	r16, r28
    3b82:	0f 5f       	subi	r16, 0xFF	; 255
    3b84:	1f 4f       	sbci	r17, 0xFF	; 255
    3b86:	26 e0       	ldi	r18, 0x06	; 6
    3b88:	45 e0       	ldi	r20, 0x05	; 5
    3b8a:	89 e6       	ldi	r24, 0x69	; 105
    3b8c:	94 e0       	ldi	r25, 0x04	; 4
    3b8e:	41 dc       	rcall	.-1918   	; 0x3412 <_ZN8HCIClass13sendAclPacketEjhhPv>
    3b90:	8d 81       	ldd	r24, Y+5	; 0x05
    3b92:	9e 81       	ldd	r25, Y+6	; 0x06
    3b94:	89 2b       	or	r24, r25
    3b96:	69 f4       	brne	.+26     	; 0x3bb2 <_ZN19L2CAPSignalingClass18connParamUpdateReqEjhhPh+0xae>
    3b98:	f6 01       	movw	r30, r12
    3b9a:	e6 80       	ldd	r14, Z+6	; 0x06
    3b9c:	f7 80       	ldd	r15, Z+7	; 0x07
    3b9e:	04 81       	ldd	r16, Z+4	; 0x04
    3ba0:	15 81       	ldd	r17, Z+5	; 0x05
    3ba2:	22 81       	ldd	r18, Z+2	; 0x02
    3ba4:	33 81       	ldd	r19, Z+3	; 0x03
    3ba6:	40 81       	ld	r20, Z
    3ba8:	51 81       	ldd	r21, Z+1	; 0x01
    3baa:	b5 01       	movw	r22, r10
    3bac:	89 e6       	ldi	r24, 0x69	; 105
    3bae:	94 e0       	ldi	r25, 0x04	; 4
    3bb0:	8a de       	rcall	.-748    	; 0x38c6 <_ZN8HCIClass18updateLeConnectionEjjjjj>
    3bb2:	26 96       	adiw	r28, 0x06	; 6
    3bb4:	0f b6       	in	r0, 0x3f	; 63
    3bb6:	f8 94       	cli
    3bb8:	de bf       	out	0x3e, r29	; 62
    3bba:	0f be       	out	0x3f, r0	; 63
    3bbc:	cd bf       	out	0x3d, r28	; 61
    3bbe:	df 91       	pop	r29
    3bc0:	cf 91       	pop	r28
    3bc2:	1f 91       	pop	r17
    3bc4:	0f 91       	pop	r16
    3bc6:	ff 90       	pop	r15
    3bc8:	ef 90       	pop	r14
    3bca:	df 90       	pop	r13
    3bcc:	cf 90       	pop	r12
    3bce:	bf 90       	pop	r11
    3bd0:	af 90       	pop	r10
    3bd2:	08 95       	ret

00003bd4 <_ZN19L2CAPSignalingClass10handleDataEjhPh>:
    3bd4:	0f 93       	push	r16
    3bd6:	1f 93       	push	r17
    3bd8:	44 30       	cpi	r20, 0x04	; 4
    3bda:	98 f0       	brcs	.+38     	; 0x3c02 <_ZN19L2CAPSignalingClass10handleDataEjhPh+0x2e>
    3bdc:	f9 01       	movw	r30, r18
    3bde:	a2 81       	ldd	r26, Z+2	; 0x02
    3be0:	b3 81       	ldd	r27, Z+3	; 0x03
    3be2:	50 e0       	ldi	r21, 0x00	; 0
    3be4:	fd 01       	movw	r30, r26
    3be6:	34 96       	adiw	r30, 0x04	; 4
    3be8:	4e 17       	cp	r20, r30
    3bea:	5f 07       	cpc	r21, r31
    3bec:	51 f4       	brne	.+20     	; 0x3c02 <_ZN19L2CAPSignalingClass10handleDataEjhPh+0x2e>
    3bee:	f9 01       	movw	r30, r18
    3bf0:	40 81       	ld	r20, Z
    3bf2:	42 31       	cpi	r20, 0x12	; 18
    3bf4:	31 f4       	brne	.+12     	; 0x3c02 <_ZN19L2CAPSignalingClass10handleDataEjhPh+0x2e>
    3bf6:	89 01       	movw	r16, r18
    3bf8:	0c 5f       	subi	r16, 0xFC	; 252
    3bfa:	1f 4f       	sbci	r17, 0xFF	; 255
    3bfc:	2a 2f       	mov	r18, r26
    3bfe:	41 81       	ldd	r20, Z+1	; 0x01
    3c00:	81 df       	rcall	.-254    	; 0x3b04 <_ZN19L2CAPSignalingClass18connParamUpdateReqEjhhPh>
    3c02:	1f 91       	pop	r17
    3c04:	0f 91       	pop	r16
    3c06:	08 95       	ret

00003c08 <_GLOBAL__sub_I__ZN19L2CAPSignalingClassC2Ev>:
 */

#include "protocol/HCI.h"
#include "protocol/L2CAPSignaling.h"

L2CAPSignalingClass::L2CAPSignalingClass() : m_minInterval(0), m_maxInterval(0)
    3c08:	e0 e8       	ldi	r30, 0x80	; 128
    3c0a:	f5 e0       	ldi	r31, 0x05	; 5
    3c0c:	8a ee       	ldi	r24, 0xEA	; 234
    3c0e:	92 e0       	ldi	r25, 0x02	; 2
    3c10:	91 83       	std	Z+1, r25	; 0x01
    3c12:	80 83       	st	Z, r24
    3c14:	13 82       	std	Z+3, r1	; 0x03
    3c16:	12 82       	std	Z+2, r1	; 0x02
    3c18:	15 82       	std	Z+5, r1	; 0x05
    3c1a:	14 82       	std	Z+4, r1	; 0x04
    3c1c:	08 95       	ret

00003c1e <_ZN13BluetoothUART5beginEm>:
{
}

int BluetoothUART::begin(unsigned long baudrate)
{
    uint16_t baudSetting = BAUDRATE_CONFIG_VALUE(F_CPU,baudrate);
    3c1e:	cb 01       	movw	r24, r22
    3c20:	ba 01       	movw	r22, r20
    3c22:	d5 d7       	rcall	.+4010   	; 0x4bce <__floatunsisf>
    3c24:	20 e0       	ldi	r18, 0x00	; 0
    3c26:	30 e0       	ldi	r19, 0x00	; 0
    3c28:	40 e8       	ldi	r20, 0x80	; 128
    3c2a:	51 e4       	ldi	r21, 0x41	; 65
    3c2c:	0e 94 75 26 	call	0x4cea	; 0x4cea <__mulsf3>
    3c30:	9b 01       	movw	r18, r22
    3c32:	ac 01       	movw	r20, r24
    3c34:	60 e0       	ldi	r22, 0x00	; 0
    3c36:	74 e2       	ldi	r23, 0x24	; 36
    3c38:	84 e7       	ldi	r24, 0x74	; 116
    3c3a:	9b e4       	ldi	r25, 0x4B	; 75
    3c3c:	34 d7       	rcall	.+3688   	; 0x4aa6 <__divsf3>
    3c3e:	20 e0       	ldi	r18, 0x00	; 0
    3c40:	30 e0       	ldi	r19, 0x00	; 0
    3c42:	40 e8       	ldi	r20, 0x80	; 128
    3c44:	5f e3       	ldi	r21, 0x3F	; 63
    3c46:	ca d6       	rcall	.+3476   	; 0x49dc <__subsf3>
    3c48:	20 e0       	ldi	r18, 0x00	; 0
    3c4a:	30 e0       	ldi	r19, 0x00	; 0
    3c4c:	40 e0       	ldi	r20, 0x00	; 0
    3c4e:	5f e3       	ldi	r21, 0x3F	; 63
    3c50:	c6 d6       	rcall	.+3468   	; 0x49de <__addsf3>
    3c52:	91 d7       	rcall	.+3874   	; 0x4b76 <__fixunssfsi>
    outb(UBRR0H, baudSetting >> 8);
    3c54:	70 93 90 00 	sts	0x0090, r23	; 0x800090 <__TEXT_REGION_LENGTH__+0x7e0090>
    outb(UBRR0L, baudSetting);
    3c58:	69 b9       	out	0x09, r22	; 9
    sbi(UCSR0B, RXEN0);
    3c5a:	54 9a       	sbi	0x0a, 4	; 10
    sbi(UCSR0B, TXEN0);
    3c5c:	53 9a       	sbi	0x0a, 3	; 10
    sbi(UCSR0B, RXCIE0);
    3c5e:	57 9a       	sbi	0x0a, 7	; 10
    sbi(UCSR0B, UDRIE0);
    3c60:	55 9a       	sbi	0x0a, 5	; 10
    //sbi(UCSR0B, TXCIE0);
    return 1;
}
    3c62:	81 e0       	ldi	r24, 0x01	; 1
    3c64:	90 e0       	ldi	r25, 0x00	; 0
    3c66:	08 95       	ret

00003c68 <_ZN13BluetoothUART9availableEv>:
    cbi(UCSR0B, UDRIE0);
    //cbi(UCSR0B, TXCIE0);
}

int BluetoothUART::available()
{
    3c68:	fc 01       	movw	r30, r24
    return ((int)(BLUETOOTH_BUF_SIZE + m_rx_head - m_rx_tail)) % BLUETOOTH_BUF_SIZE;
    3c6a:	90 81       	ld	r25, Z
    3c6c:	89 2f       	mov	r24, r25
    3c6e:	90 e0       	ldi	r25, 0x00	; 0
    3c70:	80 5c       	subi	r24, 0xC0	; 192
    3c72:	9f 4f       	sbci	r25, 0xFF	; 255
    3c74:	21 81       	ldd	r18, Z+1	; 0x01
    3c76:	82 1b       	sub	r24, r18
    3c78:	91 09       	sbc	r25, r1
    3c7a:	8f 73       	andi	r24, 0x3F	; 63
    3c7c:	90 78       	andi	r25, 0x80	; 128
    3c7e:	99 23       	and	r25, r25
    3c80:	24 f4       	brge	.+8      	; 0x3c8a <_ZN13BluetoothUART9availableEv+0x22>
    3c82:	01 97       	sbiw	r24, 0x01	; 1
    3c84:	80 6c       	ori	r24, 0xC0	; 192
    3c86:	9f 6f       	ori	r25, 0xFF	; 255
    3c88:	01 96       	adiw	r24, 0x01	; 1
}
    3c8a:	08 95       	ret

00003c8c <_ZN13BluetoothUART4peekEv>:

int BluetoothUART::peek()
{
    if (m_rx_head == m_rx_tail) {
    3c8c:	fc 01       	movw	r30, r24
    3c8e:	21 81       	ldd	r18, Z+1	; 0x01
    3c90:	30 81       	ld	r19, Z
    3c92:	32 17       	cp	r19, r18
    3c94:	29 f0       	breq	.+10     	; 0x3ca0 <_ZN13BluetoothUART4peekEv+0x14>
        return -1;
    } else {
        return m_rx_buff[m_rx_tail];
    3c96:	e2 0f       	add	r30, r18
    3c98:	f1 1d       	adc	r31, r1
    3c9a:	82 81       	ldd	r24, Z+2	; 0x02
    3c9c:	90 e0       	ldi	r25, 0x00	; 0
    3c9e:	08 95       	ret
}

int BluetoothUART::peek()
{
    if (m_rx_head == m_rx_tail) {
        return -1;
    3ca0:	8f ef       	ldi	r24, 0xFF	; 255
    3ca2:	9f ef       	ldi	r25, 0xFF	; 255
    } else {
        return m_rx_buff[m_rx_tail];
    }
}
    3ca4:	08 95       	ret

00003ca6 <_ZN13BluetoothUART4readEv>:

int BluetoothUART::read()
{
    3ca6:	fc 01       	movw	r30, r24
    if (m_rx_head == m_rx_tail) { // rx buffer is empty
    3ca8:	81 81       	ldd	r24, Z+1	; 0x01
    3caa:	90 81       	ld	r25, Z
    3cac:	98 17       	cp	r25, r24
    3cae:	c9 f0       	breq	.+50     	; 0x3ce2 <_ZN13BluetoothUART4readEv+0x3c>
        return -1;
    } else {
        unsigned char c = m_rx_buff[m_rx_tail];
    3cb0:	df 01       	movw	r26, r30
    3cb2:	a8 0f       	add	r26, r24
    3cb4:	b1 1d       	adc	r27, r1
    3cb6:	12 96       	adiw	r26, 0x02	; 2
    3cb8:	8c 91       	ld	r24, X
        ATOMIC_BLOCK(ATOMIC_RESTORESTATE) {
    3cba:	9f b7       	in	r25, 0x3f	; 63
    return 1;
}

static __inline__ uint8_t __iCliRetVal(void)
{
    cli();
    3cbc:	f8 94       	cli
            m_rx_tail = (m_rx_tail + 1) % BLUETOOTH_BUF_SIZE;
    3cbe:	21 81       	ldd	r18, Z+1	; 0x01
    3cc0:	30 e0       	ldi	r19, 0x00	; 0
    3cc2:	2f 5f       	subi	r18, 0xFF	; 255
    3cc4:	3f 4f       	sbci	r19, 0xFF	; 255
    3cc6:	2f 73       	andi	r18, 0x3F	; 63
    3cc8:	30 78       	andi	r19, 0x80	; 128
    3cca:	33 23       	and	r19, r19
    3ccc:	34 f4       	brge	.+12     	; 0x3cda <_ZN13BluetoothUART4readEv+0x34>
    3cce:	21 50       	subi	r18, 0x01	; 1
    3cd0:	31 09       	sbc	r19, r1
    3cd2:	20 6c       	ori	r18, 0xC0	; 192
    3cd4:	3f 6f       	ori	r19, 0xFF	; 255
    3cd6:	2f 5f       	subi	r18, 0xFF	; 255
    3cd8:	3f 4f       	sbci	r19, 0xFF	; 255
    3cda:	21 83       	std	Z+1, r18	; 0x01
    (void)__s;
}

static __inline__ void __iRestore(const  uint8_t *__s)
{
    SREG = *__s;
    3cdc:	9f bf       	out	0x3f, r25	; 63
        }        
        return c;
    3cde:	90 e0       	ldi	r25, 0x00	; 0
    3ce0:	08 95       	ret
}

int BluetoothUART::read()
{
    if (m_rx_head == m_rx_tail) { // rx buffer is empty
        return -1;
    3ce2:	8f ef       	ldi	r24, 0xFF	; 255
    3ce4:	9f ef       	ldi	r25, 0xFF	; 255
        ATOMIC_BLOCK(ATOMIC_RESTORESTATE) {
            m_rx_tail = (m_rx_tail + 1) % BLUETOOTH_BUF_SIZE;
        }        
        return c;
    }
}
    3ce6:	08 95       	ret

00003ce8 <_ZN13BluetoothUART5writeEh>:

size_t BluetoothUART::write(uint8_t data)
{
    uint8_t i = (m_tx_head + 1) % BLUETOOTH_BUF_SIZE;
    3ce8:	fc 01       	movw	r30, r24
    3cea:	ee 5b       	subi	r30, 0xBE	; 190
    3cec:	ff 4f       	sbci	r31, 0xFF	; 255
    3cee:	20 81       	ld	r18, Z
    3cf0:	30 e0       	ldi	r19, 0x00	; 0
    3cf2:	2f 5f       	subi	r18, 0xFF	; 255
    3cf4:	3f 4f       	sbci	r19, 0xFF	; 255
    3cf6:	2f 73       	andi	r18, 0x3F	; 63
    3cf8:	30 78       	andi	r19, 0x80	; 128
    3cfa:	33 23       	and	r19, r19
    3cfc:	34 f4       	brge	.+12     	; 0x3d0a <_ZN13BluetoothUART5writeEh+0x22>
    3cfe:	21 50       	subi	r18, 0x01	; 1
    3d00:	31 09       	sbc	r19, r1
    3d02:	20 6c       	ori	r18, 0xC0	; 192
    3d04:	3f 6f       	ori	r19, 0xFF	; 255
    3d06:	2f 5f       	subi	r18, 0xFF	; 255
    3d08:	3f 4f       	sbci	r19, 0xFF	; 255
    while (i == m_tx_tail) { // tx buffer full
    3d0a:	fc 01       	movw	r30, r24
    3d0c:	ed 5b       	subi	r30, 0xBD	; 189
    3d0e:	ff 4f       	sbci	r31, 0xFF	; 255
    3d10:	30 81       	ld	r19, Z
    3d12:	23 13       	cpse	r18, r19
    3d14:	04 c0       	rjmp	.+8      	; 0x3d1e <_ZN13BluetoothUART5writeEh+0x36>
        sbi(UCSR0B, UDRIE0);
    3d16:	55 9a       	sbi	0x0a, 5	; 10
}

size_t BluetoothUART::write(uint8_t data)
{
    uint8_t i = (m_tx_head + 1) % BLUETOOTH_BUF_SIZE;
    while (i == m_tx_tail) { // tx buffer full
    3d18:	30 81       	ld	r19, Z
    3d1a:	23 17       	cp	r18, r19
    3d1c:	e1 f3       	breq	.-8      	; 0x3d16 <_ZN13BluetoothUART5writeEh+0x2e>
        sbi(UCSR0B, UDRIE0);
    }
    m_tx_buff[m_tx_head] = data;
    3d1e:	dc 01       	movw	r26, r24
    3d20:	ae 5b       	subi	r26, 0xBE	; 190
    3d22:	bf 4f       	sbci	r27, 0xFF	; 255
    3d24:	2c 91       	ld	r18, X
    3d26:	82 0f       	add	r24, r18
    3d28:	91 1d       	adc	r25, r1
    3d2a:	fc 01       	movw	r30, r24
    3d2c:	ec 5b       	subi	r30, 0xBC	; 188
    3d2e:	ff 4f       	sbci	r31, 0xFF	; 255
    3d30:	60 83       	st	Z, r22
    ATOMIC_BLOCK(ATOMIC_RESTORESTATE) {
    3d32:	2f b7       	in	r18, 0x3f	; 63
    return 1;
}

static __inline__ uint8_t __iCliRetVal(void)
{
    cli();
    3d34:	f8 94       	cli
        m_tx_head = (m_tx_head + 1) % BLUETOOTH_BUF_SIZE;
    3d36:	8c 91       	ld	r24, X
    3d38:	90 e0       	ldi	r25, 0x00	; 0
    3d3a:	01 96       	adiw	r24, 0x01	; 1
    3d3c:	8f 73       	andi	r24, 0x3F	; 63
    3d3e:	90 78       	andi	r25, 0x80	; 128
    3d40:	99 23       	and	r25, r25
    3d42:	24 f4       	brge	.+8      	; 0x3d4c <_ZN13BluetoothUART5writeEh+0x64>
    3d44:	01 97       	sbiw	r24, 0x01	; 1
    3d46:	80 6c       	ori	r24, 0xC0	; 192
    3d48:	9f 6f       	ori	r25, 0xFF	; 255
    3d4a:	01 96       	adiw	r24, 0x01	; 1
    3d4c:	8c 93       	st	X, r24
        sbi(UCSR0B, UDRIE0);
    3d4e:	55 9a       	sbi	0x0a, 5	; 10
    (void)__s;
}

static __inline__ void __iRestore(const  uint8_t *__s)
{
    SREG = *__s;
    3d50:	2f bf       	out	0x3f, r18	; 63
    }
    return 1;
}
    3d52:	81 e0       	ldi	r24, 0x01	; 1
    3d54:	90 e0       	ldi	r25, 0x00	; 0
    3d56:	08 95       	ret

00003d58 <_ZN13BluetoothUART5writeEPKhj>:

size_t BluetoothUART::write(const uint8_t* ptr, size_t length)
{
    3d58:	cf 92       	push	r12
    3d5a:	df 92       	push	r13
    3d5c:	ef 92       	push	r14
    3d5e:	ff 92       	push	r15
    3d60:	0f 93       	push	r16
    3d62:	1f 93       	push	r17
    3d64:	cf 93       	push	r28
    3d66:	df 93       	push	r29
    size_t n = 0;
    while (length--) {
    3d68:	41 15       	cp	r20, r1
    3d6a:	51 05       	cpc	r21, r1
    3d6c:	91 f0       	breq	.+36     	; 0x3d92 <_ZN13BluetoothUART5writeEPKhj+0x3a>
    3d6e:	7a 01       	movw	r14, r20
    3d70:	6c 01       	movw	r12, r24
    3d72:	06 2f       	mov	r16, r22
    3d74:	17 2f       	mov	r17, r23
    3d76:	c0 e0       	ldi	r28, 0x00	; 0
    3d78:	d0 e0       	ldi	r29, 0x00	; 0
        if (write(*ptr++)) n++;
    3d7a:	f8 01       	movw	r30, r16
    3d7c:	61 91       	ld	r22, Z+
    3d7e:	8f 01       	movw	r16, r30
    3d80:	c6 01       	movw	r24, r12
    3d82:	b2 df       	rcall	.-156    	; 0x3ce8 <_ZN13BluetoothUART5writeEh>
    3d84:	89 2b       	or	r24, r25
    3d86:	39 f0       	breq	.+14     	; 0x3d96 <_ZN13BluetoothUART5writeEPKhj+0x3e>
    3d88:	21 96       	adiw	r28, 0x01	; 1
}

size_t BluetoothUART::write(const uint8_t* ptr, size_t length)
{
    size_t n = 0;
    while (length--) {
    3d8a:	ec 16       	cp	r14, r28
    3d8c:	fd 06       	cpc	r15, r29
    3d8e:	a9 f7       	brne	.-22     	; 0x3d7a <_ZN13BluetoothUART5writeEPKhj+0x22>
    3d90:	02 c0       	rjmp	.+4      	; 0x3d96 <_ZN13BluetoothUART5writeEPKhj+0x3e>
    return 1;
}

size_t BluetoothUART::write(const uint8_t* ptr, size_t length)
{
    size_t n = 0;
    3d92:	c0 e0       	ldi	r28, 0x00	; 0
    3d94:	d0 e0       	ldi	r29, 0x00	; 0
    while (length--) {
        if (write(*ptr++)) n++;
        else break;
    }
    return n;
}
    3d96:	ce 01       	movw	r24, r28
    3d98:	df 91       	pop	r29
    3d9a:	cf 91       	pop	r28
    3d9c:	1f 91       	pop	r17
    3d9e:	0f 91       	pop	r16
    3da0:	ff 90       	pop	r15
    3da2:	ef 90       	pop	r14
    3da4:	df 90       	pop	r13
    3da6:	cf 90       	pop	r12
    3da8:	08 95       	ret

00003daa <_ZN13BluetoothUART5writeEPKc>:

size_t BluetoothUART::write(const char* str)
{
    if (str == NULL) return 0;
    3daa:	61 15       	cp	r22, r1
    3dac:	71 05       	cpc	r23, r1
    3dae:	51 f0       	breq	.+20     	; 0x3dc4 <_ZN13BluetoothUART5writeEPKc+0x1a>
    return write((const uint8_t*)str, strlen(str));
    3db0:	fb 01       	movw	r30, r22
    3db2:	01 90       	ld	r0, Z+
    3db4:	00 20       	and	r0, r0
    3db6:	e9 f7       	brne	.-6      	; 0x3db2 <_ZN13BluetoothUART5writeEPKc+0x8>
    3db8:	31 97       	sbiw	r30, 0x01	; 1
    3dba:	af 01       	movw	r20, r30
    3dbc:	46 1b       	sub	r20, r22
    3dbe:	57 0b       	sbc	r21, r23
    3dc0:	cb cf       	rjmp	.-106    	; 0x3d58 <_ZN13BluetoothUART5writeEPKhj>
    3dc2:	08 95       	ret
    return n;
}

size_t BluetoothUART::write(const char* str)
{
    if (str == NULL) return 0;
    3dc4:	80 e0       	ldi	r24, 0x00	; 0
    3dc6:	90 e0       	ldi	r25, 0x00	; 0
    return write((const uint8_t*)str, strlen(str));
}
    3dc8:	08 95       	ret

00003dca <_ZN13BluetoothUART5rxIsrEv>:
        }
    }
}

void BluetoothUART::rxIsr()
{
    3dca:	fc 01       	movw	r30, r24
    unsigned char c = inb(UDR0);
    3dcc:	9c b1       	in	r25, 0x0c	; 12
    uint8_t i = (m_rx_head + 1) % BLUETOOTH_BUF_SIZE;
    3dce:	40 81       	ld	r20, Z
    3dd0:	50 e0       	ldi	r21, 0x00	; 0
    3dd2:	9a 01       	movw	r18, r20
    3dd4:	2f 5f       	subi	r18, 0xFF	; 255
    3dd6:	3f 4f       	sbci	r19, 0xFF	; 255
    3dd8:	2f 73       	andi	r18, 0x3F	; 63
    3dda:	30 78       	andi	r19, 0x80	; 128
    3ddc:	33 23       	and	r19, r19
    3dde:	34 f4       	brge	.+12     	; 0x3dec <_ZN13BluetoothUART5rxIsrEv+0x22>
    3de0:	21 50       	subi	r18, 0x01	; 1
    3de2:	31 09       	sbc	r19, r1
    3de4:	20 6c       	ori	r18, 0xC0	; 192
    3de6:	3f 6f       	ori	r19, 0xFF	; 255
    3de8:	2f 5f       	subi	r18, 0xFF	; 255
    3dea:	3f 4f       	sbci	r19, 0xFF	; 255
    if (i != m_rx_tail) {
    3dec:	81 81       	ldd	r24, Z+1	; 0x01
    3dee:	82 17       	cp	r24, r18
    3df0:	31 f0       	breq	.+12     	; 0x3dfe <_ZN13BluetoothUART5rxIsrEv+0x34>
        m_rx_buff[m_rx_head] = c;
    3df2:	df 01       	movw	r26, r30
    3df4:	a4 0f       	add	r26, r20
    3df6:	b5 1f       	adc	r27, r21
    3df8:	12 96       	adiw	r26, 0x02	; 2
    3dfa:	9c 93       	st	X, r25
        m_rx_head = i;
    3dfc:	20 83       	st	Z, r18
    3dfe:	08 95       	ret

00003e00 <__vector_18>:
#include "system/Util.h"
#include "system/ConsoleUART.h"
#include "system/BluetoothUART.h"
#include "main.h"

ISR(USART0_RX_vect) {
    3e00:	1f 92       	push	r1
    3e02:	0f 92       	push	r0
    3e04:	0f b6       	in	r0, 0x3f	; 63
    3e06:	0f 92       	push	r0
    3e08:	11 24       	eor	r1, r1
    3e0a:	0b b6       	in	r0, 0x3b	; 59
    3e0c:	0f 92       	push	r0
    3e0e:	2f 93       	push	r18
    3e10:	3f 93       	push	r19
    3e12:	4f 93       	push	r20
    3e14:	5f 93       	push	r21
    3e16:	6f 93       	push	r22
    3e18:	7f 93       	push	r23
    3e1a:	8f 93       	push	r24
    3e1c:	9f 93       	push	r25
    3e1e:	af 93       	push	r26
    3e20:	bf 93       	push	r27
    3e22:	ef 93       	push	r30
    3e24:	ff 93       	push	r31
    x_bluetooth.rxIsr();
    3e26:	86 e8       	ldi	r24, 0x86	; 134
    3e28:	95 e0       	ldi	r25, 0x05	; 5
    3e2a:	cf df       	rcall	.-98     	; 0x3dca <_ZN13BluetoothUART5rxIsrEv>
}
    3e2c:	ff 91       	pop	r31
    3e2e:	ef 91       	pop	r30
    3e30:	bf 91       	pop	r27
    3e32:	af 91       	pop	r26
    3e34:	9f 91       	pop	r25
    3e36:	8f 91       	pop	r24
    3e38:	7f 91       	pop	r23
    3e3a:	6f 91       	pop	r22
    3e3c:	5f 91       	pop	r21
    3e3e:	4f 91       	pop	r20
    3e40:	3f 91       	pop	r19
    3e42:	2f 91       	pop	r18
    3e44:	0f 90       	pop	r0
    3e46:	0b be       	out	0x3b, r0	; 59
    3e48:	0f 90       	pop	r0
    3e4a:	0f be       	out	0x3f, r0	; 63
    3e4c:	0f 90       	pop	r0
    3e4e:	1f 90       	pop	r1
    3e50:	18 95       	reti

00003e52 <_ZN13BluetoothUART5txIsrEv>:
    }
}

void BluetoothUART::txIsr()
{
    if (m_tx_tail == m_tx_head) { // buffer is empty
    3e52:	fc 01       	movw	r30, r24
    3e54:	ed 5b       	subi	r30, 0xBD	; 189
    3e56:	ff 4f       	sbci	r31, 0xFF	; 255
    3e58:	20 81       	ld	r18, Z
    3e5a:	31 97       	sbiw	r30, 0x01	; 1
    3e5c:	30 81       	ld	r19, Z
    3e5e:	23 13       	cpse	r18, r19
    3e60:	02 c0       	rjmp	.+4      	; 0x3e66 <_ZN13BluetoothUART5txIsrEv+0x14>
        cbi(UCSR0B, UDRIE0); // disable interrupt
    3e62:	55 98       	cbi	0x0a, 5	; 10
    3e64:	08 95       	ret
    }
    else {
        unsigned char c = m_tx_buff[m_tx_tail];
    3e66:	30 e0       	ldi	r19, 0x00	; 0
    3e68:	fc 01       	movw	r30, r24
    3e6a:	e2 0f       	add	r30, r18
    3e6c:	f3 1f       	adc	r31, r19
    3e6e:	ec 5b       	subi	r30, 0xBC	; 188
    3e70:	ff 4f       	sbci	r31, 0xFF	; 255
    3e72:	40 81       	ld	r20, Z
        m_tx_tail = (m_tx_tail + 1) % BLUETOOTH_BUF_SIZE;
    3e74:	fc 01       	movw	r30, r24
    3e76:	ed 5b       	subi	r30, 0xBD	; 189
    3e78:	ff 4f       	sbci	r31, 0xFF	; 255
    3e7a:	2f 5f       	subi	r18, 0xFF	; 255
    3e7c:	3f 4f       	sbci	r19, 0xFF	; 255
    3e7e:	2f 73       	andi	r18, 0x3F	; 63
    3e80:	30 78       	andi	r19, 0x80	; 128
    3e82:	33 23       	and	r19, r19
    3e84:	34 f4       	brge	.+12     	; 0x3e92 <_ZN13BluetoothUART5txIsrEv+0x40>
    3e86:	21 50       	subi	r18, 0x01	; 1
    3e88:	31 09       	sbc	r19, r1
    3e8a:	20 6c       	ori	r18, 0xC0	; 192
    3e8c:	3f 6f       	ori	r19, 0xFF	; 255
    3e8e:	2f 5f       	subi	r18, 0xFF	; 255
    3e90:	3f 4f       	sbci	r19, 0xFF	; 255
    3e92:	20 83       	st	Z, r18
        outb(UDR0, c);
    3e94:	4c b9       	out	0x0c, r20	; 12
    3e96:	08 95       	ret

00003e98 <__vector_19>:

ISR(USART0_RX_vect) {
    x_bluetooth.rxIsr();
}

ISR(USART0_UDRE_vect) {
    3e98:	1f 92       	push	r1
    3e9a:	0f 92       	push	r0
    3e9c:	0f b6       	in	r0, 0x3f	; 63
    3e9e:	0f 92       	push	r0
    3ea0:	11 24       	eor	r1, r1
    3ea2:	0b b6       	in	r0, 0x3b	; 59
    3ea4:	0f 92       	push	r0
    3ea6:	2f 93       	push	r18
    3ea8:	3f 93       	push	r19
    3eaa:	4f 93       	push	r20
    3eac:	5f 93       	push	r21
    3eae:	6f 93       	push	r22
    3eb0:	7f 93       	push	r23
    3eb2:	8f 93       	push	r24
    3eb4:	9f 93       	push	r25
    3eb6:	af 93       	push	r26
    3eb8:	bf 93       	push	r27
    3eba:	ef 93       	push	r30
    3ebc:	ff 93       	push	r31
    x_bluetooth.txIsr();
    3ebe:	86 e8       	ldi	r24, 0x86	; 134
    3ec0:	95 e0       	ldi	r25, 0x05	; 5
    3ec2:	c7 df       	rcall	.-114    	; 0x3e52 <_ZN13BluetoothUART5txIsrEv>
}
    3ec4:	ff 91       	pop	r31
    3ec6:	ef 91       	pop	r30
    3ec8:	bf 91       	pop	r27
    3eca:	af 91       	pop	r26
    3ecc:	9f 91       	pop	r25
    3ece:	8f 91       	pop	r24
    3ed0:	7f 91       	pop	r23
    3ed2:	6f 91       	pop	r22
    3ed4:	5f 91       	pop	r21
    3ed6:	4f 91       	pop	r20
    3ed8:	3f 91       	pop	r19
    3eda:	2f 91       	pop	r18
    3edc:	0f 90       	pop	r0
    3ede:	0b be       	out	0x3b, r0	; 59
    3ee0:	0f 90       	pop	r0
    3ee2:	0f be       	out	0x3f, r0	; 63
    3ee4:	0f 90       	pop	r0
    3ee6:	1f 90       	pop	r1
    3ee8:	18 95       	reti

00003eea <__vector_20>:

ISR(USART0_TX_vect)
{
    3eea:	1f 92       	push	r1
    3eec:	0f 92       	push	r0
    3eee:	0f b6       	in	r0, 0x3f	; 63
    3ef0:	0f 92       	push	r0
    3ef2:	11 24       	eor	r1, r1
    3ef4:	0b b6       	in	r0, 0x3b	; 59
    3ef6:	0f 92       	push	r0
    3ef8:	2f 93       	push	r18
    3efa:	3f 93       	push	r19
    3efc:	4f 93       	push	r20
    3efe:	5f 93       	push	r21
    3f00:	6f 93       	push	r22
    3f02:	7f 93       	push	r23
    3f04:	8f 93       	push	r24
    3f06:	9f 93       	push	r25
    3f08:	af 93       	push	r26
    3f0a:	bf 93       	push	r27
    3f0c:	ef 93       	push	r30
    3f0e:	ff 93       	push	r31
    x_bluetooth.txIsr();
    3f10:	86 e8       	ldi	r24, 0x86	; 134
    3f12:	95 e0       	ldi	r25, 0x05	; 5
    3f14:	9e df       	rcall	.-196    	; 0x3e52 <_ZN13BluetoothUART5txIsrEv>
}
    3f16:	ff 91       	pop	r31
    3f18:	ef 91       	pop	r30
    3f1a:	bf 91       	pop	r27
    3f1c:	af 91       	pop	r26
    3f1e:	9f 91       	pop	r25
    3f20:	8f 91       	pop	r24
    3f22:	7f 91       	pop	r23
    3f24:	6f 91       	pop	r22
    3f26:	5f 91       	pop	r21
    3f28:	4f 91       	pop	r20
    3f2a:	3f 91       	pop	r19
    3f2c:	2f 91       	pop	r18
    3f2e:	0f 90       	pop	r0
    3f30:	0b be       	out	0x3b, r0	; 59
    3f32:	0f 90       	pop	r0
    3f34:	0f be       	out	0x3f, r0	; 63
    3f36:	0f 90       	pop	r0
    3f38:	1f 90       	pop	r1
    3f3a:	18 95       	reti

00003f3c <_ZN13BluetoothUART5flushEv>:
    if (str == NULL) return 0;
    return write((const uint8_t*)str, strlen(str));
}

void BluetoothUART::flush()
{
    3f3c:	ef 92       	push	r14
    3f3e:	ff 92       	push	r15
    3f40:	0f 93       	push	r16
    3f42:	1f 93       	push	r17
    3f44:	cf 93       	push	r28
    3f46:	df 93       	push	r29
    3f48:	7c 01       	movw	r14, r24
    while (bit_is_set(UCSR1B, UDRIE1) || bit_is_clear(UCSR1A, TXC1)) {
    3f4a:	ca e9       	ldi	r28, 0x9A	; 154
    3f4c:	d0 e0       	ldi	r29, 0x00	; 0
    3f4e:	0b e9       	ldi	r16, 0x9B	; 155
    3f50:	10 e0       	ldi	r17, 0x00	; 0
    3f52:	88 81       	ld	r24, Y
    3f54:	85 fd       	sbrc	r24, 5
    3f56:	04 c0       	rjmp	.+8      	; 0x3f60 <_ZN13BluetoothUART5flushEv+0x24>
    3f58:	f8 01       	movw	r30, r16
    3f5a:	80 81       	ld	r24, Z
    3f5c:	86 fd       	sbrc	r24, 6
    3f5e:	0f c0       	rjmp	.+30     	; 0x3f7e <_ZN13BluetoothUART5flushEv+0x42>
        if (bit_is_clear(SREG, SREG_I) && bit_is_set(UCSR1B, UDRIE1)) {
    3f60:	0f b6       	in	r0, 0x3f	; 63
    3f62:	07 fc       	sbrc	r0, 7
    3f64:	f6 cf       	rjmp	.-20     	; 0x3f52 <_ZN13BluetoothUART5flushEv+0x16>
    3f66:	88 81       	ld	r24, Y
    3f68:	85 ff       	sbrs	r24, 5
    3f6a:	f3 cf       	rjmp	.-26     	; 0x3f52 <_ZN13BluetoothUART5flushEv+0x16>
    3f6c:	03 c0       	rjmp	.+6      	; 0x3f74 <_ZN13BluetoothUART5flushEv+0x38>
            if (bit_is_set(UCSR1A, UDRE1)) {
                txIsr();
    3f6e:	c7 01       	movw	r24, r14
    3f70:	70 df       	rcall	.-288    	; 0x3e52 <_ZN13BluetoothUART5txIsrEv>
    3f72:	ef cf       	rjmp	.-34     	; 0x3f52 <_ZN13BluetoothUART5flushEv+0x16>

void BluetoothUART::flush()
{
    while (bit_is_set(UCSR1B, UDRIE1) || bit_is_clear(UCSR1A, TXC1)) {
        if (bit_is_clear(SREG, SREG_I) && bit_is_set(UCSR1B, UDRIE1)) {
            if (bit_is_set(UCSR1A, UDRE1)) {
    3f74:	f8 01       	movw	r30, r16
    3f76:	80 81       	ld	r24, Z
    3f78:	85 ff       	sbrs	r24, 5
    3f7a:	eb cf       	rjmp	.-42     	; 0x3f52 <_ZN13BluetoothUART5flushEv+0x16>
    3f7c:	f8 cf       	rjmp	.-16     	; 0x3f6e <_ZN13BluetoothUART5flushEv+0x32>
                txIsr();
            }
        }
    }
}
    3f7e:	df 91       	pop	r29
    3f80:	cf 91       	pop	r28
    3f82:	1f 91       	pop	r17
    3f84:	0f 91       	pop	r16
    3f86:	ff 90       	pop	r15
    3f88:	ef 90       	pop	r14
    3f8a:	08 95       	ret

00003f8c <_ZN13BluetoothUART3endEv>:
    return 1;
}

void BluetoothUART::end()
{
    flush();
    3f8c:	d7 df       	rcall	.-82     	; 0x3f3c <_ZN13BluetoothUART5flushEv>
    cbi(UCSR0B, RXEN0);
    3f8e:	54 98       	cbi	0x0a, 4	; 10
    cbi(UCSR0B, TXEN0);
    3f90:	53 98       	cbi	0x0a, 3	; 10
    cbi(UCSR0B, RXCIE0);
    3f92:	57 98       	cbi	0x0a, 7	; 10
    cbi(UCSR0B, UDRIE0);
    3f94:	55 98       	cbi	0x0a, 5	; 10
    3f96:	08 95       	ret

00003f98 <_GLOBAL__sub_I___vector_18>:
{
    x_bluetooth.txIsr();
}

BluetoothUART::BluetoothUART() : 
m_rx_head(0), m_rx_tail(0), m_tx_head(0), m_tx_tail(0)
    3f98:	e6 e8       	ldi	r30, 0x86	; 134
    3f9a:	f5 e0       	ldi	r31, 0x05	; 5
    3f9c:	10 82       	st	Z, r1
    3f9e:	11 82       	std	Z+1, r1	; 0x01
    3fa0:	10 92 c8 05 	sts	0x05C8, r1	; 0x8005c8 <x_bluetooth+0x42>
    3fa4:	10 92 c9 05 	sts	0x05C9, r1	; 0x8005c9 <x_bluetooth+0x43>
    3fa8:	08 95       	ret

00003faa <_ZN11ConsoleUART5beginEm>:
{
    flush();
    cbi(UCSR1B, RXEN1);
    cbi(UCSR1B, TXEN1);
    cbi(UCSR1B, RXCIE1);
    cbi(UCSR1B, UDRIE1);
    3faa:	cb 01       	movw	r24, r22
    3fac:	ba 01       	movw	r22, r20
    3fae:	0f d6       	rcall	.+3102   	; 0x4bce <__floatunsisf>
    3fb0:	20 e0       	ldi	r18, 0x00	; 0
    3fb2:	30 e0       	ldi	r19, 0x00	; 0
    3fb4:	40 e8       	ldi	r20, 0x80	; 128
    3fb6:	51 e4       	ldi	r21, 0x41	; 65
    3fb8:	98 d6       	rcall	.+3376   	; 0x4cea <__mulsf3>
    3fba:	9b 01       	movw	r18, r22
    3fbc:	ac 01       	movw	r20, r24
    3fbe:	60 e0       	ldi	r22, 0x00	; 0
    3fc0:	74 e2       	ldi	r23, 0x24	; 36
    3fc2:	84 e7       	ldi	r24, 0x74	; 116
    3fc4:	9b e4       	ldi	r25, 0x4B	; 75
    3fc6:	6f d5       	rcall	.+2782   	; 0x4aa6 <__divsf3>
    3fc8:	20 e0       	ldi	r18, 0x00	; 0
    3fca:	30 e0       	ldi	r19, 0x00	; 0
    3fcc:	40 e8       	ldi	r20, 0x80	; 128
    3fce:	5f e3       	ldi	r21, 0x3F	; 63
    3fd0:	05 d5       	rcall	.+2570   	; 0x49dc <__subsf3>
    3fd2:	20 e0       	ldi	r18, 0x00	; 0
    3fd4:	30 e0       	ldi	r19, 0x00	; 0
    3fd6:	40 e0       	ldi	r20, 0x00	; 0
    3fd8:	5f e3       	ldi	r21, 0x3F	; 63
    3fda:	01 d5       	rcall	.+2562   	; 0x49de <__addsf3>
    3fdc:	cc d5       	rcall	.+2968   	; 0x4b76 <__fixunssfsi>
    3fde:	70 93 98 00 	sts	0x0098, r23	; 0x800098 <__TEXT_REGION_LENGTH__+0x7e0098>
    3fe2:	60 93 99 00 	sts	0x0099, r22	; 0x800099 <__TEXT_REGION_LENGTH__+0x7e0099>
    3fe6:	ea e9       	ldi	r30, 0x9A	; 154
    3fe8:	f0 e0       	ldi	r31, 0x00	; 0
    3fea:	80 81       	ld	r24, Z
    3fec:	80 61       	ori	r24, 0x10	; 16
    3fee:	80 83       	st	Z, r24
    3ff0:	80 81       	ld	r24, Z
    3ff2:	88 60       	ori	r24, 0x08	; 8
    3ff4:	80 83       	st	Z, r24
    3ff6:	80 81       	ld	r24, Z
    3ff8:	80 68       	ori	r24, 0x80	; 128
    3ffa:	80 83       	st	Z, r24
    3ffc:	80 81       	ld	r24, Z
    3ffe:	80 62       	ori	r24, 0x20	; 32
    4000:	80 83       	st	Z, r24
    4002:	81 e0       	ldi	r24, 0x01	; 1
    4004:	90 e0       	ldi	r25, 0x00	; 0
    4006:	08 95       	ret

00004008 <_ZN11ConsoleUART4readEv>:
    4008:	fc 01       	movw	r30, r24
    400a:	81 81       	ldd	r24, Z+1	; 0x01
    400c:	90 81       	ld	r25, Z
    400e:	89 17       	cp	r24, r25
    4010:	c9 f0       	breq	.+50     	; 0x4044 <_ZN11ConsoleUART4readEv+0x3c>
    4012:	df 01       	movw	r26, r30
    4014:	a8 0f       	add	r26, r24
    4016:	b1 1d       	adc	r27, r1
    4018:	12 96       	adiw	r26, 0x02	; 2
    401a:	8c 91       	ld	r24, X
    401c:	9f b7       	in	r25, 0x3f	; 63
    401e:	f8 94       	cli
    4020:	21 81       	ldd	r18, Z+1	; 0x01
    4022:	30 e0       	ldi	r19, 0x00	; 0
    4024:	2f 5f       	subi	r18, 0xFF	; 255
    4026:	3f 4f       	sbci	r19, 0xFF	; 255
    4028:	2f 73       	andi	r18, 0x3F	; 63
    402a:	30 78       	andi	r19, 0x80	; 128
    402c:	33 23       	and	r19, r19
    402e:	34 f4       	brge	.+12     	; 0x403c <_ZN11ConsoleUART4readEv+0x34>
    4030:	21 50       	subi	r18, 0x01	; 1
    4032:	31 09       	sbc	r19, r1
    4034:	20 6c       	ori	r18, 0xC0	; 192
    4036:	3f 6f       	ori	r19, 0xFF	; 255
    4038:	2f 5f       	subi	r18, 0xFF	; 255
    403a:	3f 4f       	sbci	r19, 0xFF	; 255
    403c:	21 83       	std	Z+1, r18	; 0x01
    403e:	9f bf       	out	0x3f, r25	; 63
    4040:	90 e0       	ldi	r25, 0x00	; 0
    4042:	08 95       	ret
    4044:	8f ef       	ldi	r24, 0xFF	; 255
    4046:	9f ef       	ldi	r25, 0xFF	; 255
    4048:	08 95       	ret

0000404a <_ZN11ConsoleUART5writeEh>:
    404a:	fc 01       	movw	r30, r24
    404c:	ee 5b       	subi	r30, 0xBE	; 190
    404e:	ff 4f       	sbci	r31, 0xFF	; 255
    4050:	20 81       	ld	r18, Z
    4052:	30 e0       	ldi	r19, 0x00	; 0
    4054:	2f 5f       	subi	r18, 0xFF	; 255
    4056:	3f 4f       	sbci	r19, 0xFF	; 255
    4058:	2f 73       	andi	r18, 0x3F	; 63
    405a:	30 78       	andi	r19, 0x80	; 128
    405c:	33 23       	and	r19, r19
    405e:	34 f4       	brge	.+12     	; 0x406c <_ZN11ConsoleUART5writeEh+0x22>
    4060:	21 50       	subi	r18, 0x01	; 1
    4062:	31 09       	sbc	r19, r1
    4064:	20 6c       	ori	r18, 0xC0	; 192
    4066:	3f 6f       	ori	r19, 0xFF	; 255
    4068:	2f 5f       	subi	r18, 0xFF	; 255
    406a:	3f 4f       	sbci	r19, 0xFF	; 255
    406c:	32 2f       	mov	r19, r18
    406e:	fc 01       	movw	r30, r24
    4070:	ed 5b       	subi	r30, 0xBD	; 189
    4072:	ff 4f       	sbci	r31, 0xFF	; 255
    4074:	20 81       	ld	r18, Z
    4076:	32 13       	cpse	r19, r18
    4078:	0b c0       	rjmp	.+22     	; 0x4090 <_ZN11ConsoleUART5writeEh+0x46>
    407a:	ea e9       	ldi	r30, 0x9A	; 154
    407c:	f0 e0       	ldi	r31, 0x00	; 0
    407e:	dc 01       	movw	r26, r24
    4080:	ad 5b       	subi	r26, 0xBD	; 189
    4082:	bf 4f       	sbci	r27, 0xFF	; 255
    4084:	20 81       	ld	r18, Z
    4086:	20 62       	ori	r18, 0x20	; 32
    4088:	20 83       	st	Z, r18
    408a:	2c 91       	ld	r18, X
    408c:	32 17       	cp	r19, r18
    408e:	d1 f3       	breq	.-12     	; 0x4084 <_ZN11ConsoleUART5writeEh+0x3a>
    4090:	dc 01       	movw	r26, r24
    4092:	ae 5b       	subi	r26, 0xBE	; 190
    4094:	bf 4f       	sbci	r27, 0xFF	; 255
    4096:	2c 91       	ld	r18, X
    4098:	82 0f       	add	r24, r18
    409a:	91 1d       	adc	r25, r1
    409c:	fc 01       	movw	r30, r24
    409e:	ec 5b       	subi	r30, 0xBC	; 188
    40a0:	ff 4f       	sbci	r31, 0xFF	; 255
    40a2:	60 83       	st	Z, r22
    40a4:	2f b7       	in	r18, 0x3f	; 63
    40a6:	f8 94       	cli
    40a8:	8c 91       	ld	r24, X
    40aa:	90 e0       	ldi	r25, 0x00	; 0
    40ac:	01 96       	adiw	r24, 0x01	; 1
    40ae:	8f 73       	andi	r24, 0x3F	; 63
    40b0:	90 78       	andi	r25, 0x80	; 128
    40b2:	99 23       	and	r25, r25
    40b4:	24 f4       	brge	.+8      	; 0x40be <_ZN11ConsoleUART5writeEh+0x74>
    40b6:	01 97       	sbiw	r24, 0x01	; 1
    40b8:	80 6c       	ori	r24, 0xC0	; 192
    40ba:	9f 6f       	ori	r25, 0xFF	; 255
    40bc:	01 96       	adiw	r24, 0x01	; 1
    40be:	8c 93       	st	X, r24
    40c0:	ea e9       	ldi	r30, 0x9A	; 154
    40c2:	f0 e0       	ldi	r31, 0x00	; 0
    40c4:	80 81       	ld	r24, Z
    40c6:	80 62       	ori	r24, 0x20	; 32
    40c8:	80 83       	st	Z, r24
    40ca:	2f bf       	out	0x3f, r18	; 63
    40cc:	81 e0       	ldi	r24, 0x01	; 1
    40ce:	90 e0       	ldi	r25, 0x00	; 0
    40d0:	08 95       	ret

000040d2 <_ZN11ConsoleUART5writeEPKhj>:
    40d2:	cf 92       	push	r12
    40d4:	df 92       	push	r13
    40d6:	ef 92       	push	r14
    40d8:	ff 92       	push	r15
    40da:	0f 93       	push	r16
    40dc:	1f 93       	push	r17
    40de:	cf 93       	push	r28
    40e0:	df 93       	push	r29
    40e2:	41 15       	cp	r20, r1
    40e4:	51 05       	cpc	r21, r1
    40e6:	91 f0       	breq	.+36     	; 0x410c <_ZN11ConsoleUART5writeEPKhj+0x3a>
    40e8:	7a 01       	movw	r14, r20
    40ea:	6c 01       	movw	r12, r24
    40ec:	06 2f       	mov	r16, r22
    40ee:	17 2f       	mov	r17, r23
    40f0:	c0 e0       	ldi	r28, 0x00	; 0
    40f2:	d0 e0       	ldi	r29, 0x00	; 0
    40f4:	f8 01       	movw	r30, r16
    40f6:	61 91       	ld	r22, Z+
    40f8:	8f 01       	movw	r16, r30
    40fa:	c6 01       	movw	r24, r12
    40fc:	a6 df       	rcall	.-180    	; 0x404a <_ZN11ConsoleUART5writeEh>
    40fe:	89 2b       	or	r24, r25
    4100:	39 f0       	breq	.+14     	; 0x4110 <_ZN11ConsoleUART5writeEPKhj+0x3e>
    4102:	21 96       	adiw	r28, 0x01	; 1
    4104:	ec 16       	cp	r14, r28
    4106:	fd 06       	cpc	r15, r29
    4108:	a9 f7       	brne	.-22     	; 0x40f4 <_ZN11ConsoleUART5writeEPKhj+0x22>
    410a:	02 c0       	rjmp	.+4      	; 0x4110 <_ZN11ConsoleUART5writeEPKhj+0x3e>
    410c:	c0 e0       	ldi	r28, 0x00	; 0
    410e:	d0 e0       	ldi	r29, 0x00	; 0
    4110:	ce 01       	movw	r24, r28
    4112:	df 91       	pop	r29
    4114:	cf 91       	pop	r28
    4116:	1f 91       	pop	r17
    4118:	0f 91       	pop	r16
    411a:	ff 90       	pop	r15
    411c:	ef 90       	pop	r14
    411e:	df 90       	pop	r13
    4120:	cf 90       	pop	r12
    4122:	08 95       	ret

00004124 <_ZN11ConsoleUART5writeEPKc>:
    4124:	61 15       	cp	r22, r1
    4126:	71 05       	cpc	r23, r1
    4128:	51 f0       	breq	.+20     	; 0x413e <_ZN11ConsoleUART5writeEPKc+0x1a>
    412a:	fb 01       	movw	r30, r22
    412c:	01 90       	ld	r0, Z+
    412e:	00 20       	and	r0, r0
    4130:	e9 f7       	brne	.-6      	; 0x412c <_ZN11ConsoleUART5writeEPKc+0x8>
    4132:	31 97       	sbiw	r30, 0x01	; 1
    4134:	af 01       	movw	r20, r30
    4136:	46 1b       	sub	r20, r22
    4138:	57 0b       	sbc	r21, r23
    413a:	cb cf       	rjmp	.-106    	; 0x40d2 <_ZN11ConsoleUART5writeEPKhj>
    413c:	08 95       	ret
    413e:	80 e0       	ldi	r24, 0x00	; 0
    4140:	90 e0       	ldi	r25, 0x00	; 0
    4142:	08 95       	ret

00004144 <_ZN11ConsoleUART5rxIsrEv>:
    4144:	cf 93       	push	r28
    4146:	fc 01       	movw	r30, r24
    4148:	c0 91 9c 00 	lds	r28, 0x009C	; 0x80009c <__TEXT_REGION_LENGTH__+0x7e009c>
    414c:	40 81       	ld	r20, Z
    414e:	50 e0       	ldi	r21, 0x00	; 0
    4150:	9a 01       	movw	r18, r20
    4152:	2f 5f       	subi	r18, 0xFF	; 255
    4154:	3f 4f       	sbci	r19, 0xFF	; 255
    4156:	2f 73       	andi	r18, 0x3F	; 63
    4158:	30 78       	andi	r19, 0x80	; 128
    415a:	33 23       	and	r19, r19
    415c:	34 f4       	brge	.+12     	; 0x416a <_ZN11ConsoleUART5rxIsrEv+0x26>
    415e:	21 50       	subi	r18, 0x01	; 1
    4160:	31 09       	sbc	r19, r1
    4162:	20 6c       	ori	r18, 0xC0	; 192
    4164:	3f 6f       	ori	r19, 0xFF	; 255
    4166:	2f 5f       	subi	r18, 0xFF	; 255
    4168:	3f 4f       	sbci	r19, 0xFF	; 255
    416a:	81 81       	ldd	r24, Z+1	; 0x01
    416c:	82 17       	cp	r24, r18
    416e:	31 f0       	breq	.+12     	; 0x417c <_ZN11ConsoleUART5rxIsrEv+0x38>
    4170:	df 01       	movw	r26, r30
    4172:	a4 0f       	add	r26, r20
    4174:	b5 1f       	adc	r27, r21
    4176:	12 96       	adiw	r26, 0x02	; 2
    4178:	cc 93       	st	X, r28
    417a:	20 83       	st	Z, r18
    417c:	6c 2f       	mov	r22, r28
    417e:	8a e0       	ldi	r24, 0x0A	; 10
    4180:	96 e0       	ldi	r25, 0x06	; 6
    4182:	63 df       	rcall	.-314    	; 0x404a <_ZN11ConsoleUART5writeEh>
    4184:	80 91 2c 03 	lds	r24, 0x032C	; 0x80032c <x_manual_mode>
    4188:	88 23       	and	r24, r24
    418a:	21 f0       	breq	.+8      	; 0x4194 <_ZN11ConsoleUART5rxIsrEv+0x50>
    418c:	6c 2f       	mov	r22, r28
    418e:	86 e8       	ldi	r24, 0x86	; 134
    4190:	95 e0       	ldi	r25, 0x05	; 5
    4192:	aa dd       	rcall	.-1196   	; 0x3ce8 <_ZN13BluetoothUART5writeEh>
    4194:	cf 91       	pop	r28
    4196:	08 95       	ret

00004198 <__vector_30>:
    4198:	1f 92       	push	r1
    419a:	0f 92       	push	r0
    419c:	0f b6       	in	r0, 0x3f	; 63
    419e:	0f 92       	push	r0
    41a0:	11 24       	eor	r1, r1
    41a2:	0b b6       	in	r0, 0x3b	; 59
    41a4:	0f 92       	push	r0
    41a6:	2f 93       	push	r18
    41a8:	3f 93       	push	r19
    41aa:	4f 93       	push	r20
    41ac:	5f 93       	push	r21
    41ae:	6f 93       	push	r22
    41b0:	7f 93       	push	r23
    41b2:	8f 93       	push	r24
    41b4:	9f 93       	push	r25
    41b6:	af 93       	push	r26
    41b8:	bf 93       	push	r27
    41ba:	ef 93       	push	r30
    41bc:	ff 93       	push	r31
    41be:	8a e0       	ldi	r24, 0x0A	; 10
    41c0:	96 e0       	ldi	r25, 0x06	; 6
    41c2:	c0 df       	rcall	.-128    	; 0x4144 <_ZN11ConsoleUART5rxIsrEv>
    41c4:	ff 91       	pop	r31
    41c6:	ef 91       	pop	r30
    41c8:	bf 91       	pop	r27
    41ca:	af 91       	pop	r26
    41cc:	9f 91       	pop	r25
    41ce:	8f 91       	pop	r24
    41d0:	7f 91       	pop	r23
    41d2:	6f 91       	pop	r22
    41d4:	5f 91       	pop	r21
    41d6:	4f 91       	pop	r20
    41d8:	3f 91       	pop	r19
    41da:	2f 91       	pop	r18
    41dc:	0f 90       	pop	r0
    41de:	0b be       	out	0x3b, r0	; 59
    41e0:	0f 90       	pop	r0
    41e2:	0f be       	out	0x3f, r0	; 63
    41e4:	0f 90       	pop	r0
    41e6:	1f 90       	pop	r1
    41e8:	18 95       	reti

000041ea <_ZN11ConsoleUART5txIsrEv>:
    41ea:	fc 01       	movw	r30, r24
    41ec:	ed 5b       	subi	r30, 0xBD	; 189
    41ee:	ff 4f       	sbci	r31, 0xFF	; 255
    41f0:	20 81       	ld	r18, Z
    41f2:	31 97       	sbiw	r30, 0x01	; 1
    41f4:	30 81       	ld	r19, Z
    41f6:	23 13       	cpse	r18, r19
    41f8:	06 c0       	rjmp	.+12     	; 0x4206 <_ZN11ConsoleUART5txIsrEv+0x1c>
    41fa:	ea e9       	ldi	r30, 0x9A	; 154
    41fc:	f0 e0       	ldi	r31, 0x00	; 0
    41fe:	80 81       	ld	r24, Z
    4200:	8f 7d       	andi	r24, 0xDF	; 223
    4202:	80 83       	st	Z, r24
    4204:	08 95       	ret
    4206:	30 e0       	ldi	r19, 0x00	; 0
    4208:	fc 01       	movw	r30, r24
    420a:	e2 0f       	add	r30, r18
    420c:	f3 1f       	adc	r31, r19
    420e:	ec 5b       	subi	r30, 0xBC	; 188
    4210:	ff 4f       	sbci	r31, 0xFF	; 255
    4212:	40 81       	ld	r20, Z
    4214:	fc 01       	movw	r30, r24
    4216:	ed 5b       	subi	r30, 0xBD	; 189
    4218:	ff 4f       	sbci	r31, 0xFF	; 255
    421a:	2f 5f       	subi	r18, 0xFF	; 255
    421c:	3f 4f       	sbci	r19, 0xFF	; 255
    421e:	2f 73       	andi	r18, 0x3F	; 63
    4220:	30 78       	andi	r19, 0x80	; 128
    4222:	33 23       	and	r19, r19
    4224:	34 f4       	brge	.+12     	; 0x4232 <_ZN11ConsoleUART5txIsrEv+0x48>
    4226:	21 50       	subi	r18, 0x01	; 1
    4228:	31 09       	sbc	r19, r1
    422a:	20 6c       	ori	r18, 0xC0	; 192
    422c:	3f 6f       	ori	r19, 0xFF	; 255
    422e:	2f 5f       	subi	r18, 0xFF	; 255
    4230:	3f 4f       	sbci	r19, 0xFF	; 255
    4232:	20 83       	st	Z, r18
    4234:	40 93 9c 00 	sts	0x009C, r20	; 0x80009c <__TEXT_REGION_LENGTH__+0x7e009c>
    4238:	08 95       	ret

0000423a <__vector_31>:
    423a:	1f 92       	push	r1
    423c:	0f 92       	push	r0
    423e:	0f b6       	in	r0, 0x3f	; 63
    4240:	0f 92       	push	r0
    4242:	11 24       	eor	r1, r1
    4244:	0b b6       	in	r0, 0x3b	; 59
    4246:	0f 92       	push	r0
    4248:	2f 93       	push	r18
    424a:	3f 93       	push	r19
    424c:	4f 93       	push	r20
    424e:	5f 93       	push	r21
    4250:	6f 93       	push	r22
    4252:	7f 93       	push	r23
    4254:	8f 93       	push	r24
    4256:	9f 93       	push	r25
    4258:	af 93       	push	r26
    425a:	bf 93       	push	r27
    425c:	ef 93       	push	r30
    425e:	ff 93       	push	r31
    4260:	8a e0       	ldi	r24, 0x0A	; 10
    4262:	96 e0       	ldi	r25, 0x06	; 6
    4264:	c2 df       	rcall	.-124    	; 0x41ea <_ZN11ConsoleUART5txIsrEv>
    4266:	ff 91       	pop	r31
    4268:	ef 91       	pop	r30
    426a:	bf 91       	pop	r27
    426c:	af 91       	pop	r26
    426e:	9f 91       	pop	r25
    4270:	8f 91       	pop	r24
    4272:	7f 91       	pop	r23
    4274:	6f 91       	pop	r22
    4276:	5f 91       	pop	r21
    4278:	4f 91       	pop	r20
    427a:	3f 91       	pop	r19
    427c:	2f 91       	pop	r18
    427e:	0f 90       	pop	r0
    4280:	0b be       	out	0x3b, r0	; 59
    4282:	0f 90       	pop	r0
    4284:	0f be       	out	0x3f, r0	; 63
    4286:	0f 90       	pop	r0
    4288:	1f 90       	pop	r1
    428a:	18 95       	reti

0000428c <__vector_32>:
    428c:	1f 92       	push	r1
    428e:	0f 92       	push	r0
    4290:	0f b6       	in	r0, 0x3f	; 63
    4292:	0f 92       	push	r0
    4294:	11 24       	eor	r1, r1
    4296:	0b b6       	in	r0, 0x3b	; 59
    4298:	0f 92       	push	r0
    429a:	2f 93       	push	r18
    429c:	3f 93       	push	r19
    429e:	4f 93       	push	r20
    42a0:	5f 93       	push	r21
    42a2:	6f 93       	push	r22
    42a4:	7f 93       	push	r23
    42a6:	8f 93       	push	r24
    42a8:	9f 93       	push	r25
    42aa:	af 93       	push	r26
    42ac:	bf 93       	push	r27
    42ae:	ef 93       	push	r30
    42b0:	ff 93       	push	r31
    42b2:	8a e0       	ldi	r24, 0x0A	; 10
    42b4:	96 e0       	ldi	r25, 0x06	; 6
    42b6:	99 df       	rcall	.-206    	; 0x41ea <_ZN11ConsoleUART5txIsrEv>
    42b8:	ff 91       	pop	r31
    42ba:	ef 91       	pop	r30
    42bc:	bf 91       	pop	r27
    42be:	af 91       	pop	r26
    42c0:	9f 91       	pop	r25
    42c2:	8f 91       	pop	r24
    42c4:	7f 91       	pop	r23
    42c6:	6f 91       	pop	r22
    42c8:	5f 91       	pop	r21
    42ca:	4f 91       	pop	r20
    42cc:	3f 91       	pop	r19
    42ce:	2f 91       	pop	r18
    42d0:	0f 90       	pop	r0
    42d2:	0b be       	out	0x3b, r0	; 59
    42d4:	0f 90       	pop	r0
    42d6:	0f be       	out	0x3f, r0	; 63
    42d8:	0f 90       	pop	r0
    42da:	1f 90       	pop	r1
    42dc:	18 95       	reti

000042de <_GLOBAL__sub_I___vector_30>:
{
    x_console.txIsr();
}

ConsoleUART::ConsoleUART() : 
m_rx_head(0), m_rx_tail(0), m_tx_head(0), m_tx_tail(0)
    42de:	ea e0       	ldi	r30, 0x0A	; 10
    42e0:	f6 e0       	ldi	r31, 0x06	; 6
    42e2:	10 82       	st	Z, r1
    42e4:	11 82       	std	Z+1, r1	; 0x01
    42e6:	10 92 4c 06 	sts	0x064C, r1	; 0x80064c <x_console+0x42>
    42ea:	10 92 4d 06 	sts	0x064D, r1	; 0x80064d <x_console+0x43>
    42ee:	08 95       	ret

000042f0 <_ZN11DistanceADCC1Ev>:
unsigned int DistanceADC::calculateCentiMeter(unsigned int millivolt)
{
    unsigned long centimeter = 1000;
    //return (centimeter * 27.61) / (millivolt)
    return (centimeter * 23) / (millivolt + 50);
}
    42f0:	fc 01       	movw	r30, r24
    42f2:	10 82       	st	Z, r1
    42f4:	12 82       	std	Z+2, r1	; 0x02
    42f6:	11 82       	std	Z+1, r1	; 0x01
    42f8:	8f ef       	ldi	r24, 0xFF	; 255
    42fa:	93 e0       	ldi	r25, 0x03	; 3
    42fc:	a0 e0       	ldi	r26, 0x00	; 0
    42fe:	b0 e0       	ldi	r27, 0x00	; 0
    4300:	83 83       	std	Z+3, r24	; 0x03
    4302:	94 83       	std	Z+4, r25	; 0x04
    4304:	a5 83       	std	Z+5, r26	; 0x05
    4306:	b6 83       	std	Z+6, r27	; 0x06
    4308:	88 e8       	ldi	r24, 0x88	; 136
    430a:	93 e1       	ldi	r25, 0x13	; 19
    430c:	a0 e0       	ldi	r26, 0x00	; 0
    430e:	b0 e0       	ldi	r27, 0x00	; 0
    4310:	87 83       	std	Z+7, r24	; 0x07
    4312:	90 87       	std	Z+8, r25	; 0x08
    4314:	a1 87       	std	Z+9, r26	; 0x09
    4316:	b2 87       	std	Z+10, r27	; 0x0a
    4318:	08 95       	ret

0000431a <_ZN11DistanceADC5beginEv>:
    431a:	32 9a       	sbi	0x06, 2	; 6
    431c:	31 9a       	sbi	0x06, 1	; 6
    431e:	30 9a       	sbi	0x06, 0	; 6
    4320:	3e 9a       	sbi	0x07, 6	; 7
    4322:	37 9a       	sbi	0x06, 7	; 6
    4324:	08 95       	ret

00004326 <_ZN11DistanceADC8readAdc0Ev>:
    4326:	fc 01       	movw	r30, r24
    4328:	97 b1       	in	r25, 0x07	; 7
    432a:	90 7f       	andi	r25, 0xF0	; 240
    432c:	97 b9       	out	0x07, r25	; 7
    432e:	97 b1       	in	r25, 0x07	; 7
    4330:	80 81       	ld	r24, Z
    4332:	89 2b       	or	r24, r25
    4334:	87 b9       	out	0x07, r24	; 7
    4336:	36 9a       	sbi	0x06, 6	; 6
    4338:	36 99       	sbic	0x06, 6	; 6
    433a:	fe cf       	rjmp	.-4      	; 0x4338 <_ZN11DistanceADC8readAdc0Ev+0x12>
    433c:	84 b1       	in	r24, 0x04	; 4
    433e:	95 b1       	in	r25, 0x05	; 5
    4340:	08 95       	ret

00004342 <_ZN11DistanceADC18calculateMilliVoltEj>:
    4342:	af 92       	push	r10
    4344:	bf 92       	push	r11
    4346:	cf 92       	push	r12
    4348:	df 92       	push	r13
    434a:	ef 92       	push	r14
    434c:	ff 92       	push	r15
    434e:	0f 93       	push	r16
    4350:	1f 93       	push	r17
    4352:	fc 01       	movw	r30, r24
    4354:	e3 80       	ldd	r14, Z+3	; 0x03
    4356:	f4 80       	ldd	r15, Z+4	; 0x04
    4358:	05 81       	ldd	r16, Z+5	; 0x05
    435a:	16 81       	ldd	r17, Z+6	; 0x06
    435c:	80 e0       	ldi	r24, 0x00	; 0
    435e:	90 e0       	ldi	r25, 0x00	; 0
    4360:	22 85       	ldd	r18, Z+10	; 0x0a
    4362:	2f 93       	push	r18
    4364:	21 85       	ldd	r18, Z+9	; 0x09
    4366:	2f 93       	push	r18
    4368:	20 85       	ldd	r18, Z+8	; 0x08
    436a:	2f 93       	push	r18
    436c:	27 81       	ldd	r18, Z+7	; 0x07
    436e:	2f 93       	push	r18
    4370:	a1 2c       	mov	r10, r1
    4372:	b1 2c       	mov	r11, r1
    4374:	65 01       	movw	r12, r10
    4376:	20 e0       	ldi	r18, 0x00	; 0
    4378:	30 e0       	ldi	r19, 0x00	; 0
    437a:	a9 01       	movw	r20, r18
    437c:	21 d2       	rcall	.+1090   	; 0x47c0 <_Z3mapmmmmm>
    437e:	0f 90       	pop	r0
    4380:	0f 90       	pop	r0
    4382:	0f 90       	pop	r0
    4384:	0f 90       	pop	r0
    4386:	1f 91       	pop	r17
    4388:	0f 91       	pop	r16
    438a:	ff 90       	pop	r15
    438c:	ef 90       	pop	r14
    438e:	df 90       	pop	r13
    4390:	cf 90       	pop	r12
    4392:	bf 90       	pop	r11
    4394:	af 90       	pop	r10
    4396:	08 95       	ret

00004398 <_ZN11DistanceADC11getDistanceEv>:
    4398:	cf 93       	push	r28
    439a:	df 93       	push	r29
    439c:	ec 01       	movw	r28, r24
    439e:	c3 df       	rcall	.-122    	; 0x4326 <_ZN11DistanceADC8readAdc0Ev>
    43a0:	bc 01       	movw	r22, r24
    43a2:	ce 01       	movw	r24, r28
    43a4:	ce df       	rcall	.-100    	; 0x4342 <_ZN11DistanceADC18calculateMilliVoltEj>
    43a6:	c2 96       	adiw	r24, 0x32	; 50
    43a8:	9c 01       	movw	r18, r24
    43aa:	40 e0       	ldi	r20, 0x00	; 0
    43ac:	50 e0       	ldi	r21, 0x00	; 0
    43ae:	68 ed       	ldi	r22, 0xD8	; 216
    43b0:	79 e5       	ldi	r23, 0x59	; 89
    43b2:	80 e0       	ldi	r24, 0x00	; 0
    43b4:	90 e0       	ldi	r25, 0x00	; 0
    43b6:	0e 94 70 2a 	call	0x54e0	; 0x54e0 <__udivmodsi4>
    43ba:	c9 01       	movw	r24, r18
    43bc:	df 91       	pop	r29
    43be:	cf 91       	pop	r28
    43c0:	08 95       	ret

000043c2 <_ZN11DistanceADC3isrEv>:
    43c2:	cf 93       	push	r28
    43c4:	df 93       	push	r29
    43c6:	ec 01       	movw	r28, r24
    43c8:	64 b1       	in	r22, 0x04	; 4
    43ca:	75 b1       	in	r23, 0x05	; 5
    43cc:	7c 87       	std	Y+12, r23	; 0x0c
    43ce:	6b 87       	std	Y+11, r22	; 0x0b
    43d0:	b8 df       	rcall	.-144    	; 0x4342 <_ZN11DistanceADC18calculateMilliVoltEj>
    43d2:	c2 96       	adiw	r24, 0x32	; 50
    43d4:	9c 01       	movw	r18, r24
    43d6:	40 e0       	ldi	r20, 0x00	; 0
    43d8:	50 e0       	ldi	r21, 0x00	; 0
    43da:	68 ed       	ldi	r22, 0xD8	; 216
    43dc:	79 e5       	ldi	r23, 0x59	; 89
    43de:	80 e0       	ldi	r24, 0x00	; 0
    43e0:	90 e0       	ldi	r25, 0x00	; 0
    43e2:	0e 94 70 2a 	call	0x54e0	; 0x54e0 <__udivmodsi4>
    43e6:	3a 83       	std	Y+2, r19	; 0x02
    43e8:	29 83       	std	Y+1, r18	; 0x01
    43ea:	80 91 2c 03 	lds	r24, 0x032C	; 0x80032c <x_manual_mode>
    43ee:	81 11       	cpse	r24, r1
    43f0:	0a c0       	rjmp	.+20     	; 0x4406 <_ZN11DistanceADC3isrEv+0x44>
    43f2:	80 91 2d 03 	lds	r24, 0x032D	; 0x80032d <x_showup>
    43f6:	88 23       	and	r24, r24
    43f8:	29 f0       	breq	.+10     	; 0x4404 <_ZN11DistanceADC3isrEv+0x42>
    43fa:	6e ee       	ldi	r22, 0xEE	; 238
    43fc:	72 e0       	ldi	r23, 0x02	; 2
    43fe:	8a e0       	ldi	r24, 0x0A	; 10
    4400:	96 e0       	ldi	r25, 0x06	; 6
    4402:	90 de       	rcall	.-736    	; 0x4124 <_ZN11ConsoleUART5writeEPKc>
    4404:	36 9a       	sbi	0x06, 6	; 6
    4406:	df 91       	pop	r29
    4408:	cf 91       	pop	r28
    440a:	08 95       	ret

0000440c <__vector_21>:
    440c:	1f 92       	push	r1
    440e:	0f 92       	push	r0
    4410:	0f b6       	in	r0, 0x3f	; 63
    4412:	0f 92       	push	r0
    4414:	11 24       	eor	r1, r1
    4416:	0b b6       	in	r0, 0x3b	; 59
    4418:	0f 92       	push	r0
    441a:	2f 93       	push	r18
    441c:	3f 93       	push	r19
    441e:	4f 93       	push	r20
    4420:	5f 93       	push	r21
    4422:	6f 93       	push	r22
    4424:	7f 93       	push	r23
    4426:	8f 93       	push	r24
    4428:	9f 93       	push	r25
    442a:	af 93       	push	r26
    442c:	bf 93       	push	r27
    442e:	ef 93       	push	r30
    4430:	ff 93       	push	r31
    4432:	8e e8       	ldi	r24, 0x8E	; 142
    4434:	96 e0       	ldi	r25, 0x06	; 6
    4436:	c5 df       	rcall	.-118    	; 0x43c2 <_ZN11DistanceADC3isrEv>
    4438:	ff 91       	pop	r31
    443a:	ef 91       	pop	r30
    443c:	bf 91       	pop	r27
    443e:	af 91       	pop	r26
    4440:	9f 91       	pop	r25
    4442:	8f 91       	pop	r24
    4444:	7f 91       	pop	r23
    4446:	6f 91       	pop	r22
    4448:	5f 91       	pop	r21
    444a:	4f 91       	pop	r20
    444c:	3f 91       	pop	r19
    444e:	2f 91       	pop	r18
    4450:	0f 90       	pop	r0
    4452:	0b be       	out	0x3b, r0	; 59
    4454:	0f 90       	pop	r0
    4456:	0f be       	out	0x3f, r0	; 63
    4458:	0f 90       	pop	r0
    445a:	1f 90       	pop	r1
    445c:	18 95       	reti

0000445e <_GLOBAL__sub_I___vector_21>:

DistanceADC x_distance;
    445e:	8e e8       	ldi	r24, 0x8E	; 142
    4460:	96 e0       	ldi	r25, 0x06	; 6
    4462:	46 cf       	rjmp	.-372    	; 0x42f0 <_ZN11DistanceADCC1Ev>
    4464:	08 95       	ret

00004466 <_ZN12RotationINTRC1Ev>:

RotationINTR::RotationINTR() : m_rotation(0), m_msec(0), m_meter_per_sec(0)
{
}

RotationINTR::~RotationINTR()
    4466:	fc 01       	movw	r30, r24
    4468:	10 82       	st	Z, r1
    446a:	11 82       	std	Z+1, r1	; 0x01
    446c:	12 82       	std	Z+2, r1	; 0x02
    446e:	13 82       	std	Z+3, r1	; 0x03
    4470:	14 82       	std	Z+4, r1	; 0x04
    4472:	15 82       	std	Z+5, r1	; 0x05
    4474:	16 82       	std	Z+6, r1	; 0x06
    4476:	17 82       	std	Z+7, r1	; 0x07
    4478:	11 86       	std	Z+9, r1	; 0x09
    447a:	10 86       	std	Z+8, r1	; 0x08
    447c:	08 95       	ret

0000447e <_ZN12RotationINTR5beginEv>:
}

int RotationINTR::begin()
{
    // rising edge interrupt
    sbi(EICRA, ISC01);
    447e:	ea e6       	ldi	r30, 0x6A	; 106
    4480:	f0 e0       	ldi	r31, 0x00	; 0
    4482:	80 81       	ld	r24, Z
    4484:	82 60       	ori	r24, 0x02	; 2
    4486:	80 83       	st	Z, r24
    sbi(EICRA, ISC00);
    4488:	80 81       	ld	r24, Z
    448a:	81 60       	ori	r24, 0x01	; 1
    448c:	80 83       	st	Z, r24
    sbi(EIMSK, INT0);
    448e:	89 b7       	in	r24, 0x39	; 57
    4490:	81 60       	ori	r24, 0x01	; 1
    4492:	89 bf       	out	0x39, r24	; 57
    return 1;
}
    4494:	81 e0       	ldi	r24, 0x01	; 1
    4496:	90 e0       	ldi	r25, 0x00	; 0
    4498:	08 95       	ret

0000449a <_ZN12RotationINTR11getVelocityEv>:

unsigned int RotationINTR::getVelocity()
{
    return m_meter_per_sec;
}
    449a:	fc 01       	movw	r30, r24
    449c:	80 85       	ldd	r24, Z+8	; 0x08
    449e:	91 85       	ldd	r25, Z+9	; 0x09
    44a0:	08 95       	ret

000044a2 <_ZN12RotationINTR3isrEv>:

void RotationINTR::isr()
{
    44a2:	cf 92       	push	r12
    44a4:	df 92       	push	r13
    44a6:	ef 92       	push	r14
    44a8:	ff 92       	push	r15
    44aa:	cf 93       	push	r28
    44ac:	df 93       	push	r29
    m_rotation++;
    44ae:	fc 01       	movw	r30, r24
    44b0:	40 81       	ld	r20, Z
    44b2:	51 81       	ldd	r21, Z+1	; 0x01
    44b4:	62 81       	ldd	r22, Z+2	; 0x02
    44b6:	73 81       	ldd	r23, Z+3	; 0x03
    44b8:	4f 5f       	subi	r20, 0xFF	; 255
    44ba:	5f 4f       	sbci	r21, 0xFF	; 255
    44bc:	6f 4f       	sbci	r22, 0xFF	; 255
    44be:	7f 4f       	sbci	r23, 0xFF	; 255
    44c0:	40 83       	st	Z, r20
    44c2:	51 83       	std	Z+1, r21	; 0x01
    44c4:	62 83       	std	Z+2, r22	; 0x02
    44c6:	73 83       	std	Z+3, r23	; 0x03
    if (x_manual_mode) return;
    44c8:	20 91 2c 03 	lds	r18, 0x032C	; 0x80032c <x_manual_mode>
    44cc:	21 11       	cpse	r18, r1
    44ce:	29 c0       	rjmp	.+82     	; 0x4522 <_ZN12RotationINTR3isrEv+0x80>
    44d0:	ec 01       	movw	r28, r24
    if (x_showup) x_console.write("R");
    44d2:	80 91 2d 03 	lds	r24, 0x032D	; 0x80032d <x_showup>
    44d6:	88 23       	and	r24, r24
    44d8:	29 f0       	breq	.+10     	; 0x44e4 <_ZN12RotationINTR3isrEv+0x42>
    44da:	60 ef       	ldi	r22, 0xF0	; 240
    44dc:	72 e0       	ldi	r23, 0x02	; 2
    44de:	8a e0       	ldi	r24, 0x0A	; 10
    44e0:	96 e0       	ldi	r25, 0x06	; 6
    44e2:	20 de       	rcall	.-960    	; 0x4124 <_ZN11ConsoleUART5writeEPKc>
    
    unsigned long t = x_tick.getMillisec();
    44e4:	85 ea       	ldi	r24, 0xA5	; 165
    44e6:	96 e0       	ldi	r25, 0x06	; 6
    44e8:	64 d0       	rcall	.+200    	; 0x45b2 <_ZN9TickTIMER11getMillisecEv>
    44ea:	6b 01       	movw	r12, r22
    44ec:	7c 01       	movw	r14, r24
    if (m_msec > t) return; // ignore overflow
    44ee:	8c 81       	ldd	r24, Y+4	; 0x04
    44f0:	9d 81       	ldd	r25, Y+5	; 0x05
    44f2:	ae 81       	ldd	r26, Y+6	; 0x06
    44f4:	bf 81       	ldd	r27, Y+7	; 0x07
    44f6:	c8 16       	cp	r12, r24
    44f8:	d9 06       	cpc	r13, r25
    44fa:	ea 06       	cpc	r14, r26
    44fc:	fb 06       	cpc	r15, r27
    44fe:	88 f0       	brcs	.+34     	; 0x4522 <_ZN12RotationINTR3isrEv+0x80>
    m_meter_per_sec = (WHEEL_SIZE * 1000) / (t - m_msec);
    4500:	a7 01       	movw	r20, r14
    4502:	96 01       	movw	r18, r12
    4504:	28 1b       	sub	r18, r24
    4506:	39 0b       	sbc	r19, r25
    4508:	4a 0b       	sbc	r20, r26
    450a:	5b 0b       	sbc	r21, r27
    450c:	60 ed       	ldi	r22, 0xD0	; 208
    450e:	77 e0       	ldi	r23, 0x07	; 7
    4510:	80 e0       	ldi	r24, 0x00	; 0
    4512:	90 e0       	ldi	r25, 0x00	; 0
    4514:	e5 d7       	rcall	.+4042   	; 0x54e0 <__udivmodsi4>
    4516:	39 87       	std	Y+9, r19	; 0x09
    4518:	28 87       	std	Y+8, r18	; 0x08
    m_msec = t;
    451a:	cc 82       	std	Y+4, r12	; 0x04
    451c:	dd 82       	std	Y+5, r13	; 0x05
    451e:	ee 82       	std	Y+6, r14	; 0x06
    4520:	ff 82       	std	Y+7, r15	; 0x07
}
    4522:	df 91       	pop	r29
    4524:	cf 91       	pop	r28
    4526:	ff 90       	pop	r15
    4528:	ef 90       	pop	r14
    452a:	df 90       	pop	r13
    452c:	cf 90       	pop	r12
    452e:	08 95       	ret

00004530 <__vector_1>:
#include "system/BluetoothUART.h"
#include "system/RotationINTR.h"
#include "main.h"

ISR(INT0_vect)
{
    4530:	1f 92       	push	r1
    4532:	0f 92       	push	r0
    4534:	0f b6       	in	r0, 0x3f	; 63
    4536:	0f 92       	push	r0
    4538:	11 24       	eor	r1, r1
    453a:	0b b6       	in	r0, 0x3b	; 59
    453c:	0f 92       	push	r0
    453e:	2f 93       	push	r18
    4540:	3f 93       	push	r19
    4542:	4f 93       	push	r20
    4544:	5f 93       	push	r21
    4546:	6f 93       	push	r22
    4548:	7f 93       	push	r23
    454a:	8f 93       	push	r24
    454c:	9f 93       	push	r25
    454e:	af 93       	push	r26
    4550:	bf 93       	push	r27
    4552:	ef 93       	push	r30
    4554:	ff 93       	push	r31
    x_rotation.isr();
    4556:	8b e9       	ldi	r24, 0x9B	; 155
    4558:	96 e0       	ldi	r25, 0x06	; 6
    455a:	a3 df       	rcall	.-186    	; 0x44a2 <_ZN12RotationINTR3isrEv>
}
    455c:	ff 91       	pop	r31
    455e:	ef 91       	pop	r30
    4560:	bf 91       	pop	r27
    4562:	af 91       	pop	r26
    4564:	9f 91       	pop	r25
    4566:	8f 91       	pop	r24
    4568:	7f 91       	pop	r23
    456a:	6f 91       	pop	r22
    456c:	5f 91       	pop	r21
    456e:	4f 91       	pop	r20
    4570:	3f 91       	pop	r19
    4572:	2f 91       	pop	r18
    4574:	0f 90       	pop	r0
    4576:	0b be       	out	0x3b, r0	; 59
    4578:	0f 90       	pop	r0
    457a:	0f be       	out	0x3f, r0	; 63
    457c:	0f 90       	pop	r0
    457e:	1f 90       	pop	r1
    4580:	18 95       	reti

00004582 <_GLOBAL__sub_I___vector_1>:
    if (m_msec > t) return; // ignore overflow
    m_meter_per_sec = (WHEEL_SIZE * 1000) / (t - m_msec);
    m_msec = t;
}

RotationINTR x_rotation;
    4582:	8b e9       	ldi	r24, 0x9B	; 155
    4584:	96 e0       	ldi	r25, 0x06	; 6
    4586:	6f cf       	rjmp	.-290    	; 0x4466 <_ZN12RotationINTRC1Ev>
    4588:	08 95       	ret

0000458a <_ZN9TickTIMER5beginEj>:
}

unsigned long TickTIMER::getSec()
{
    return m_sec;
}
    458a:	fc 01       	movw	r30, r24
    458c:	71 87       	std	Z+9, r23	; 0x09
    458e:	60 87       	std	Z+8, r22	; 0x08
    4590:	83 b7       	in	r24, 0x33	; 51
    4592:	84 60       	ori	r24, 0x04	; 4
    4594:	83 bf       	out	0x33, r24	; 51
    4596:	83 b7       	in	r24, 0x33	; 51
    4598:	88 60       	ori	r24, 0x08	; 8
    459a:	83 bf       	out	0x33, r24	; 51
    459c:	12 be       	out	0x32, r1	; 50
    459e:	89 ef       	ldi	r24, 0xF9	; 249
    45a0:	81 bf       	out	0x31, r24	; 49
    45a2:	87 b7       	in	r24, 0x37	; 55
    45a4:	82 60       	ori	r24, 0x02	; 2
    45a6:	87 bf       	out	0x37, r24	; 55
    45a8:	08 95       	ret

000045aa <_ZN9TickTIMER3endEv>:
    45aa:	87 b7       	in	r24, 0x37	; 55
    45ac:	8d 7f       	andi	r24, 0xFD	; 253
    45ae:	87 bf       	out	0x37, r24	; 55
    45b0:	08 95       	ret

000045b2 <_ZN9TickTIMER11getMillisecEv>:
    45b2:	fc 01       	movw	r30, r24
    45b4:	60 81       	ld	r22, Z
    45b6:	71 81       	ldd	r23, Z+1	; 0x01
    45b8:	82 81       	ldd	r24, Z+2	; 0x02
    45ba:	93 81       	ldd	r25, Z+3	; 0x03
    45bc:	08 95       	ret

000045be <_ZN9TickTIMER11incIntervalEv>:

void TickTIMER::incInterval()
{
    45be:	cf 93       	push	r28
    45c0:	df 93       	push	r29
    45c2:	cd b7       	in	r28, 0x3d	; 61
    45c4:	de b7       	in	r29, 0x3e	; 62
    45c6:	2a 97       	sbiw	r28, 0x0a	; 10
    45c8:	0f b6       	in	r0, 0x3f	; 63
    45ca:	f8 94       	cli
    45cc:	de bf       	out	0x3e, r29	; 62
    45ce:	0f be       	out	0x3f, r0	; 63
    45d0:	cd bf       	out	0x3d, r28	; 61
    45d2:	fc 01       	movw	r30, r24
    m_interval++;
    45d4:	20 85       	ldd	r18, Z+8	; 0x08
    45d6:	31 85       	ldd	r19, Z+9	; 0x09
    45d8:	c9 01       	movw	r24, r18
    45da:	01 96       	adiw	r24, 0x01	; 1
    45dc:	91 87       	std	Z+9, r25	; 0x09
    45de:	80 87       	std	Z+8, r24	; 0x08
    char str[10];
    wordToString(m_interval, str);
    45e0:	be 01       	movw	r22, r28
    45e2:	6f 5f       	subi	r22, 0xFF	; 255
    45e4:	7f 4f       	sbci	r23, 0xFF	; 255
    45e6:	6b d1       	rcall	.+726    	; 0x48be <_Z12wordToStringjPc>
    x_console.write("\ninterval is ");
    45e8:	62 ef       	ldi	r22, 0xF2	; 242
    45ea:	72 e0       	ldi	r23, 0x02	; 2
    45ec:	8a e0       	ldi	r24, 0x0A	; 10
    45ee:	96 e0       	ldi	r25, 0x06	; 6
    45f0:	99 dd       	rcall	.-1230   	; 0x4124 <_ZN11ConsoleUART5writeEPKc>
    x_console.write(str);
    45f2:	be 01       	movw	r22, r28
    45f4:	6f 5f       	subi	r22, 0xFF	; 255
    45f6:	7f 4f       	sbci	r23, 0xFF	; 255
    45f8:	8a e0       	ldi	r24, 0x0A	; 10
    45fa:	96 e0       	ldi	r25, 0x06	; 6
    45fc:	93 dd       	rcall	.-1242   	; 0x4124 <_ZN11ConsoleUART5writeEPKc>
    x_console.write("\n");
    45fe:	62 ee       	ldi	r22, 0xE2	; 226
    4600:	71 e0       	ldi	r23, 0x01	; 1
    4602:	8a e0       	ldi	r24, 0x0A	; 10
    4604:	96 e0       	ldi	r25, 0x06	; 6
    4606:	8e dd       	rcall	.-1252   	; 0x4124 <_ZN11ConsoleUART5writeEPKc>
}
    4608:	2a 96       	adiw	r28, 0x0a	; 10
    460a:	0f b6       	in	r0, 0x3f	; 63
    460c:	f8 94       	cli
    460e:	de bf       	out	0x3e, r29	; 62
    4610:	0f be       	out	0x3f, r0	; 63
    4612:	cd bf       	out	0x3d, r28	; 61
    4614:	df 91       	pop	r29
    4616:	cf 91       	pop	r28
    4618:	08 95       	ret

0000461a <_ZN9TickTIMER11decIntervalEv>:

void TickTIMER::decInterval()
{
    461a:	cf 93       	push	r28
    461c:	df 93       	push	r29
    461e:	cd b7       	in	r28, 0x3d	; 61
    4620:	de b7       	in	r29, 0x3e	; 62
    4622:	2a 97       	sbiw	r28, 0x0a	; 10
    4624:	0f b6       	in	r0, 0x3f	; 63
    4626:	f8 94       	cli
    4628:	de bf       	out	0x3e, r29	; 62
    462a:	0f be       	out	0x3f, r0	; 63
    462c:	cd bf       	out	0x3d, r28	; 61
    if (m_interval < 2) {
    462e:	fc 01       	movw	r30, r24
    4630:	20 85       	ldd	r18, Z+8	; 0x08
    4632:	31 85       	ldd	r19, Z+9	; 0x09
    4634:	22 30       	cpi	r18, 0x02	; 2
    4636:	31 05       	cpc	r19, r1
    4638:	30 f4       	brcc	.+12     	; 0x4646 <_ZN9TickTIMER11decIntervalEv+0x2c>
        x_console.write("\ninterval must be greater than 1\n");
    463a:	60 e0       	ldi	r22, 0x00	; 0
    463c:	73 e0       	ldi	r23, 0x03	; 3
    463e:	8a e0       	ldi	r24, 0x0A	; 10
    4640:	96 e0       	ldi	r25, 0x06	; 6
    4642:	70 dd       	rcall	.-1312   	; 0x4124 <_ZN11ConsoleUART5writeEPKc>
    4644:	1a c0       	rjmp	.+52     	; 0x467a <_ZN9TickTIMER11decIntervalEv+0x60>
        return;
    }
    m_interval--;
    4646:	21 50       	subi	r18, 0x01	; 1
    4648:	31 09       	sbc	r19, r1
    464a:	fc 01       	movw	r30, r24
    464c:	31 87       	std	Z+9, r19	; 0x09
    464e:	20 87       	std	Z+8, r18	; 0x08
    char str[10];
    wordToString(m_interval, str);
    4650:	be 01       	movw	r22, r28
    4652:	6f 5f       	subi	r22, 0xFF	; 255
    4654:	7f 4f       	sbci	r23, 0xFF	; 255
    4656:	c9 01       	movw	r24, r18
    4658:	32 d1       	rcall	.+612    	; 0x48be <_Z12wordToStringjPc>
    x_console.write("\ninterval is ");
    465a:	62 ef       	ldi	r22, 0xF2	; 242
    465c:	72 e0       	ldi	r23, 0x02	; 2
    465e:	8a e0       	ldi	r24, 0x0A	; 10
    4660:	96 e0       	ldi	r25, 0x06	; 6
    4662:	60 dd       	rcall	.-1344   	; 0x4124 <_ZN11ConsoleUART5writeEPKc>
    x_console.write(str);
    4664:	be 01       	movw	r22, r28
    4666:	6f 5f       	subi	r22, 0xFF	; 255
    4668:	7f 4f       	sbci	r23, 0xFF	; 255
    466a:	8a e0       	ldi	r24, 0x0A	; 10
    466c:	96 e0       	ldi	r25, 0x06	; 6
    466e:	5a dd       	rcall	.-1356   	; 0x4124 <_ZN11ConsoleUART5writeEPKc>
    x_console.write("\n");
    4670:	62 ee       	ldi	r22, 0xE2	; 226
    4672:	71 e0       	ldi	r23, 0x01	; 1
    4674:	8a e0       	ldi	r24, 0x0A	; 10
    4676:	96 e0       	ldi	r25, 0x06	; 6
    4678:	55 dd       	rcall	.-1366   	; 0x4124 <_ZN11ConsoleUART5writeEPKc>
}
    467a:	2a 96       	adiw	r28, 0x0a	; 10
    467c:	0f b6       	in	r0, 0x3f	; 63
    467e:	f8 94       	cli
    4680:	de bf       	out	0x3e, r29	; 62
    4682:	0f be       	out	0x3f, r0	; 63
    4684:	cd bf       	out	0x3d, r28	; 61
    4686:	df 91       	pop	r29
    4688:	cf 91       	pop	r28
    468a:	08 95       	ret

0000468c <_ZN9TickTIMER3isrEv>:

void TickTIMER::isr()
{
    468c:	0f 93       	push	r16
    468e:	1f 93       	push	r17
    4690:	cf 93       	push	r28
    4692:	df 93       	push	r29
    4694:	cd b7       	in	r28, 0x3d	; 61
    4696:	de b7       	in	r29, 0x3e	; 62
    4698:	2a 97       	sbiw	r28, 0x0a	; 10
    469a:	0f b6       	in	r0, 0x3f	; 63
    469c:	f8 94       	cli
    469e:	de bf       	out	0x3e, r29	; 62
    46a0:	0f be       	out	0x3f, r0	; 63
    46a2:	cd bf       	out	0x3d, r28	; 61
    m_millisec++;
    46a4:	fc 01       	movw	r30, r24
    46a6:	40 81       	ld	r20, Z
    46a8:	51 81       	ldd	r21, Z+1	; 0x01
    46aa:	62 81       	ldd	r22, Z+2	; 0x02
    46ac:	73 81       	ldd	r23, Z+3	; 0x03
    46ae:	4f 5f       	subi	r20, 0xFF	; 255
    46b0:	5f 4f       	sbci	r21, 0xFF	; 255
    46b2:	6f 4f       	sbci	r22, 0xFF	; 255
    46b4:	7f 4f       	sbci	r23, 0xFF	; 255
    46b6:	40 83       	st	Z, r20
    46b8:	51 83       	std	Z+1, r21	; 0x01
    46ba:	62 83       	std	Z+2, r22	; 0x02
    46bc:	73 83       	std	Z+3, r23	; 0x03
    if (x_manual_mode) return;
    46be:	20 91 2c 03 	lds	r18, 0x032C	; 0x80032c <x_manual_mode>
    46c2:	21 11       	cpse	r18, r1
    46c4:	36 c0       	rjmp	.+108    	; 0x4732 <_ZN9TickTIMER3isrEv+0xa6>
    46c6:	8c 01       	movw	r16, r24
    if (x_showup) x_console.write("T");
    46c8:	80 91 2d 03 	lds	r24, 0x032D	; 0x80032d <x_showup>
    46cc:	88 23       	and	r24, r24
    46ce:	29 f0       	breq	.+10     	; 0x46da <_ZN9TickTIMER3isrEv+0x4e>
    46d0:	62 e2       	ldi	r22, 0x22	; 34
    46d2:	73 e0       	ldi	r23, 0x03	; 3
    46d4:	8a e0       	ldi	r24, 0x0A	; 10
    46d6:	96 e0       	ldi	r25, 0x06	; 6
    46d8:	25 dd       	rcall	.-1462   	; 0x4124 <_ZN11ConsoleUART5writeEPKc>

    if (!(m_millisec % m_interval)) { // 20msec tick
    46da:	f8 01       	movw	r30, r16
    46dc:	20 85       	ldd	r18, Z+8	; 0x08
    46de:	31 85       	ldd	r19, Z+9	; 0x09
    46e0:	40 e0       	ldi	r20, 0x00	; 0
    46e2:	50 e0       	ldi	r21, 0x00	; 0
    46e4:	60 81       	ld	r22, Z
    46e6:	71 81       	ldd	r23, Z+1	; 0x01
    46e8:	82 81       	ldd	r24, Z+2	; 0x02
    46ea:	93 81       	ldd	r25, Z+3	; 0x03
    46ec:	f9 d6       	rcall	.+3570   	; 0x54e0 <__udivmodsi4>
    46ee:	67 2b       	or	r22, r23
    46f0:	68 2b       	or	r22, r24
    46f2:	69 2b       	or	r22, r25
    46f4:	f1 f4       	brne	.+60     	; 0x4732 <_ZN9TickTIMER3isrEv+0xa6>
        unsigned char d;
        char s[10];
        
        d = (unsigned char)(x_rotation.getVelocity());
    46f6:	8b e9       	ldi	r24, 0x9B	; 155
    46f8:	96 e0       	ldi	r25, 0x06	; 6
    46fa:	cf de       	rcall	.-610    	; 0x449a <_ZN12RotationINTR11getVelocityEv>
        byteToString('V', d, s);
    46fc:	ae 01       	movw	r20, r28
    46fe:	4f 5f       	subi	r20, 0xFF	; 255
    4700:	5f 4f       	sbci	r21, 0xFF	; 255
    4702:	68 2f       	mov	r22, r24
    4704:	86 e5       	ldi	r24, 0x56	; 86
    4706:	98 d0       	rcall	.+304    	; 0x4838 <_Z12byteToStringchPc>
        x_bluetooth.write(s);
    4708:	be 01       	movw	r22, r28
    470a:	6f 5f       	subi	r22, 0xFF	; 255
    470c:	7f 4f       	sbci	r23, 0xFF	; 255
    470e:	86 e8       	ldi	r24, 0x86	; 134
    4710:	95 e0       	ldi	r25, 0x05	; 5
        
        d = (unsigned char)(x_distance.getDistance());
    4712:	4b db       	rcall	.-2410   	; 0x3daa <_ZN13BluetoothUART5writeEPKc>
    4714:	8e e8       	ldi	r24, 0x8E	; 142
    4716:	96 e0       	ldi	r25, 0x06	; 6
        byteToString('D', d, s);
    4718:	3f de       	rcall	.-898    	; 0x4398 <_ZN11DistanceADC11getDistanceEv>
    471a:	ae 01       	movw	r20, r28
    471c:	4f 5f       	subi	r20, 0xFF	; 255
    471e:	5f 4f       	sbci	r21, 0xFF	; 255
    4720:	68 2f       	mov	r22, r24
    4722:	84 e4       	ldi	r24, 0x44	; 68
        x_bluetooth.write(s);
    4724:	89 d0       	rcall	.+274    	; 0x4838 <_Z12byteToStringchPc>
    4726:	be 01       	movw	r22, r28
    4728:	6f 5f       	subi	r22, 0xFF	; 255
    472a:	7f 4f       	sbci	r23, 0xFF	; 255
    472c:	86 e8       	ldi	r24, 0x86	; 134
    472e:	95 e0       	ldi	r25, 0x05	; 5
    4730:	3c db       	rcall	.-2440   	; 0x3daa <_ZN13BluetoothUART5writeEPKc>
    }
}
    4732:	2a 96       	adiw	r28, 0x0a	; 10
    4734:	0f b6       	in	r0, 0x3f	; 63
    4736:	f8 94       	cli
    4738:	de bf       	out	0x3e, r29	; 62
    473a:	0f be       	out	0x3f, r0	; 63
    473c:	cd bf       	out	0x3d, r28	; 61
    473e:	df 91       	pop	r29
    4740:	cf 91       	pop	r28
    4742:	1f 91       	pop	r17
    4744:	0f 91       	pop	r16
    4746:	08 95       	ret

00004748 <__vector_15>:
#include "system/RotationINTR.h"
#include "system/DistanceADC.h"
#include "system/TickTIMER.h"
#include "main.h"

ISR(TIMER0_COMP_vect) {
    4748:	1f 92       	push	r1
    474a:	0f 92       	push	r0
    474c:	0f b6       	in	r0, 0x3f	; 63
    474e:	0f 92       	push	r0
    4750:	11 24       	eor	r1, r1
    4752:	0b b6       	in	r0, 0x3b	; 59
    4754:	0f 92       	push	r0
    4756:	2f 93       	push	r18
    4758:	3f 93       	push	r19
    475a:	4f 93       	push	r20
    475c:	5f 93       	push	r21
    475e:	6f 93       	push	r22
    4760:	7f 93       	push	r23
    4762:	8f 93       	push	r24
    4764:	9f 93       	push	r25
    4766:	af 93       	push	r26
    4768:	bf 93       	push	r27
    476a:	ef 93       	push	r30
    476c:	ff 93       	push	r31
    x_tick.isr();
    476e:	85 ea       	ldi	r24, 0xA5	; 165
    4770:	96 e0       	ldi	r25, 0x06	; 6
    4772:	8c df       	rcall	.-232    	; 0x468c <_ZN9TickTIMER3isrEv>
}
    4774:	ff 91       	pop	r31
    4776:	ef 91       	pop	r30
    4778:	bf 91       	pop	r27
    477a:	af 91       	pop	r26
    477c:	9f 91       	pop	r25
    477e:	8f 91       	pop	r24
    4780:	7f 91       	pop	r23
    4782:	6f 91       	pop	r22
    4784:	5f 91       	pop	r21
    4786:	4f 91       	pop	r20
    4788:	3f 91       	pop	r19
    478a:	2f 91       	pop	r18
    478c:	0f 90       	pop	r0
    478e:	0b be       	out	0x3b, r0	; 59
    4790:	0f 90       	pop	r0
    4792:	0f be       	out	0x3f, r0	; 63
    4794:	0f 90       	pop	r0
    4796:	1f 90       	pop	r1
    4798:	18 95       	reti

0000479a <_GLOBAL__sub_I___vector_15>:

TickTIMER::TickTIMER() : m_millisec(0), m_sec(0)
    479a:	e5 ea       	ldi	r30, 0xA5	; 165
    479c:	f6 e0       	ldi	r31, 0x06	; 6
    479e:	10 82       	st	Z, r1
    47a0:	11 82       	std	Z+1, r1	; 0x01
    47a2:	12 82       	std	Z+2, r1	; 0x02
    47a4:	13 82       	std	Z+3, r1	; 0x03
    47a6:	14 82       	std	Z+4, r1	; 0x04
    47a8:	15 82       	std	Z+5, r1	; 0x05
    47aa:	16 82       	std	Z+6, r1	; 0x06
    47ac:	17 82       	std	Z+7, r1	; 0x07
    47ae:	08 95       	ret

000047b0 <_GLOBAL__sub_D___vector_15>:
{
}

TickTIMER::~TickTIMER()
{
    end();
    47b0:	85 ea       	ldi	r24, 0xA5	; 165
    47b2:	96 e0       	ldi	r25, 0x06	; 6
    47b4:	fa ce       	rjmp	.-524    	; 0x45aa <_ZN9TickTIMER3endEv>
    47b6:	08 95       	ret

000047b8 <_Znwj>:
    str[2] = 0x30 + ((num % 10000) / 1000);
    str[3] = 0x30 + ((num % 1000) / 100);
    str[4] = 0x30 + ((num % 100) / 10);
    str[5] = 0x30 + (num  % 10);
    str[6] = 0;
}
    47b8:	d7 c6       	rjmp	.+3502   	; 0x5568 <malloc>
    47ba:	08 95       	ret

000047bc <_ZdlPv>:
    47bc:	6d c7       	rjmp	.+3802   	; 0x5698 <free>
    47be:	08 95       	ret

000047c0 <_Z3mapmmmmm>:
    47c0:	4f 92       	push	r4
    47c2:	5f 92       	push	r5
    47c4:	6f 92       	push	r6
    47c6:	7f 92       	push	r7
    47c8:	af 92       	push	r10
    47ca:	bf 92       	push	r11
    47cc:	cf 92       	push	r12
    47ce:	df 92       	push	r13
    47d0:	ef 92       	push	r14
    47d2:	ff 92       	push	r15
    47d4:	0f 93       	push	r16
    47d6:	1f 93       	push	r17
    47d8:	cf 93       	push	r28
    47da:	df 93       	push	r29
    47dc:	cd b7       	in	r28, 0x3d	; 61
    47de:	de b7       	in	r29, 0x3e	; 62
    47e0:	29 01       	movw	r4, r18
    47e2:	3a 01       	movw	r6, r20
    47e4:	9b 01       	movw	r18, r22
    47e6:	ac 01       	movw	r20, r24
    47e8:	24 19       	sub	r18, r4
    47ea:	35 09       	sbc	r19, r5
    47ec:	46 09       	sbc	r20, r6
    47ee:	57 09       	sbc	r21, r7
    47f0:	89 89       	ldd	r24, Y+17	; 0x11
    47f2:	9a 89       	ldd	r25, Y+18	; 0x12
    47f4:	ab 89       	ldd	r26, Y+19	; 0x13
    47f6:	bc 89       	ldd	r27, Y+20	; 0x14
    47f8:	bc 01       	movw	r22, r24
    47fa:	cd 01       	movw	r24, r26
    47fc:	6a 19       	sub	r22, r10
    47fe:	7b 09       	sbc	r23, r11
    4800:	8c 09       	sbc	r24, r12
    4802:	9d 09       	sbc	r25, r13
    4804:	5e d6       	rcall	.+3260   	; 0x54c2 <__mulsi3>
    4806:	a8 01       	movw	r20, r16
    4808:	97 01       	movw	r18, r14
    480a:	24 19       	sub	r18, r4
    480c:	35 09       	sbc	r19, r5
    480e:	46 09       	sbc	r20, r6
    4810:	57 09       	sbc	r21, r7
    4812:	66 d6       	rcall	.+3276   	; 0x54e0 <__udivmodsi4>
    4814:	c9 01       	movw	r24, r18
    4816:	8a 0d       	add	r24, r10
    4818:	9b 1d       	adc	r25, r11
    481a:	df 91       	pop	r29
    481c:	cf 91       	pop	r28
    481e:	1f 91       	pop	r17
    4820:	0f 91       	pop	r16
    4822:	ff 90       	pop	r15
    4824:	ef 90       	pop	r14
    4826:	df 90       	pop	r13
    4828:	cf 90       	pop	r12
    482a:	bf 90       	pop	r11
    482c:	af 90       	pop	r10
    482e:	7f 90       	pop	r7
    4830:	6f 90       	pop	r6
    4832:	5f 90       	pop	r5
    4834:	4f 90       	pop	r4
    4836:	08 95       	ret

00004838 <_Z12byteToStringchPc>:
    4838:	cf 93       	push	r28
    483a:	df 93       	push	r29
    483c:	ea 01       	movw	r28, r20
    483e:	e6 2f       	mov	r30, r22
    4840:	f0 e0       	ldi	r31, 0x00	; 0
    4842:	88 83       	st	Y, r24
    4844:	9f 01       	movw	r18, r30
    4846:	36 95       	lsr	r19
    4848:	27 95       	ror	r18
    484a:	36 95       	lsr	r19
    484c:	27 95       	ror	r18
    484e:	ab e7       	ldi	r26, 0x7B	; 123
    4850:	b4 e1       	ldi	r27, 0x14	; 20
    4852:	71 d6       	rcall	.+3298   	; 0x5536 <__umulhisi3>
    4854:	96 95       	lsr	r25
    4856:	87 95       	ror	r24
    4858:	20 e3       	ldi	r18, 0x30	; 48
    485a:	28 0f       	add	r18, r24
    485c:	29 83       	std	Y+1, r18	; 0x01
    485e:	44 e6       	ldi	r20, 0x64	; 100
    4860:	48 9f       	mul	r20, r24
    4862:	90 01       	movw	r18, r0
    4864:	49 9f       	mul	r20, r25
    4866:	30 0d       	add	r19, r0
    4868:	11 24       	eor	r1, r1
    486a:	cf 01       	movw	r24, r30
    486c:	82 1b       	sub	r24, r18
    486e:	93 0b       	sbc	r25, r19
    4870:	9c 01       	movw	r18, r24
    4872:	ad ec       	ldi	r26, 0xCD	; 205
    4874:	bc ec       	ldi	r27, 0xCC	; 204
    4876:	5f d6       	rcall	.+3262   	; 0x5536 <__umulhisi3>
    4878:	96 95       	lsr	r25
    487a:	87 95       	ror	r24
    487c:	96 95       	lsr	r25
    487e:	87 95       	ror	r24
    4880:	96 95       	lsr	r25
    4882:	87 95       	ror	r24
    4884:	80 5d       	subi	r24, 0xD0	; 208
    4886:	8a 83       	std	Y+2, r24	; 0x02
    4888:	9f 01       	movw	r18, r30
    488a:	55 d6       	rcall	.+3242   	; 0x5536 <__umulhisi3>
    488c:	96 95       	lsr	r25
    488e:	87 95       	ror	r24
    4890:	96 95       	lsr	r25
    4892:	87 95       	ror	r24
    4894:	96 95       	lsr	r25
    4896:	87 95       	ror	r24
    4898:	9c 01       	movw	r18, r24
    489a:	22 0f       	add	r18, r18
    489c:	33 1f       	adc	r19, r19
    489e:	88 0f       	add	r24, r24
    48a0:	99 1f       	adc	r25, r25
    48a2:	88 0f       	add	r24, r24
    48a4:	99 1f       	adc	r25, r25
    48a6:	88 0f       	add	r24, r24
    48a8:	99 1f       	adc	r25, r25
    48aa:	82 0f       	add	r24, r18
    48ac:	93 1f       	adc	r25, r19
    48ae:	e8 1b       	sub	r30, r24
    48b0:	f9 0b       	sbc	r31, r25
    48b2:	e0 5d       	subi	r30, 0xD0	; 208
    48b4:	eb 83       	std	Y+3, r30	; 0x03
    48b6:	1c 82       	std	Y+4, r1	; 0x04
    48b8:	df 91       	pop	r29
    48ba:	cf 91       	pop	r28
    48bc:	08 95       	ret

000048be <_Z12wordToStringjPc>:

void wordToString(unsigned int data, char *str)
{
    48be:	ac 01       	movw	r20, r24
    48c0:	fb 01       	movw	r30, r22
    unsigned int  num = data;
    str[0] = 0x30 + (num  / 10000);
    48c2:	9c 01       	movw	r18, r24
    48c4:	32 95       	swap	r19
    48c6:	22 95       	swap	r18
    48c8:	2f 70       	andi	r18, 0x0F	; 15
    48ca:	23 27       	eor	r18, r19
    48cc:	3f 70       	andi	r19, 0x0F	; 15
    48ce:	23 27       	eor	r18, r19
    48d0:	a7 e4       	ldi	r26, 0x47	; 71
    48d2:	b3 e0       	ldi	r27, 0x03	; 3
    48d4:	30 d6       	rcall	.+3168   	; 0x5536 <__umulhisi3>
    48d6:	96 95       	lsr	r25
    48d8:	87 95       	ror	r24
    48da:	96 95       	lsr	r25
    48dc:	87 95       	ror	r24
    48de:	96 95       	lsr	r25
    48e0:	87 95       	ror	r24
    48e2:	20 e3       	ldi	r18, 0x30	; 48
    48e4:	28 0f       	add	r18, r24
    48e6:	20 83       	st	Z, r18
    str[1] = 0x30 + ((num % 10000) / 1000);
    48e8:	60 e1       	ldi	r22, 0x10	; 16
    48ea:	77 e2       	ldi	r23, 0x27	; 39
    48ec:	86 9f       	mul	r24, r22
    48ee:	90 01       	movw	r18, r0
    48f0:	87 9f       	mul	r24, r23
    48f2:	30 0d       	add	r19, r0
    48f4:	96 9f       	mul	r25, r22
    48f6:	30 0d       	add	r19, r0
    48f8:	11 24       	eor	r1, r1
    48fa:	ca 01       	movw	r24, r20
    48fc:	82 1b       	sub	r24, r18
    48fe:	93 0b       	sbc	r25, r19
    4900:	9c 01       	movw	r18, r24
    4902:	36 95       	lsr	r19
    4904:	27 95       	ror	r18
    4906:	36 95       	lsr	r19
    4908:	27 95       	ror	r18
    490a:	36 95       	lsr	r19
    490c:	27 95       	ror	r18
    490e:	a5 ec       	ldi	r26, 0xC5	; 197
    4910:	b0 e2       	ldi	r27, 0x20	; 32
    4912:	11 d6       	rcall	.+3106   	; 0x5536 <__umulhisi3>
    4914:	92 95       	swap	r25
    4916:	82 95       	swap	r24
    4918:	8f 70       	andi	r24, 0x0F	; 15
    491a:	89 27       	eor	r24, r25
    491c:	9f 70       	andi	r25, 0x0F	; 15
    491e:	89 27       	eor	r24, r25
    4920:	80 5d       	subi	r24, 0xD0	; 208
    4922:	81 83       	std	Z+1, r24	; 0x01
    str[2] = 0x30 + ((num % 1000) / 100);
    4924:	9a 01       	movw	r18, r20
    4926:	36 95       	lsr	r19
    4928:	27 95       	ror	r18
    492a:	36 95       	lsr	r19
    492c:	27 95       	ror	r18
    492e:	36 95       	lsr	r19
    4930:	27 95       	ror	r18
    4932:	01 d6       	rcall	.+3074   	; 0x5536 <__umulhisi3>
    4934:	92 95       	swap	r25
    4936:	82 95       	swap	r24
    4938:	8f 70       	andi	r24, 0x0F	; 15
    493a:	89 27       	eor	r24, r25
    493c:	9f 70       	andi	r25, 0x0F	; 15
    493e:	89 27       	eor	r24, r25
    4940:	68 ee       	ldi	r22, 0xE8	; 232
    4942:	73 e0       	ldi	r23, 0x03	; 3
    4944:	86 9f       	mul	r24, r22
    4946:	90 01       	movw	r18, r0
    4948:	87 9f       	mul	r24, r23
    494a:	30 0d       	add	r19, r0
    494c:	96 9f       	mul	r25, r22
    494e:	30 0d       	add	r19, r0
    4950:	11 24       	eor	r1, r1
    4952:	ca 01       	movw	r24, r20
    4954:	82 1b       	sub	r24, r18
    4956:	93 0b       	sbc	r25, r19
    4958:	9c 01       	movw	r18, r24
    495a:	36 95       	lsr	r19
    495c:	27 95       	ror	r18
    495e:	36 95       	lsr	r19
    4960:	27 95       	ror	r18
    4962:	ab e7       	ldi	r26, 0x7B	; 123
    4964:	b4 e1       	ldi	r27, 0x14	; 20
    4966:	e7 d5       	rcall	.+3022   	; 0x5536 <__umulhisi3>
    4968:	96 95       	lsr	r25
    496a:	87 95       	ror	r24
    496c:	80 5d       	subi	r24, 0xD0	; 208
    496e:	82 83       	std	Z+2, r24	; 0x02
    str[3] = 0x30 + ((num % 100) / 10);
    4970:	9a 01       	movw	r18, r20
    4972:	36 95       	lsr	r19
    4974:	27 95       	ror	r18
    4976:	36 95       	lsr	r19
    4978:	27 95       	ror	r18
    497a:	dd d5       	rcall	.+3002   	; 0x5536 <__umulhisi3>
    497c:	96 95       	lsr	r25
    497e:	87 95       	ror	r24
    4980:	64 e6       	ldi	r22, 0x64	; 100
    4982:	68 9f       	mul	r22, r24
    4984:	90 01       	movw	r18, r0
    4986:	69 9f       	mul	r22, r25
    4988:	30 0d       	add	r19, r0
    498a:	11 24       	eor	r1, r1
    498c:	ca 01       	movw	r24, r20
    498e:	82 1b       	sub	r24, r18
    4990:	93 0b       	sbc	r25, r19
    4992:	9c 01       	movw	r18, r24
    4994:	ad ec       	ldi	r26, 0xCD	; 205
    4996:	bc ec       	ldi	r27, 0xCC	; 204
    4998:	ce d5       	rcall	.+2972   	; 0x5536 <__umulhisi3>
    499a:	96 95       	lsr	r25
    499c:	87 95       	ror	r24
    499e:	96 95       	lsr	r25
    49a0:	87 95       	ror	r24
    49a2:	96 95       	lsr	r25
    49a4:	87 95       	ror	r24
    49a6:	80 5d       	subi	r24, 0xD0	; 208
    str[4] = 0x30 + (num  % 10);
    49a8:	83 83       	std	Z+3, r24	; 0x03
    49aa:	9a 01       	movw	r18, r20
    49ac:	c4 d5       	rcall	.+2952   	; 0x5536 <__umulhisi3>
    49ae:	96 95       	lsr	r25
    49b0:	87 95       	ror	r24
    49b2:	96 95       	lsr	r25
    49b4:	87 95       	ror	r24
    49b6:	96 95       	lsr	r25
    49b8:	87 95       	ror	r24
    49ba:	9c 01       	movw	r18, r24
    49bc:	22 0f       	add	r18, r18
    49be:	33 1f       	adc	r19, r19
    49c0:	88 0f       	add	r24, r24
    49c2:	99 1f       	adc	r25, r25
    49c4:	88 0f       	add	r24, r24
    49c6:	99 1f       	adc	r25, r25
    49c8:	88 0f       	add	r24, r24
    49ca:	99 1f       	adc	r25, r25
    49cc:	82 0f       	add	r24, r18
    49ce:	93 1f       	adc	r25, r19
    49d0:	48 1b       	sub	r20, r24
    49d2:	59 0b       	sbc	r21, r25
    49d4:	40 5d       	subi	r20, 0xD0	; 208
    49d6:	44 83       	std	Z+4, r20	; 0x04
    str[5] = 0;
    49d8:	15 82       	std	Z+5, r1	; 0x05
    49da:	08 95       	ret

000049dc <__subsf3>:
    49dc:	50 58       	subi	r21, 0x80	; 128

000049de <__addsf3>:
    49de:	bb 27       	eor	r27, r27
    49e0:	aa 27       	eor	r26, r26
    49e2:	0e d0       	rcall	.+28     	; 0x4a00 <__addsf3x>
    49e4:	48 c1       	rjmp	.+656    	; 0x4c76 <__fp_round>
    49e6:	39 d1       	rcall	.+626    	; 0x4c5a <__fp_pscA>
    49e8:	30 f0       	brcs	.+12     	; 0x49f6 <__addsf3+0x18>
    49ea:	3e d1       	rcall	.+636    	; 0x4c68 <__fp_pscB>
    49ec:	20 f0       	brcs	.+8      	; 0x49f6 <__addsf3+0x18>
    49ee:	31 f4       	brne	.+12     	; 0x49fc <__addsf3+0x1e>
    49f0:	9f 3f       	cpi	r25, 0xFF	; 255
    49f2:	11 f4       	brne	.+4      	; 0x49f8 <__addsf3+0x1a>
    49f4:	1e f4       	brtc	.+6      	; 0x49fc <__addsf3+0x1e>
    49f6:	2e c1       	rjmp	.+604    	; 0x4c54 <__fp_nan>
    49f8:	0e f4       	brtc	.+2      	; 0x49fc <__addsf3+0x1e>
    49fa:	e0 95       	com	r30
    49fc:	e7 fb       	bst	r30, 7
    49fe:	24 c1       	rjmp	.+584    	; 0x4c48 <__fp_inf>

00004a00 <__addsf3x>:
    4a00:	e9 2f       	mov	r30, r25
    4a02:	4a d1       	rcall	.+660    	; 0x4c98 <__fp_split3>
    4a04:	80 f3       	brcs	.-32     	; 0x49e6 <__addsf3+0x8>
    4a06:	ba 17       	cp	r27, r26
    4a08:	62 07       	cpc	r22, r18
    4a0a:	73 07       	cpc	r23, r19
    4a0c:	84 07       	cpc	r24, r20
    4a0e:	95 07       	cpc	r25, r21
    4a10:	18 f0       	brcs	.+6      	; 0x4a18 <__addsf3x+0x18>
    4a12:	71 f4       	brne	.+28     	; 0x4a30 <__addsf3x+0x30>
    4a14:	9e f5       	brtc	.+102    	; 0x4a7c <__addsf3x+0x7c>
    4a16:	62 c1       	rjmp	.+708    	; 0x4cdc <__fp_zero>
    4a18:	0e f4       	brtc	.+2      	; 0x4a1c <__addsf3x+0x1c>
    4a1a:	e0 95       	com	r30
    4a1c:	0b 2e       	mov	r0, r27
    4a1e:	ba 2f       	mov	r27, r26
    4a20:	a0 2d       	mov	r26, r0
    4a22:	0b 01       	movw	r0, r22
    4a24:	b9 01       	movw	r22, r18
    4a26:	90 01       	movw	r18, r0
    4a28:	0c 01       	movw	r0, r24
    4a2a:	ca 01       	movw	r24, r20
    4a2c:	a0 01       	movw	r20, r0
    4a2e:	11 24       	eor	r1, r1
    4a30:	ff 27       	eor	r31, r31
    4a32:	59 1b       	sub	r21, r25
    4a34:	99 f0       	breq	.+38     	; 0x4a5c <__addsf3x+0x5c>
    4a36:	59 3f       	cpi	r21, 0xF9	; 249
    4a38:	50 f4       	brcc	.+20     	; 0x4a4e <__addsf3x+0x4e>
    4a3a:	50 3e       	cpi	r21, 0xE0	; 224
    4a3c:	68 f1       	brcs	.+90     	; 0x4a98 <__addsf3x+0x98>
    4a3e:	1a 16       	cp	r1, r26
    4a40:	f0 40       	sbci	r31, 0x00	; 0
    4a42:	a2 2f       	mov	r26, r18
    4a44:	23 2f       	mov	r18, r19
    4a46:	34 2f       	mov	r19, r20
    4a48:	44 27       	eor	r20, r20
    4a4a:	58 5f       	subi	r21, 0xF8	; 248
    4a4c:	f3 cf       	rjmp	.-26     	; 0x4a34 <__addsf3x+0x34>
    4a4e:	46 95       	lsr	r20
    4a50:	37 95       	ror	r19
    4a52:	27 95       	ror	r18
    4a54:	a7 95       	ror	r26
    4a56:	f0 40       	sbci	r31, 0x00	; 0
    4a58:	53 95       	inc	r21
    4a5a:	c9 f7       	brne	.-14     	; 0x4a4e <__addsf3x+0x4e>
    4a5c:	7e f4       	brtc	.+30     	; 0x4a7c <__addsf3x+0x7c>
    4a5e:	1f 16       	cp	r1, r31
    4a60:	ba 0b       	sbc	r27, r26
    4a62:	62 0b       	sbc	r22, r18
    4a64:	73 0b       	sbc	r23, r19
    4a66:	84 0b       	sbc	r24, r20
    4a68:	ba f0       	brmi	.+46     	; 0x4a98 <__addsf3x+0x98>
    4a6a:	91 50       	subi	r25, 0x01	; 1
    4a6c:	a1 f0       	breq	.+40     	; 0x4a96 <__addsf3x+0x96>
    4a6e:	ff 0f       	add	r31, r31
    4a70:	bb 1f       	adc	r27, r27
    4a72:	66 1f       	adc	r22, r22
    4a74:	77 1f       	adc	r23, r23
    4a76:	88 1f       	adc	r24, r24
    4a78:	c2 f7       	brpl	.-16     	; 0x4a6a <__addsf3x+0x6a>
    4a7a:	0e c0       	rjmp	.+28     	; 0x4a98 <__addsf3x+0x98>
    4a7c:	ba 0f       	add	r27, r26
    4a7e:	62 1f       	adc	r22, r18
    4a80:	73 1f       	adc	r23, r19
    4a82:	84 1f       	adc	r24, r20
    4a84:	48 f4       	brcc	.+18     	; 0x4a98 <__addsf3x+0x98>
    4a86:	87 95       	ror	r24
    4a88:	77 95       	ror	r23
    4a8a:	67 95       	ror	r22
    4a8c:	b7 95       	ror	r27
    4a8e:	f7 95       	ror	r31
    4a90:	9e 3f       	cpi	r25, 0xFE	; 254
    4a92:	08 f0       	brcs	.+2      	; 0x4a96 <__addsf3x+0x96>
    4a94:	b3 cf       	rjmp	.-154    	; 0x49fc <__addsf3+0x1e>
    4a96:	93 95       	inc	r25
    4a98:	88 0f       	add	r24, r24
    4a9a:	08 f0       	brcs	.+2      	; 0x4a9e <__addsf3x+0x9e>
    4a9c:	99 27       	eor	r25, r25
    4a9e:	ee 0f       	add	r30, r30
    4aa0:	97 95       	ror	r25
    4aa2:	87 95       	ror	r24
    4aa4:	08 95       	ret

00004aa6 <__divsf3>:
    4aa6:	0c d0       	rcall	.+24     	; 0x4ac0 <__divsf3x>
    4aa8:	e6 c0       	rjmp	.+460    	; 0x4c76 <__fp_round>
    4aaa:	de d0       	rcall	.+444    	; 0x4c68 <__fp_pscB>
    4aac:	40 f0       	brcs	.+16     	; 0x4abe <__divsf3+0x18>
    4aae:	d5 d0       	rcall	.+426    	; 0x4c5a <__fp_pscA>
    4ab0:	30 f0       	brcs	.+12     	; 0x4abe <__divsf3+0x18>
    4ab2:	21 f4       	brne	.+8      	; 0x4abc <__divsf3+0x16>
    4ab4:	5f 3f       	cpi	r21, 0xFF	; 255
    4ab6:	19 f0       	breq	.+6      	; 0x4abe <__divsf3+0x18>
    4ab8:	c7 c0       	rjmp	.+398    	; 0x4c48 <__fp_inf>
    4aba:	51 11       	cpse	r21, r1
    4abc:	10 c1       	rjmp	.+544    	; 0x4cde <__fp_szero>
    4abe:	ca c0       	rjmp	.+404    	; 0x4c54 <__fp_nan>

00004ac0 <__divsf3x>:
    4ac0:	eb d0       	rcall	.+470    	; 0x4c98 <__fp_split3>
    4ac2:	98 f3       	brcs	.-26     	; 0x4aaa <__divsf3+0x4>

00004ac4 <__divsf3_pse>:
    4ac4:	99 23       	and	r25, r25
    4ac6:	c9 f3       	breq	.-14     	; 0x4aba <__divsf3+0x14>
    4ac8:	55 23       	and	r21, r21
    4aca:	b1 f3       	breq	.-20     	; 0x4ab8 <__divsf3+0x12>
    4acc:	95 1b       	sub	r25, r21
    4ace:	55 0b       	sbc	r21, r21
    4ad0:	bb 27       	eor	r27, r27
    4ad2:	aa 27       	eor	r26, r26
    4ad4:	62 17       	cp	r22, r18
    4ad6:	73 07       	cpc	r23, r19
    4ad8:	84 07       	cpc	r24, r20
    4ada:	38 f0       	brcs	.+14     	; 0x4aea <__divsf3_pse+0x26>
    4adc:	9f 5f       	subi	r25, 0xFF	; 255
    4ade:	5f 4f       	sbci	r21, 0xFF	; 255
    4ae0:	22 0f       	add	r18, r18
    4ae2:	33 1f       	adc	r19, r19
    4ae4:	44 1f       	adc	r20, r20
    4ae6:	aa 1f       	adc	r26, r26
    4ae8:	a9 f3       	breq	.-22     	; 0x4ad4 <__divsf3_pse+0x10>
    4aea:	33 d0       	rcall	.+102    	; 0x4b52 <__divsf3_pse+0x8e>
    4aec:	0e 2e       	mov	r0, r30
    4aee:	3a f0       	brmi	.+14     	; 0x4afe <__divsf3_pse+0x3a>
    4af0:	e0 e8       	ldi	r30, 0x80	; 128
    4af2:	30 d0       	rcall	.+96     	; 0x4b54 <__divsf3_pse+0x90>
    4af4:	91 50       	subi	r25, 0x01	; 1
    4af6:	50 40       	sbci	r21, 0x00	; 0
    4af8:	e6 95       	lsr	r30
    4afa:	00 1c       	adc	r0, r0
    4afc:	ca f7       	brpl	.-14     	; 0x4af0 <__divsf3_pse+0x2c>
    4afe:	29 d0       	rcall	.+82     	; 0x4b52 <__divsf3_pse+0x8e>
    4b00:	fe 2f       	mov	r31, r30
    4b02:	27 d0       	rcall	.+78     	; 0x4b52 <__divsf3_pse+0x8e>
    4b04:	66 0f       	add	r22, r22
    4b06:	77 1f       	adc	r23, r23
    4b08:	88 1f       	adc	r24, r24
    4b0a:	bb 1f       	adc	r27, r27
    4b0c:	26 17       	cp	r18, r22
    4b0e:	37 07       	cpc	r19, r23
    4b10:	48 07       	cpc	r20, r24
    4b12:	ab 07       	cpc	r26, r27
    4b14:	b0 e8       	ldi	r27, 0x80	; 128
    4b16:	09 f0       	breq	.+2      	; 0x4b1a <__divsf3_pse+0x56>
    4b18:	bb 0b       	sbc	r27, r27
    4b1a:	80 2d       	mov	r24, r0
    4b1c:	bf 01       	movw	r22, r30
    4b1e:	ff 27       	eor	r31, r31
    4b20:	93 58       	subi	r25, 0x83	; 131
    4b22:	5f 4f       	sbci	r21, 0xFF	; 255
    4b24:	2a f0       	brmi	.+10     	; 0x4b30 <__divsf3_pse+0x6c>
    4b26:	9e 3f       	cpi	r25, 0xFE	; 254
    4b28:	51 05       	cpc	r21, r1
    4b2a:	68 f0       	brcs	.+26     	; 0x4b46 <__divsf3_pse+0x82>
    4b2c:	8d c0       	rjmp	.+282    	; 0x4c48 <__fp_inf>
    4b2e:	d7 c0       	rjmp	.+430    	; 0x4cde <__fp_szero>
    4b30:	5f 3f       	cpi	r21, 0xFF	; 255
    4b32:	ec f3       	brlt	.-6      	; 0x4b2e <__divsf3_pse+0x6a>
    4b34:	98 3e       	cpi	r25, 0xE8	; 232
    4b36:	dc f3       	brlt	.-10     	; 0x4b2e <__divsf3_pse+0x6a>
    4b38:	86 95       	lsr	r24
    4b3a:	77 95       	ror	r23
    4b3c:	67 95       	ror	r22
    4b3e:	b7 95       	ror	r27
    4b40:	f7 95       	ror	r31
    4b42:	9f 5f       	subi	r25, 0xFF	; 255
    4b44:	c9 f7       	brne	.-14     	; 0x4b38 <__divsf3_pse+0x74>
    4b46:	88 0f       	add	r24, r24
    4b48:	91 1d       	adc	r25, r1
    4b4a:	96 95       	lsr	r25
    4b4c:	87 95       	ror	r24
    4b4e:	97 f9       	bld	r25, 7
    4b50:	08 95       	ret
    4b52:	e1 e0       	ldi	r30, 0x01	; 1
    4b54:	66 0f       	add	r22, r22
    4b56:	77 1f       	adc	r23, r23
    4b58:	88 1f       	adc	r24, r24
    4b5a:	bb 1f       	adc	r27, r27
    4b5c:	62 17       	cp	r22, r18
    4b5e:	73 07       	cpc	r23, r19
    4b60:	84 07       	cpc	r24, r20
    4b62:	ba 07       	cpc	r27, r26
    4b64:	20 f0       	brcs	.+8      	; 0x4b6e <__divsf3_pse+0xaa>
    4b66:	62 1b       	sub	r22, r18
    4b68:	73 0b       	sbc	r23, r19
    4b6a:	84 0b       	sbc	r24, r20
    4b6c:	ba 0b       	sbc	r27, r26
    4b6e:	ee 1f       	adc	r30, r30
    4b70:	88 f7       	brcc	.-30     	; 0x4b54 <__divsf3_pse+0x90>
    4b72:	e0 95       	com	r30
    4b74:	08 95       	ret

00004b76 <__fixunssfsi>:
    4b76:	98 d0       	rcall	.+304    	; 0x4ca8 <__fp_splitA>
    4b78:	88 f0       	brcs	.+34     	; 0x4b9c <__fixunssfsi+0x26>
    4b7a:	9f 57       	subi	r25, 0x7F	; 127
    4b7c:	90 f0       	brcs	.+36     	; 0x4ba2 <__fixunssfsi+0x2c>
    4b7e:	b9 2f       	mov	r27, r25
    4b80:	99 27       	eor	r25, r25
    4b82:	b7 51       	subi	r27, 0x17	; 23
    4b84:	a0 f0       	brcs	.+40     	; 0x4bae <__fixunssfsi+0x38>
    4b86:	d1 f0       	breq	.+52     	; 0x4bbc <__fixunssfsi+0x46>
    4b88:	66 0f       	add	r22, r22
    4b8a:	77 1f       	adc	r23, r23
    4b8c:	88 1f       	adc	r24, r24
    4b8e:	99 1f       	adc	r25, r25
    4b90:	1a f0       	brmi	.+6      	; 0x4b98 <__fixunssfsi+0x22>
    4b92:	ba 95       	dec	r27
    4b94:	c9 f7       	brne	.-14     	; 0x4b88 <__fixunssfsi+0x12>
    4b96:	12 c0       	rjmp	.+36     	; 0x4bbc <__fixunssfsi+0x46>
    4b98:	b1 30       	cpi	r27, 0x01	; 1
    4b9a:	81 f0       	breq	.+32     	; 0x4bbc <__fixunssfsi+0x46>
    4b9c:	9f d0       	rcall	.+318    	; 0x4cdc <__fp_zero>
    4b9e:	b1 e0       	ldi	r27, 0x01	; 1
    4ba0:	08 95       	ret
    4ba2:	9c c0       	rjmp	.+312    	; 0x4cdc <__fp_zero>
    4ba4:	67 2f       	mov	r22, r23
    4ba6:	78 2f       	mov	r23, r24
    4ba8:	88 27       	eor	r24, r24
    4baa:	b8 5f       	subi	r27, 0xF8	; 248
    4bac:	39 f0       	breq	.+14     	; 0x4bbc <__fixunssfsi+0x46>
    4bae:	b9 3f       	cpi	r27, 0xF9	; 249
    4bb0:	cc f3       	brlt	.-14     	; 0x4ba4 <__fixunssfsi+0x2e>
    4bb2:	86 95       	lsr	r24
    4bb4:	77 95       	ror	r23
    4bb6:	67 95       	ror	r22
    4bb8:	b3 95       	inc	r27
    4bba:	d9 f7       	brne	.-10     	; 0x4bb2 <__fixunssfsi+0x3c>
    4bbc:	3e f4       	brtc	.+14     	; 0x4bcc <__fixunssfsi+0x56>
    4bbe:	90 95       	com	r25
    4bc0:	80 95       	com	r24
    4bc2:	70 95       	com	r23
    4bc4:	61 95       	neg	r22
    4bc6:	7f 4f       	sbci	r23, 0xFF	; 255
    4bc8:	8f 4f       	sbci	r24, 0xFF	; 255
    4bca:	9f 4f       	sbci	r25, 0xFF	; 255
    4bcc:	08 95       	ret

00004bce <__floatunsisf>:
    4bce:	e8 94       	clt
    4bd0:	09 c0       	rjmp	.+18     	; 0x4be4 <__floatsisf+0x12>

00004bd2 <__floatsisf>:
    4bd2:	97 fb       	bst	r25, 7
    4bd4:	3e f4       	brtc	.+14     	; 0x4be4 <__floatsisf+0x12>
    4bd6:	90 95       	com	r25
    4bd8:	80 95       	com	r24
    4bda:	70 95       	com	r23
    4bdc:	61 95       	neg	r22
    4bde:	7f 4f       	sbci	r23, 0xFF	; 255
    4be0:	8f 4f       	sbci	r24, 0xFF	; 255
    4be2:	9f 4f       	sbci	r25, 0xFF	; 255
    4be4:	99 23       	and	r25, r25
    4be6:	a9 f0       	breq	.+42     	; 0x4c12 <__floatsisf+0x40>
    4be8:	f9 2f       	mov	r31, r25
    4bea:	96 e9       	ldi	r25, 0x96	; 150
    4bec:	bb 27       	eor	r27, r27
    4bee:	93 95       	inc	r25
    4bf0:	f6 95       	lsr	r31
    4bf2:	87 95       	ror	r24
    4bf4:	77 95       	ror	r23
    4bf6:	67 95       	ror	r22
    4bf8:	b7 95       	ror	r27
    4bfa:	f1 11       	cpse	r31, r1
    4bfc:	f8 cf       	rjmp	.-16     	; 0x4bee <__floatsisf+0x1c>
    4bfe:	fa f4       	brpl	.+62     	; 0x4c3e <__floatsisf+0x6c>
    4c00:	bb 0f       	add	r27, r27
    4c02:	11 f4       	brne	.+4      	; 0x4c08 <__floatsisf+0x36>
    4c04:	60 ff       	sbrs	r22, 0
    4c06:	1b c0       	rjmp	.+54     	; 0x4c3e <__floatsisf+0x6c>
    4c08:	6f 5f       	subi	r22, 0xFF	; 255
    4c0a:	7f 4f       	sbci	r23, 0xFF	; 255
    4c0c:	8f 4f       	sbci	r24, 0xFF	; 255
    4c0e:	9f 4f       	sbci	r25, 0xFF	; 255
    4c10:	16 c0       	rjmp	.+44     	; 0x4c3e <__floatsisf+0x6c>
    4c12:	88 23       	and	r24, r24
    4c14:	11 f0       	breq	.+4      	; 0x4c1a <__floatsisf+0x48>
    4c16:	96 e9       	ldi	r25, 0x96	; 150
    4c18:	11 c0       	rjmp	.+34     	; 0x4c3c <__floatsisf+0x6a>
    4c1a:	77 23       	and	r23, r23
    4c1c:	21 f0       	breq	.+8      	; 0x4c26 <__floatsisf+0x54>
    4c1e:	9e e8       	ldi	r25, 0x8E	; 142
    4c20:	87 2f       	mov	r24, r23
    4c22:	76 2f       	mov	r23, r22
    4c24:	05 c0       	rjmp	.+10     	; 0x4c30 <__floatsisf+0x5e>
    4c26:	66 23       	and	r22, r22
    4c28:	71 f0       	breq	.+28     	; 0x4c46 <__floatsisf+0x74>
    4c2a:	96 e8       	ldi	r25, 0x86	; 134
    4c2c:	86 2f       	mov	r24, r22
    4c2e:	70 e0       	ldi	r23, 0x00	; 0
    4c30:	60 e0       	ldi	r22, 0x00	; 0
    4c32:	2a f0       	brmi	.+10     	; 0x4c3e <__floatsisf+0x6c>
    4c34:	9a 95       	dec	r25
    4c36:	66 0f       	add	r22, r22
    4c38:	77 1f       	adc	r23, r23
    4c3a:	88 1f       	adc	r24, r24
    4c3c:	da f7       	brpl	.-10     	; 0x4c34 <__floatsisf+0x62>
    4c3e:	88 0f       	add	r24, r24
    4c40:	96 95       	lsr	r25
    4c42:	87 95       	ror	r24
    4c44:	97 f9       	bld	r25, 7
    4c46:	08 95       	ret

00004c48 <__fp_inf>:
    4c48:	97 f9       	bld	r25, 7
    4c4a:	9f 67       	ori	r25, 0x7F	; 127
    4c4c:	80 e8       	ldi	r24, 0x80	; 128
    4c4e:	70 e0       	ldi	r23, 0x00	; 0
    4c50:	60 e0       	ldi	r22, 0x00	; 0
    4c52:	08 95       	ret

00004c54 <__fp_nan>:
    4c54:	9f ef       	ldi	r25, 0xFF	; 255
    4c56:	80 ec       	ldi	r24, 0xC0	; 192
    4c58:	08 95       	ret

00004c5a <__fp_pscA>:
    4c5a:	00 24       	eor	r0, r0
    4c5c:	0a 94       	dec	r0
    4c5e:	16 16       	cp	r1, r22
    4c60:	17 06       	cpc	r1, r23
    4c62:	18 06       	cpc	r1, r24
    4c64:	09 06       	cpc	r0, r25
    4c66:	08 95       	ret

00004c68 <__fp_pscB>:
    4c68:	00 24       	eor	r0, r0
    4c6a:	0a 94       	dec	r0
    4c6c:	12 16       	cp	r1, r18
    4c6e:	13 06       	cpc	r1, r19
    4c70:	14 06       	cpc	r1, r20
    4c72:	05 06       	cpc	r0, r21
    4c74:	08 95       	ret

00004c76 <__fp_round>:
    4c76:	09 2e       	mov	r0, r25
    4c78:	03 94       	inc	r0
    4c7a:	00 0c       	add	r0, r0
    4c7c:	11 f4       	brne	.+4      	; 0x4c82 <__fp_round+0xc>
    4c7e:	88 23       	and	r24, r24
    4c80:	52 f0       	brmi	.+20     	; 0x4c96 <__fp_round+0x20>
    4c82:	bb 0f       	add	r27, r27
    4c84:	40 f4       	brcc	.+16     	; 0x4c96 <__fp_round+0x20>
    4c86:	bf 2b       	or	r27, r31
    4c88:	11 f4       	brne	.+4      	; 0x4c8e <__fp_round+0x18>
    4c8a:	60 ff       	sbrs	r22, 0
    4c8c:	04 c0       	rjmp	.+8      	; 0x4c96 <__fp_round+0x20>
    4c8e:	6f 5f       	subi	r22, 0xFF	; 255
    4c90:	7f 4f       	sbci	r23, 0xFF	; 255
    4c92:	8f 4f       	sbci	r24, 0xFF	; 255
    4c94:	9f 4f       	sbci	r25, 0xFF	; 255
    4c96:	08 95       	ret

00004c98 <__fp_split3>:
    4c98:	57 fd       	sbrc	r21, 7
    4c9a:	90 58       	subi	r25, 0x80	; 128
    4c9c:	44 0f       	add	r20, r20
    4c9e:	55 1f       	adc	r21, r21
    4ca0:	59 f0       	breq	.+22     	; 0x4cb8 <__fp_splitA+0x10>
    4ca2:	5f 3f       	cpi	r21, 0xFF	; 255
    4ca4:	71 f0       	breq	.+28     	; 0x4cc2 <__fp_splitA+0x1a>
    4ca6:	47 95       	ror	r20

00004ca8 <__fp_splitA>:
    4ca8:	88 0f       	add	r24, r24
    4caa:	97 fb       	bst	r25, 7
    4cac:	99 1f       	adc	r25, r25
    4cae:	61 f0       	breq	.+24     	; 0x4cc8 <__fp_splitA+0x20>
    4cb0:	9f 3f       	cpi	r25, 0xFF	; 255
    4cb2:	79 f0       	breq	.+30     	; 0x4cd2 <__fp_splitA+0x2a>
    4cb4:	87 95       	ror	r24
    4cb6:	08 95       	ret
    4cb8:	12 16       	cp	r1, r18
    4cba:	13 06       	cpc	r1, r19
    4cbc:	14 06       	cpc	r1, r20
    4cbe:	55 1f       	adc	r21, r21
    4cc0:	f2 cf       	rjmp	.-28     	; 0x4ca6 <__fp_split3+0xe>
    4cc2:	46 95       	lsr	r20
    4cc4:	f1 df       	rcall	.-30     	; 0x4ca8 <__fp_splitA>
    4cc6:	08 c0       	rjmp	.+16     	; 0x4cd8 <__fp_splitA+0x30>
    4cc8:	16 16       	cp	r1, r22
    4cca:	17 06       	cpc	r1, r23
    4ccc:	18 06       	cpc	r1, r24
    4cce:	99 1f       	adc	r25, r25
    4cd0:	f1 cf       	rjmp	.-30     	; 0x4cb4 <__fp_splitA+0xc>
    4cd2:	86 95       	lsr	r24
    4cd4:	71 05       	cpc	r23, r1
    4cd6:	61 05       	cpc	r22, r1
    4cd8:	08 94       	sec
    4cda:	08 95       	ret

00004cdc <__fp_zero>:
    4cdc:	e8 94       	clt

00004cde <__fp_szero>:
    4cde:	bb 27       	eor	r27, r27
    4ce0:	66 27       	eor	r22, r22
    4ce2:	77 27       	eor	r23, r23
    4ce4:	cb 01       	movw	r24, r22
    4ce6:	97 f9       	bld	r25, 7
    4ce8:	08 95       	ret

00004cea <__mulsf3>:
    4cea:	0b d0       	rcall	.+22     	; 0x4d02 <__mulsf3x>
    4cec:	c4 cf       	rjmp	.-120    	; 0x4c76 <__fp_round>
    4cee:	b5 df       	rcall	.-150    	; 0x4c5a <__fp_pscA>
    4cf0:	28 f0       	brcs	.+10     	; 0x4cfc <__mulsf3+0x12>
    4cf2:	ba df       	rcall	.-140    	; 0x4c68 <__fp_pscB>
    4cf4:	18 f0       	brcs	.+6      	; 0x4cfc <__mulsf3+0x12>
    4cf6:	95 23       	and	r25, r21
    4cf8:	09 f0       	breq	.+2      	; 0x4cfc <__mulsf3+0x12>
    4cfa:	a6 cf       	rjmp	.-180    	; 0x4c48 <__fp_inf>
    4cfc:	ab cf       	rjmp	.-170    	; 0x4c54 <__fp_nan>
    4cfe:	11 24       	eor	r1, r1
    4d00:	ee cf       	rjmp	.-36     	; 0x4cde <__fp_szero>

00004d02 <__mulsf3x>:
    4d02:	ca df       	rcall	.-108    	; 0x4c98 <__fp_split3>
    4d04:	a0 f3       	brcs	.-24     	; 0x4cee <__mulsf3+0x4>

00004d06 <__mulsf3_pse>:
    4d06:	95 9f       	mul	r25, r21
    4d08:	d1 f3       	breq	.-12     	; 0x4cfe <__mulsf3+0x14>
    4d0a:	95 0f       	add	r25, r21
    4d0c:	50 e0       	ldi	r21, 0x00	; 0
    4d0e:	55 1f       	adc	r21, r21
    4d10:	62 9f       	mul	r22, r18
    4d12:	f0 01       	movw	r30, r0
    4d14:	72 9f       	mul	r23, r18
    4d16:	bb 27       	eor	r27, r27
    4d18:	f0 0d       	add	r31, r0
    4d1a:	b1 1d       	adc	r27, r1
    4d1c:	63 9f       	mul	r22, r19
    4d1e:	aa 27       	eor	r26, r26
    4d20:	f0 0d       	add	r31, r0
    4d22:	b1 1d       	adc	r27, r1
    4d24:	aa 1f       	adc	r26, r26
    4d26:	64 9f       	mul	r22, r20
    4d28:	66 27       	eor	r22, r22
    4d2a:	b0 0d       	add	r27, r0
    4d2c:	a1 1d       	adc	r26, r1
    4d2e:	66 1f       	adc	r22, r22
    4d30:	82 9f       	mul	r24, r18
    4d32:	22 27       	eor	r18, r18
    4d34:	b0 0d       	add	r27, r0
    4d36:	a1 1d       	adc	r26, r1
    4d38:	62 1f       	adc	r22, r18
    4d3a:	73 9f       	mul	r23, r19
    4d3c:	b0 0d       	add	r27, r0
    4d3e:	a1 1d       	adc	r26, r1
    4d40:	62 1f       	adc	r22, r18
    4d42:	83 9f       	mul	r24, r19
    4d44:	a0 0d       	add	r26, r0
    4d46:	61 1d       	adc	r22, r1
    4d48:	22 1f       	adc	r18, r18
    4d4a:	74 9f       	mul	r23, r20
    4d4c:	33 27       	eor	r19, r19
    4d4e:	a0 0d       	add	r26, r0
    4d50:	61 1d       	adc	r22, r1
    4d52:	23 1f       	adc	r18, r19
    4d54:	84 9f       	mul	r24, r20
    4d56:	60 0d       	add	r22, r0
    4d58:	21 1d       	adc	r18, r1
    4d5a:	82 2f       	mov	r24, r18
    4d5c:	76 2f       	mov	r23, r22
    4d5e:	6a 2f       	mov	r22, r26
    4d60:	11 24       	eor	r1, r1
    4d62:	9f 57       	subi	r25, 0x7F	; 127
    4d64:	50 40       	sbci	r21, 0x00	; 0
    4d66:	8a f0       	brmi	.+34     	; 0x4d8a <__mulsf3_pse+0x84>
    4d68:	e1 f0       	breq	.+56     	; 0x4da2 <__mulsf3_pse+0x9c>
    4d6a:	88 23       	and	r24, r24
    4d6c:	4a f0       	brmi	.+18     	; 0x4d80 <__mulsf3_pse+0x7a>
    4d6e:	ee 0f       	add	r30, r30
    4d70:	ff 1f       	adc	r31, r31
    4d72:	bb 1f       	adc	r27, r27
    4d74:	66 1f       	adc	r22, r22
    4d76:	77 1f       	adc	r23, r23
    4d78:	88 1f       	adc	r24, r24
    4d7a:	91 50       	subi	r25, 0x01	; 1
    4d7c:	50 40       	sbci	r21, 0x00	; 0
    4d7e:	a9 f7       	brne	.-22     	; 0x4d6a <__mulsf3_pse+0x64>
    4d80:	9e 3f       	cpi	r25, 0xFE	; 254
    4d82:	51 05       	cpc	r21, r1
    4d84:	70 f0       	brcs	.+28     	; 0x4da2 <__mulsf3_pse+0x9c>
    4d86:	60 cf       	rjmp	.-320    	; 0x4c48 <__fp_inf>
    4d88:	aa cf       	rjmp	.-172    	; 0x4cde <__fp_szero>
    4d8a:	5f 3f       	cpi	r21, 0xFF	; 255
    4d8c:	ec f3       	brlt	.-6      	; 0x4d88 <__mulsf3_pse+0x82>
    4d8e:	98 3e       	cpi	r25, 0xE8	; 232
    4d90:	dc f3       	brlt	.-10     	; 0x4d88 <__mulsf3_pse+0x82>
    4d92:	86 95       	lsr	r24
    4d94:	77 95       	ror	r23
    4d96:	67 95       	ror	r22
    4d98:	b7 95       	ror	r27
    4d9a:	f7 95       	ror	r31
    4d9c:	e7 95       	ror	r30
    4d9e:	9f 5f       	subi	r25, 0xFF	; 255
    4da0:	c1 f7       	brne	.-16     	; 0x4d92 <__mulsf3_pse+0x8c>
    4da2:	fe 2b       	or	r31, r30
    4da4:	88 0f       	add	r24, r24
    4da6:	91 1d       	adc	r25, r1
    4da8:	96 95       	lsr	r25
    4daa:	87 95       	ror	r24
    4dac:	97 f9       	bld	r25, 7
    4dae:	08 95       	ret

00004db0 <vfprintf>:
    4db0:	2f 92       	push	r2
    4db2:	3f 92       	push	r3
    4db4:	4f 92       	push	r4
    4db6:	5f 92       	push	r5
    4db8:	6f 92       	push	r6
    4dba:	7f 92       	push	r7
    4dbc:	8f 92       	push	r8
    4dbe:	9f 92       	push	r9
    4dc0:	af 92       	push	r10
    4dc2:	bf 92       	push	r11
    4dc4:	cf 92       	push	r12
    4dc6:	df 92       	push	r13
    4dc8:	ef 92       	push	r14
    4dca:	ff 92       	push	r15
    4dcc:	0f 93       	push	r16
    4dce:	1f 93       	push	r17
    4dd0:	cf 93       	push	r28
    4dd2:	df 93       	push	r29
    4dd4:	cd b7       	in	r28, 0x3d	; 61
    4dd6:	de b7       	in	r29, 0x3e	; 62
    4dd8:	60 97       	sbiw	r28, 0x10	; 16
    4dda:	0f b6       	in	r0, 0x3f	; 63
    4ddc:	f8 94       	cli
    4dde:	de bf       	out	0x3e, r29	; 62
    4de0:	0f be       	out	0x3f, r0	; 63
    4de2:	cd bf       	out	0x3d, r28	; 61
    4de4:	7c 01       	movw	r14, r24
    4de6:	1b 01       	movw	r2, r22
    4de8:	6a 01       	movw	r12, r20
    4dea:	fc 01       	movw	r30, r24
    4dec:	17 82       	std	Z+7, r1	; 0x07
    4dee:	16 82       	std	Z+6, r1	; 0x06
    4df0:	83 81       	ldd	r24, Z+3	; 0x03
    4df2:	81 ff       	sbrs	r24, 1
    4df4:	2a c3       	rjmp	.+1620   	; 0x544a <vfprintf+0x69a>
    4df6:	9e 01       	movw	r18, r28
    4df8:	2f 5f       	subi	r18, 0xFF	; 255
    4dfa:	3f 4f       	sbci	r19, 0xFF	; 255
    4dfc:	39 01       	movw	r6, r18
    4dfe:	f7 01       	movw	r30, r14
    4e00:	93 81       	ldd	r25, Z+3	; 0x03
    4e02:	f1 01       	movw	r30, r2
    4e04:	93 fd       	sbrc	r25, 3
    4e06:	85 91       	lpm	r24, Z+
    4e08:	93 ff       	sbrs	r25, 3
    4e0a:	81 91       	ld	r24, Z+
    4e0c:	1f 01       	movw	r2, r30
    4e0e:	88 23       	and	r24, r24
    4e10:	09 f4       	brne	.+2      	; 0x4e14 <vfprintf+0x64>
    4e12:	17 c3       	rjmp	.+1582   	; 0x5442 <vfprintf+0x692>
    4e14:	85 32       	cpi	r24, 0x25	; 37
    4e16:	39 f4       	brne	.+14     	; 0x4e26 <vfprintf+0x76>
    4e18:	93 fd       	sbrc	r25, 3
    4e1a:	85 91       	lpm	r24, Z+
    4e1c:	93 ff       	sbrs	r25, 3
    4e1e:	81 91       	ld	r24, Z+
    4e20:	1f 01       	movw	r2, r30
    4e22:	85 32       	cpi	r24, 0x25	; 37
    4e24:	31 f4       	brne	.+12     	; 0x4e32 <vfprintf+0x82>
    4e26:	b7 01       	movw	r22, r14
    4e28:	90 e0       	ldi	r25, 0x00	; 0
    4e2a:	bc d7       	rcall	.+3960   	; 0x5da4 <fputc>
    4e2c:	56 01       	movw	r10, r12
    4e2e:	65 01       	movw	r12, r10
    4e30:	e6 cf       	rjmp	.-52     	; 0x4dfe <vfprintf+0x4e>
    4e32:	10 e0       	ldi	r17, 0x00	; 0
    4e34:	51 2c       	mov	r5, r1
    4e36:	91 2c       	mov	r9, r1
    4e38:	ff e1       	ldi	r31, 0x1F	; 31
    4e3a:	f9 15       	cp	r31, r9
    4e3c:	d8 f0       	brcs	.+54     	; 0x4e74 <vfprintf+0xc4>
    4e3e:	8b 32       	cpi	r24, 0x2B	; 43
    4e40:	79 f0       	breq	.+30     	; 0x4e60 <vfprintf+0xb0>
    4e42:	38 f4       	brcc	.+14     	; 0x4e52 <vfprintf+0xa2>
    4e44:	80 32       	cpi	r24, 0x20	; 32
    4e46:	79 f0       	breq	.+30     	; 0x4e66 <vfprintf+0xb6>
    4e48:	83 32       	cpi	r24, 0x23	; 35
    4e4a:	a1 f4       	brne	.+40     	; 0x4e74 <vfprintf+0xc4>
    4e4c:	f9 2d       	mov	r31, r9
    4e4e:	f0 61       	ori	r31, 0x10	; 16
    4e50:	2e c0       	rjmp	.+92     	; 0x4eae <vfprintf+0xfe>
    4e52:	8d 32       	cpi	r24, 0x2D	; 45
    4e54:	61 f0       	breq	.+24     	; 0x4e6e <vfprintf+0xbe>
    4e56:	80 33       	cpi	r24, 0x30	; 48
    4e58:	69 f4       	brne	.+26     	; 0x4e74 <vfprintf+0xc4>
    4e5a:	29 2d       	mov	r18, r9
    4e5c:	21 60       	ori	r18, 0x01	; 1
    4e5e:	2d c0       	rjmp	.+90     	; 0x4eba <vfprintf+0x10a>
    4e60:	39 2d       	mov	r19, r9
    4e62:	32 60       	ori	r19, 0x02	; 2
    4e64:	93 2e       	mov	r9, r19
    4e66:	89 2d       	mov	r24, r9
    4e68:	84 60       	ori	r24, 0x04	; 4
    4e6a:	98 2e       	mov	r9, r24
    4e6c:	2a c0       	rjmp	.+84     	; 0x4ec2 <vfprintf+0x112>
    4e6e:	e9 2d       	mov	r30, r9
    4e70:	e8 60       	ori	r30, 0x08	; 8
    4e72:	15 c0       	rjmp	.+42     	; 0x4e9e <vfprintf+0xee>
    4e74:	97 fc       	sbrc	r9, 7
    4e76:	2d c0       	rjmp	.+90     	; 0x4ed2 <vfprintf+0x122>
    4e78:	20 ed       	ldi	r18, 0xD0	; 208
    4e7a:	28 0f       	add	r18, r24
    4e7c:	2a 30       	cpi	r18, 0x0A	; 10
    4e7e:	88 f4       	brcc	.+34     	; 0x4ea2 <vfprintf+0xf2>
    4e80:	96 fe       	sbrs	r9, 6
    4e82:	06 c0       	rjmp	.+12     	; 0x4e90 <vfprintf+0xe0>
    4e84:	3a e0       	ldi	r19, 0x0A	; 10
    4e86:	13 9f       	mul	r17, r19
    4e88:	20 0d       	add	r18, r0
    4e8a:	11 24       	eor	r1, r1
    4e8c:	12 2f       	mov	r17, r18
    4e8e:	19 c0       	rjmp	.+50     	; 0x4ec2 <vfprintf+0x112>
    4e90:	8a e0       	ldi	r24, 0x0A	; 10
    4e92:	58 9e       	mul	r5, r24
    4e94:	20 0d       	add	r18, r0
    4e96:	11 24       	eor	r1, r1
    4e98:	52 2e       	mov	r5, r18
    4e9a:	e9 2d       	mov	r30, r9
    4e9c:	e0 62       	ori	r30, 0x20	; 32
    4e9e:	9e 2e       	mov	r9, r30
    4ea0:	10 c0       	rjmp	.+32     	; 0x4ec2 <vfprintf+0x112>
    4ea2:	8e 32       	cpi	r24, 0x2E	; 46
    4ea4:	31 f4       	brne	.+12     	; 0x4eb2 <vfprintf+0x102>
    4ea6:	96 fc       	sbrc	r9, 6
    4ea8:	cc c2       	rjmp	.+1432   	; 0x5442 <vfprintf+0x692>
    4eaa:	f9 2d       	mov	r31, r9
    4eac:	f0 64       	ori	r31, 0x40	; 64
    4eae:	9f 2e       	mov	r9, r31
    4eb0:	08 c0       	rjmp	.+16     	; 0x4ec2 <vfprintf+0x112>
    4eb2:	8c 36       	cpi	r24, 0x6C	; 108
    4eb4:	21 f4       	brne	.+8      	; 0x4ebe <vfprintf+0x10e>
    4eb6:	29 2d       	mov	r18, r9
    4eb8:	20 68       	ori	r18, 0x80	; 128
    4eba:	92 2e       	mov	r9, r18
    4ebc:	02 c0       	rjmp	.+4      	; 0x4ec2 <vfprintf+0x112>
    4ebe:	88 36       	cpi	r24, 0x68	; 104
    4ec0:	41 f4       	brne	.+16     	; 0x4ed2 <vfprintf+0x122>
    4ec2:	f1 01       	movw	r30, r2
    4ec4:	93 fd       	sbrc	r25, 3
    4ec6:	85 91       	lpm	r24, Z+
    4ec8:	93 ff       	sbrs	r25, 3
    4eca:	81 91       	ld	r24, Z+
    4ecc:	1f 01       	movw	r2, r30
    4ece:	81 11       	cpse	r24, r1
    4ed0:	b3 cf       	rjmp	.-154    	; 0x4e38 <vfprintf+0x88>
    4ed2:	9b eb       	ldi	r25, 0xBB	; 187
    4ed4:	98 0f       	add	r25, r24
    4ed6:	93 30       	cpi	r25, 0x03	; 3
    4ed8:	20 f4       	brcc	.+8      	; 0x4ee2 <vfprintf+0x132>
    4eda:	99 2d       	mov	r25, r9
    4edc:	90 61       	ori	r25, 0x10	; 16
    4ede:	80 5e       	subi	r24, 0xE0	; 224
    4ee0:	07 c0       	rjmp	.+14     	; 0x4ef0 <vfprintf+0x140>
    4ee2:	9b e9       	ldi	r25, 0x9B	; 155
    4ee4:	98 0f       	add	r25, r24
    4ee6:	93 30       	cpi	r25, 0x03	; 3
    4ee8:	08 f0       	brcs	.+2      	; 0x4eec <vfprintf+0x13c>
    4eea:	59 c1       	rjmp	.+690    	; 0x519e <vfprintf+0x3ee>
    4eec:	99 2d       	mov	r25, r9
    4eee:	9f 7e       	andi	r25, 0xEF	; 239
    4ef0:	96 ff       	sbrs	r25, 6
    4ef2:	16 e0       	ldi	r17, 0x06	; 6
    4ef4:	9f 73       	andi	r25, 0x3F	; 63
    4ef6:	99 2e       	mov	r9, r25
    4ef8:	85 36       	cpi	r24, 0x65	; 101
    4efa:	19 f4       	brne	.+6      	; 0x4f02 <vfprintf+0x152>
    4efc:	90 64       	ori	r25, 0x40	; 64
    4efe:	99 2e       	mov	r9, r25
    4f00:	08 c0       	rjmp	.+16     	; 0x4f12 <vfprintf+0x162>
    4f02:	86 36       	cpi	r24, 0x66	; 102
    4f04:	21 f4       	brne	.+8      	; 0x4f0e <vfprintf+0x15e>
    4f06:	39 2f       	mov	r19, r25
    4f08:	30 68       	ori	r19, 0x80	; 128
    4f0a:	93 2e       	mov	r9, r19
    4f0c:	02 c0       	rjmp	.+4      	; 0x4f12 <vfprintf+0x162>
    4f0e:	11 11       	cpse	r17, r1
    4f10:	11 50       	subi	r17, 0x01	; 1
    4f12:	97 fe       	sbrs	r9, 7
    4f14:	07 c0       	rjmp	.+14     	; 0x4f24 <vfprintf+0x174>
    4f16:	1c 33       	cpi	r17, 0x3C	; 60
    4f18:	50 f4       	brcc	.+20     	; 0x4f2e <vfprintf+0x17e>
    4f1a:	44 24       	eor	r4, r4
    4f1c:	43 94       	inc	r4
    4f1e:	41 0e       	add	r4, r17
    4f20:	27 e0       	ldi	r18, 0x07	; 7
    4f22:	0b c0       	rjmp	.+22     	; 0x4f3a <vfprintf+0x18a>
    4f24:	18 30       	cpi	r17, 0x08	; 8
    4f26:	38 f0       	brcs	.+14     	; 0x4f36 <vfprintf+0x186>
    4f28:	27 e0       	ldi	r18, 0x07	; 7
    4f2a:	17 e0       	ldi	r17, 0x07	; 7
    4f2c:	05 c0       	rjmp	.+10     	; 0x4f38 <vfprintf+0x188>
    4f2e:	27 e0       	ldi	r18, 0x07	; 7
    4f30:	9c e3       	ldi	r25, 0x3C	; 60
    4f32:	49 2e       	mov	r4, r25
    4f34:	02 c0       	rjmp	.+4      	; 0x4f3a <vfprintf+0x18a>
    4f36:	21 2f       	mov	r18, r17
    4f38:	41 2c       	mov	r4, r1
    4f3a:	56 01       	movw	r10, r12
    4f3c:	84 e0       	ldi	r24, 0x04	; 4
    4f3e:	a8 0e       	add	r10, r24
    4f40:	b1 1c       	adc	r11, r1
    4f42:	f6 01       	movw	r30, r12
    4f44:	60 81       	ld	r22, Z
    4f46:	71 81       	ldd	r23, Z+1	; 0x01
    4f48:	82 81       	ldd	r24, Z+2	; 0x02
    4f4a:	93 81       	ldd	r25, Z+3	; 0x03
    4f4c:	04 2d       	mov	r16, r4
    4f4e:	a3 01       	movw	r20, r6
    4f50:	16 d6       	rcall	.+3116   	; 0x5b7e <__ftoa_engine>
    4f52:	6c 01       	movw	r12, r24
    4f54:	f9 81       	ldd	r31, Y+1	; 0x01
    4f56:	fc 87       	std	Y+12, r31	; 0x0c
    4f58:	f0 ff       	sbrs	r31, 0
    4f5a:	02 c0       	rjmp	.+4      	; 0x4f60 <vfprintf+0x1b0>
    4f5c:	f3 ff       	sbrs	r31, 3
    4f5e:	06 c0       	rjmp	.+12     	; 0x4f6c <vfprintf+0x1bc>
    4f60:	91 fc       	sbrc	r9, 1
    4f62:	06 c0       	rjmp	.+12     	; 0x4f70 <vfprintf+0x1c0>
    4f64:	92 fe       	sbrs	r9, 2
    4f66:	06 c0       	rjmp	.+12     	; 0x4f74 <vfprintf+0x1c4>
    4f68:	00 e2       	ldi	r16, 0x20	; 32
    4f6a:	05 c0       	rjmp	.+10     	; 0x4f76 <vfprintf+0x1c6>
    4f6c:	0d e2       	ldi	r16, 0x2D	; 45
    4f6e:	03 c0       	rjmp	.+6      	; 0x4f76 <vfprintf+0x1c6>
    4f70:	0b e2       	ldi	r16, 0x2B	; 43
    4f72:	01 c0       	rjmp	.+2      	; 0x4f76 <vfprintf+0x1c6>
    4f74:	00 e0       	ldi	r16, 0x00	; 0
    4f76:	8c 85       	ldd	r24, Y+12	; 0x0c
    4f78:	8c 70       	andi	r24, 0x0C	; 12
    4f7a:	19 f0       	breq	.+6      	; 0x4f82 <vfprintf+0x1d2>
    4f7c:	01 11       	cpse	r16, r1
    4f7e:	43 c2       	rjmp	.+1158   	; 0x5406 <vfprintf+0x656>
    4f80:	80 c2       	rjmp	.+1280   	; 0x5482 <vfprintf+0x6d2>
    4f82:	97 fe       	sbrs	r9, 7
    4f84:	10 c0       	rjmp	.+32     	; 0x4fa6 <vfprintf+0x1f6>
    4f86:	4c 0c       	add	r4, r12
    4f88:	fc 85       	ldd	r31, Y+12	; 0x0c
    4f8a:	f4 ff       	sbrs	r31, 4
    4f8c:	04 c0       	rjmp	.+8      	; 0x4f96 <vfprintf+0x1e6>
    4f8e:	8a 81       	ldd	r24, Y+2	; 0x02
    4f90:	81 33       	cpi	r24, 0x31	; 49
    4f92:	09 f4       	brne	.+2      	; 0x4f96 <vfprintf+0x1e6>
    4f94:	4a 94       	dec	r4
    4f96:	14 14       	cp	r1, r4
    4f98:	74 f5       	brge	.+92     	; 0x4ff6 <vfprintf+0x246>
    4f9a:	28 e0       	ldi	r18, 0x08	; 8
    4f9c:	24 15       	cp	r18, r4
    4f9e:	78 f5       	brcc	.+94     	; 0x4ffe <vfprintf+0x24e>
    4fa0:	88 e0       	ldi	r24, 0x08	; 8
    4fa2:	48 2e       	mov	r4, r24
    4fa4:	2c c0       	rjmp	.+88     	; 0x4ffe <vfprintf+0x24e>
    4fa6:	96 fc       	sbrc	r9, 6
    4fa8:	2a c0       	rjmp	.+84     	; 0x4ffe <vfprintf+0x24e>
    4faa:	81 2f       	mov	r24, r17
    4fac:	90 e0       	ldi	r25, 0x00	; 0
    4fae:	8c 15       	cp	r24, r12
    4fb0:	9d 05       	cpc	r25, r13
    4fb2:	9c f0       	brlt	.+38     	; 0x4fda <vfprintf+0x22a>
    4fb4:	3c ef       	ldi	r19, 0xFC	; 252
    4fb6:	c3 16       	cp	r12, r19
    4fb8:	3f ef       	ldi	r19, 0xFF	; 255
    4fba:	d3 06       	cpc	r13, r19
    4fbc:	74 f0       	brlt	.+28     	; 0x4fda <vfprintf+0x22a>
    4fbe:	89 2d       	mov	r24, r9
    4fc0:	80 68       	ori	r24, 0x80	; 128
    4fc2:	98 2e       	mov	r9, r24
    4fc4:	0a c0       	rjmp	.+20     	; 0x4fda <vfprintf+0x22a>
    4fc6:	e2 e0       	ldi	r30, 0x02	; 2
    4fc8:	f0 e0       	ldi	r31, 0x00	; 0
    4fca:	ec 0f       	add	r30, r28
    4fcc:	fd 1f       	adc	r31, r29
    4fce:	e1 0f       	add	r30, r17
    4fd0:	f1 1d       	adc	r31, r1
    4fd2:	80 81       	ld	r24, Z
    4fd4:	80 33       	cpi	r24, 0x30	; 48
    4fd6:	19 f4       	brne	.+6      	; 0x4fde <vfprintf+0x22e>
    4fd8:	11 50       	subi	r17, 0x01	; 1
    4fda:	11 11       	cpse	r17, r1
    4fdc:	f4 cf       	rjmp	.-24     	; 0x4fc6 <vfprintf+0x216>
    4fde:	97 fe       	sbrs	r9, 7
    4fe0:	0e c0       	rjmp	.+28     	; 0x4ffe <vfprintf+0x24e>
    4fe2:	44 24       	eor	r4, r4
    4fe4:	43 94       	inc	r4
    4fe6:	41 0e       	add	r4, r17
    4fe8:	81 2f       	mov	r24, r17
    4fea:	90 e0       	ldi	r25, 0x00	; 0
    4fec:	c8 16       	cp	r12, r24
    4fee:	d9 06       	cpc	r13, r25
    4ff0:	2c f4       	brge	.+10     	; 0x4ffc <vfprintf+0x24c>
    4ff2:	1c 19       	sub	r17, r12
    4ff4:	04 c0       	rjmp	.+8      	; 0x4ffe <vfprintf+0x24e>
    4ff6:	44 24       	eor	r4, r4
    4ff8:	43 94       	inc	r4
    4ffa:	01 c0       	rjmp	.+2      	; 0x4ffe <vfprintf+0x24e>
    4ffc:	10 e0       	ldi	r17, 0x00	; 0
    4ffe:	97 fe       	sbrs	r9, 7
    5000:	06 c0       	rjmp	.+12     	; 0x500e <vfprintf+0x25e>
    5002:	1c 14       	cp	r1, r12
    5004:	1d 04       	cpc	r1, r13
    5006:	34 f4       	brge	.+12     	; 0x5014 <vfprintf+0x264>
    5008:	c6 01       	movw	r24, r12
    500a:	01 96       	adiw	r24, 0x01	; 1
    500c:	05 c0       	rjmp	.+10     	; 0x5018 <vfprintf+0x268>
    500e:	85 e0       	ldi	r24, 0x05	; 5
    5010:	90 e0       	ldi	r25, 0x00	; 0
    5012:	02 c0       	rjmp	.+4      	; 0x5018 <vfprintf+0x268>
    5014:	81 e0       	ldi	r24, 0x01	; 1
    5016:	90 e0       	ldi	r25, 0x00	; 0
    5018:	01 11       	cpse	r16, r1
    501a:	01 96       	adiw	r24, 0x01	; 1
    501c:	11 23       	and	r17, r17
    501e:	31 f0       	breq	.+12     	; 0x502c <vfprintf+0x27c>
    5020:	21 2f       	mov	r18, r17
    5022:	30 e0       	ldi	r19, 0x00	; 0
    5024:	2f 5f       	subi	r18, 0xFF	; 255
    5026:	3f 4f       	sbci	r19, 0xFF	; 255
    5028:	82 0f       	add	r24, r18
    502a:	93 1f       	adc	r25, r19
    502c:	25 2d       	mov	r18, r5
    502e:	30 e0       	ldi	r19, 0x00	; 0
    5030:	82 17       	cp	r24, r18
    5032:	93 07       	cpc	r25, r19
    5034:	14 f4       	brge	.+4      	; 0x503a <vfprintf+0x28a>
    5036:	58 1a       	sub	r5, r24
    5038:	01 c0       	rjmp	.+2      	; 0x503c <vfprintf+0x28c>
    503a:	51 2c       	mov	r5, r1
    503c:	89 2d       	mov	r24, r9
    503e:	89 70       	andi	r24, 0x09	; 9
    5040:	41 f4       	brne	.+16     	; 0x5052 <vfprintf+0x2a2>
    5042:	55 20       	and	r5, r5
    5044:	31 f0       	breq	.+12     	; 0x5052 <vfprintf+0x2a2>
    5046:	b7 01       	movw	r22, r14
    5048:	80 e2       	ldi	r24, 0x20	; 32
    504a:	90 e0       	ldi	r25, 0x00	; 0
    504c:	ab d6       	rcall	.+3414   	; 0x5da4 <fputc>
    504e:	5a 94       	dec	r5
    5050:	f8 cf       	rjmp	.-16     	; 0x5042 <vfprintf+0x292>
    5052:	00 23       	and	r16, r16
    5054:	21 f0       	breq	.+8      	; 0x505e <vfprintf+0x2ae>
    5056:	b7 01       	movw	r22, r14
    5058:	80 2f       	mov	r24, r16
    505a:	90 e0       	ldi	r25, 0x00	; 0
    505c:	a3 d6       	rcall	.+3398   	; 0x5da4 <fputc>
    505e:	93 fc       	sbrc	r9, 3
    5060:	08 c0       	rjmp	.+16     	; 0x5072 <vfprintf+0x2c2>
    5062:	55 20       	and	r5, r5
    5064:	31 f0       	breq	.+12     	; 0x5072 <vfprintf+0x2c2>
    5066:	b7 01       	movw	r22, r14
    5068:	80 e3       	ldi	r24, 0x30	; 48
    506a:	90 e0       	ldi	r25, 0x00	; 0
    506c:	9b d6       	rcall	.+3382   	; 0x5da4 <fputc>
    506e:	5a 94       	dec	r5
    5070:	f8 cf       	rjmp	.-16     	; 0x5062 <vfprintf+0x2b2>
    5072:	97 fe       	sbrs	r9, 7
    5074:	4a c0       	rjmp	.+148    	; 0x510a <vfprintf+0x35a>
    5076:	46 01       	movw	r8, r12
    5078:	d7 fe       	sbrs	r13, 7
    507a:	02 c0       	rjmp	.+4      	; 0x5080 <vfprintf+0x2d0>
    507c:	81 2c       	mov	r8, r1
    507e:	91 2c       	mov	r9, r1
    5080:	c6 01       	movw	r24, r12
    5082:	88 19       	sub	r24, r8
    5084:	99 09       	sbc	r25, r9
    5086:	f3 01       	movw	r30, r6
    5088:	e8 0f       	add	r30, r24
    508a:	f9 1f       	adc	r31, r25
    508c:	fe 87       	std	Y+14, r31	; 0x0e
    508e:	ed 87       	std	Y+13, r30	; 0x0d
    5090:	96 01       	movw	r18, r12
    5092:	24 19       	sub	r18, r4
    5094:	31 09       	sbc	r19, r1
    5096:	38 8b       	std	Y+16, r19	; 0x10
    5098:	2f 87       	std	Y+15, r18	; 0x0f
    509a:	01 2f       	mov	r16, r17
    509c:	10 e0       	ldi	r17, 0x00	; 0
    509e:	11 95       	neg	r17
    50a0:	01 95       	neg	r16
    50a2:	11 09       	sbc	r17, r1
    50a4:	3f ef       	ldi	r19, 0xFF	; 255
    50a6:	83 16       	cp	r8, r19
    50a8:	93 06       	cpc	r9, r19
    50aa:	21 f4       	brne	.+8      	; 0x50b4 <vfprintf+0x304>
    50ac:	b7 01       	movw	r22, r14
    50ae:	8e e2       	ldi	r24, 0x2E	; 46
    50b0:	90 e0       	ldi	r25, 0x00	; 0
    50b2:	78 d6       	rcall	.+3312   	; 0x5da4 <fputc>
    50b4:	c8 14       	cp	r12, r8
    50b6:	d9 04       	cpc	r13, r9
    50b8:	4c f0       	brlt	.+18     	; 0x50cc <vfprintf+0x31c>
    50ba:	8f 85       	ldd	r24, Y+15	; 0x0f
    50bc:	98 89       	ldd	r25, Y+16	; 0x10
    50be:	88 15       	cp	r24, r8
    50c0:	99 05       	cpc	r25, r9
    50c2:	24 f4       	brge	.+8      	; 0x50cc <vfprintf+0x31c>
    50c4:	ed 85       	ldd	r30, Y+13	; 0x0d
    50c6:	fe 85       	ldd	r31, Y+14	; 0x0e
    50c8:	81 81       	ldd	r24, Z+1	; 0x01
    50ca:	01 c0       	rjmp	.+2      	; 0x50ce <vfprintf+0x31e>
    50cc:	80 e3       	ldi	r24, 0x30	; 48
    50ce:	f1 e0       	ldi	r31, 0x01	; 1
    50d0:	8f 1a       	sub	r8, r31
    50d2:	91 08       	sbc	r9, r1
    50d4:	2d 85       	ldd	r18, Y+13	; 0x0d
    50d6:	3e 85       	ldd	r19, Y+14	; 0x0e
    50d8:	2f 5f       	subi	r18, 0xFF	; 255
    50da:	3f 4f       	sbci	r19, 0xFF	; 255
    50dc:	3e 87       	std	Y+14, r19	; 0x0e
    50de:	2d 87       	std	Y+13, r18	; 0x0d
    50e0:	80 16       	cp	r8, r16
    50e2:	91 06       	cpc	r9, r17
    50e4:	24 f0       	brlt	.+8      	; 0x50ee <vfprintf+0x33e>
    50e6:	b7 01       	movw	r22, r14
    50e8:	90 e0       	ldi	r25, 0x00	; 0
    50ea:	5c d6       	rcall	.+3256   	; 0x5da4 <fputc>
    50ec:	db cf       	rjmp	.-74     	; 0x50a4 <vfprintf+0x2f4>
    50ee:	c8 14       	cp	r12, r8
    50f0:	d9 04       	cpc	r13, r9
    50f2:	41 f4       	brne	.+16     	; 0x5104 <vfprintf+0x354>
    50f4:	9a 81       	ldd	r25, Y+2	; 0x02
    50f6:	96 33       	cpi	r25, 0x36	; 54
    50f8:	20 f4       	brcc	.+8      	; 0x5102 <vfprintf+0x352>
    50fa:	95 33       	cpi	r25, 0x35	; 53
    50fc:	19 f4       	brne	.+6      	; 0x5104 <vfprintf+0x354>
    50fe:	3c 85       	ldd	r19, Y+12	; 0x0c
    5100:	34 ff       	sbrs	r19, 4
    5102:	81 e3       	ldi	r24, 0x31	; 49
    5104:	b7 01       	movw	r22, r14
    5106:	90 e0       	ldi	r25, 0x00	; 0
    5108:	48 c0       	rjmp	.+144    	; 0x519a <vfprintf+0x3ea>
    510a:	8a 81       	ldd	r24, Y+2	; 0x02
    510c:	81 33       	cpi	r24, 0x31	; 49
    510e:	19 f0       	breq	.+6      	; 0x5116 <vfprintf+0x366>
    5110:	9c 85       	ldd	r25, Y+12	; 0x0c
    5112:	9f 7e       	andi	r25, 0xEF	; 239
    5114:	9c 87       	std	Y+12, r25	; 0x0c
    5116:	b7 01       	movw	r22, r14
    5118:	90 e0       	ldi	r25, 0x00	; 0
    511a:	44 d6       	rcall	.+3208   	; 0x5da4 <fputc>
    511c:	11 11       	cpse	r17, r1
    511e:	05 c0       	rjmp	.+10     	; 0x512a <vfprintf+0x37a>
    5120:	94 fc       	sbrc	r9, 4
    5122:	16 c0       	rjmp	.+44     	; 0x5150 <vfprintf+0x3a0>
    5124:	85 e6       	ldi	r24, 0x65	; 101
    5126:	90 e0       	ldi	r25, 0x00	; 0
    5128:	15 c0       	rjmp	.+42     	; 0x5154 <vfprintf+0x3a4>
    512a:	b7 01       	movw	r22, r14
    512c:	8e e2       	ldi	r24, 0x2E	; 46
    512e:	90 e0       	ldi	r25, 0x00	; 0
    5130:	39 d6       	rcall	.+3186   	; 0x5da4 <fputc>
    5132:	1e 5f       	subi	r17, 0xFE	; 254
    5134:	82 e0       	ldi	r24, 0x02	; 2
    5136:	01 e0       	ldi	r16, 0x01	; 1
    5138:	08 0f       	add	r16, r24
    513a:	f3 01       	movw	r30, r6
    513c:	e8 0f       	add	r30, r24
    513e:	f1 1d       	adc	r31, r1
    5140:	80 81       	ld	r24, Z
    5142:	b7 01       	movw	r22, r14
    5144:	90 e0       	ldi	r25, 0x00	; 0
    5146:	2e d6       	rcall	.+3164   	; 0x5da4 <fputc>
    5148:	80 2f       	mov	r24, r16
    514a:	01 13       	cpse	r16, r17
    514c:	f4 cf       	rjmp	.-24     	; 0x5136 <vfprintf+0x386>
    514e:	e8 cf       	rjmp	.-48     	; 0x5120 <vfprintf+0x370>
    5150:	85 e4       	ldi	r24, 0x45	; 69
    5152:	90 e0       	ldi	r25, 0x00	; 0
    5154:	b7 01       	movw	r22, r14
    5156:	26 d6       	rcall	.+3148   	; 0x5da4 <fputc>
    5158:	d7 fc       	sbrc	r13, 7
    515a:	06 c0       	rjmp	.+12     	; 0x5168 <vfprintf+0x3b8>
    515c:	c1 14       	cp	r12, r1
    515e:	d1 04       	cpc	r13, r1
    5160:	41 f4       	brne	.+16     	; 0x5172 <vfprintf+0x3c2>
    5162:	ec 85       	ldd	r30, Y+12	; 0x0c
    5164:	e4 ff       	sbrs	r30, 4
    5166:	05 c0       	rjmp	.+10     	; 0x5172 <vfprintf+0x3c2>
    5168:	d1 94       	neg	r13
    516a:	c1 94       	neg	r12
    516c:	d1 08       	sbc	r13, r1
    516e:	8d e2       	ldi	r24, 0x2D	; 45
    5170:	01 c0       	rjmp	.+2      	; 0x5174 <vfprintf+0x3c4>
    5172:	8b e2       	ldi	r24, 0x2B	; 43
    5174:	b7 01       	movw	r22, r14
    5176:	90 e0       	ldi	r25, 0x00	; 0
    5178:	15 d6       	rcall	.+3114   	; 0x5da4 <fputc>
    517a:	80 e3       	ldi	r24, 0x30	; 48
    517c:	2a e0       	ldi	r18, 0x0A	; 10
    517e:	c2 16       	cp	r12, r18
    5180:	d1 04       	cpc	r13, r1
    5182:	2c f0       	brlt	.+10     	; 0x518e <vfprintf+0x3de>
    5184:	8f 5f       	subi	r24, 0xFF	; 255
    5186:	fa e0       	ldi	r31, 0x0A	; 10
    5188:	cf 1a       	sub	r12, r31
    518a:	d1 08       	sbc	r13, r1
    518c:	f7 cf       	rjmp	.-18     	; 0x517c <vfprintf+0x3cc>
    518e:	b7 01       	movw	r22, r14
    5190:	90 e0       	ldi	r25, 0x00	; 0
    5192:	08 d6       	rcall	.+3088   	; 0x5da4 <fputc>
    5194:	b7 01       	movw	r22, r14
    5196:	c6 01       	movw	r24, r12
    5198:	c0 96       	adiw	r24, 0x30	; 48
    519a:	04 d6       	rcall	.+3080   	; 0x5da4 <fputc>
    519c:	49 c1       	rjmp	.+658    	; 0x5430 <vfprintf+0x680>
    519e:	83 36       	cpi	r24, 0x63	; 99
    51a0:	31 f0       	breq	.+12     	; 0x51ae <vfprintf+0x3fe>
    51a2:	83 37       	cpi	r24, 0x73	; 115
    51a4:	79 f0       	breq	.+30     	; 0x51c4 <vfprintf+0x414>
    51a6:	83 35       	cpi	r24, 0x53	; 83
    51a8:	09 f0       	breq	.+2      	; 0x51ac <vfprintf+0x3fc>
    51aa:	52 c0       	rjmp	.+164    	; 0x5250 <vfprintf+0x4a0>
    51ac:	1f c0       	rjmp	.+62     	; 0x51ec <vfprintf+0x43c>
    51ae:	56 01       	movw	r10, r12
    51b0:	32 e0       	ldi	r19, 0x02	; 2
    51b2:	a3 0e       	add	r10, r19
    51b4:	b1 1c       	adc	r11, r1
    51b6:	f6 01       	movw	r30, r12
    51b8:	80 81       	ld	r24, Z
    51ba:	89 83       	std	Y+1, r24	; 0x01
    51bc:	01 e0       	ldi	r16, 0x01	; 1
    51be:	10 e0       	ldi	r17, 0x00	; 0
    51c0:	63 01       	movw	r12, r6
    51c2:	11 c0       	rjmp	.+34     	; 0x51e6 <vfprintf+0x436>
    51c4:	56 01       	movw	r10, r12
    51c6:	f2 e0       	ldi	r31, 0x02	; 2
    51c8:	af 0e       	add	r10, r31
    51ca:	b1 1c       	adc	r11, r1
    51cc:	f6 01       	movw	r30, r12
    51ce:	c0 80       	ld	r12, Z
    51d0:	d1 80       	ldd	r13, Z+1	; 0x01
    51d2:	96 fe       	sbrs	r9, 6
    51d4:	03 c0       	rjmp	.+6      	; 0x51dc <vfprintf+0x42c>
    51d6:	61 2f       	mov	r22, r17
    51d8:	70 e0       	ldi	r23, 0x00	; 0
    51da:	02 c0       	rjmp	.+4      	; 0x51e0 <vfprintf+0x430>
    51dc:	6f ef       	ldi	r22, 0xFF	; 255
    51de:	7f ef       	ldi	r23, 0xFF	; 255
    51e0:	c6 01       	movw	r24, r12
    51e2:	d5 d5       	rcall	.+2986   	; 0x5d8e <strnlen>
    51e4:	8c 01       	movw	r16, r24
    51e6:	f9 2d       	mov	r31, r9
    51e8:	ff 77       	andi	r31, 0x7F	; 127
    51ea:	13 c0       	rjmp	.+38     	; 0x5212 <vfprintf+0x462>
    51ec:	56 01       	movw	r10, r12
    51ee:	22 e0       	ldi	r18, 0x02	; 2
    51f0:	a2 0e       	add	r10, r18
    51f2:	b1 1c       	adc	r11, r1
    51f4:	f6 01       	movw	r30, r12
    51f6:	c0 80       	ld	r12, Z
    51f8:	d1 80       	ldd	r13, Z+1	; 0x01
    51fa:	96 fe       	sbrs	r9, 6
    51fc:	03 c0       	rjmp	.+6      	; 0x5204 <vfprintf+0x454>
    51fe:	61 2f       	mov	r22, r17
    5200:	70 e0       	ldi	r23, 0x00	; 0
    5202:	02 c0       	rjmp	.+4      	; 0x5208 <vfprintf+0x458>
    5204:	6f ef       	ldi	r22, 0xFF	; 255
    5206:	7f ef       	ldi	r23, 0xFF	; 255
    5208:	c6 01       	movw	r24, r12
    520a:	99 d5       	rcall	.+2866   	; 0x5d3e <strnlen_P>
    520c:	8c 01       	movw	r16, r24
    520e:	f9 2d       	mov	r31, r9
    5210:	f0 68       	ori	r31, 0x80	; 128
    5212:	9f 2e       	mov	r9, r31
    5214:	f3 fd       	sbrc	r31, 3
    5216:	18 c0       	rjmp	.+48     	; 0x5248 <vfprintf+0x498>
    5218:	85 2d       	mov	r24, r5
    521a:	90 e0       	ldi	r25, 0x00	; 0
    521c:	08 17       	cp	r16, r24
    521e:	19 07       	cpc	r17, r25
    5220:	98 f4       	brcc	.+38     	; 0x5248 <vfprintf+0x498>
    5222:	b7 01       	movw	r22, r14
    5224:	80 e2       	ldi	r24, 0x20	; 32
    5226:	90 e0       	ldi	r25, 0x00	; 0
    5228:	bd d5       	rcall	.+2938   	; 0x5da4 <fputc>
    522a:	5a 94       	dec	r5
    522c:	f5 cf       	rjmp	.-22     	; 0x5218 <vfprintf+0x468>
    522e:	f6 01       	movw	r30, r12
    5230:	97 fc       	sbrc	r9, 7
    5232:	85 91       	lpm	r24, Z+
    5234:	97 fe       	sbrs	r9, 7
    5236:	81 91       	ld	r24, Z+
    5238:	6f 01       	movw	r12, r30
    523a:	b7 01       	movw	r22, r14
    523c:	90 e0       	ldi	r25, 0x00	; 0
    523e:	b2 d5       	rcall	.+2916   	; 0x5da4 <fputc>
    5240:	51 10       	cpse	r5, r1
    5242:	5a 94       	dec	r5
    5244:	01 50       	subi	r16, 0x01	; 1
    5246:	11 09       	sbc	r17, r1
    5248:	01 15       	cp	r16, r1
    524a:	11 05       	cpc	r17, r1
    524c:	81 f7       	brne	.-32     	; 0x522e <vfprintf+0x47e>
    524e:	f0 c0       	rjmp	.+480    	; 0x5430 <vfprintf+0x680>
    5250:	84 36       	cpi	r24, 0x64	; 100
    5252:	11 f0       	breq	.+4      	; 0x5258 <vfprintf+0x4a8>
    5254:	89 36       	cpi	r24, 0x69	; 105
    5256:	59 f5       	brne	.+86     	; 0x52ae <vfprintf+0x4fe>
    5258:	56 01       	movw	r10, r12
    525a:	97 fe       	sbrs	r9, 7
    525c:	09 c0       	rjmp	.+18     	; 0x5270 <vfprintf+0x4c0>
    525e:	24 e0       	ldi	r18, 0x04	; 4
    5260:	a2 0e       	add	r10, r18
    5262:	b1 1c       	adc	r11, r1
    5264:	f6 01       	movw	r30, r12
    5266:	60 81       	ld	r22, Z
    5268:	71 81       	ldd	r23, Z+1	; 0x01
    526a:	82 81       	ldd	r24, Z+2	; 0x02
    526c:	93 81       	ldd	r25, Z+3	; 0x03
    526e:	0a c0       	rjmp	.+20     	; 0x5284 <vfprintf+0x4d4>
    5270:	f2 e0       	ldi	r31, 0x02	; 2
    5272:	af 0e       	add	r10, r31
    5274:	b1 1c       	adc	r11, r1
    5276:	f6 01       	movw	r30, r12
    5278:	60 81       	ld	r22, Z
    527a:	71 81       	ldd	r23, Z+1	; 0x01
    527c:	07 2e       	mov	r0, r23
    527e:	00 0c       	add	r0, r0
    5280:	88 0b       	sbc	r24, r24
    5282:	99 0b       	sbc	r25, r25
    5284:	f9 2d       	mov	r31, r9
    5286:	ff 76       	andi	r31, 0x6F	; 111
    5288:	9f 2e       	mov	r9, r31
    528a:	97 ff       	sbrs	r25, 7
    528c:	09 c0       	rjmp	.+18     	; 0x52a0 <vfprintf+0x4f0>
    528e:	90 95       	com	r25
    5290:	80 95       	com	r24
    5292:	70 95       	com	r23
    5294:	61 95       	neg	r22
    5296:	7f 4f       	sbci	r23, 0xFF	; 255
    5298:	8f 4f       	sbci	r24, 0xFF	; 255
    529a:	9f 4f       	sbci	r25, 0xFF	; 255
    529c:	f0 68       	ori	r31, 0x80	; 128
    529e:	9f 2e       	mov	r9, r31
    52a0:	2a e0       	ldi	r18, 0x0A	; 10
    52a2:	30 e0       	ldi	r19, 0x00	; 0
    52a4:	a3 01       	movw	r20, r6
    52a6:	e9 d5       	rcall	.+3026   	; 0x5e7a <__ultoa_invert>
    52a8:	c8 2e       	mov	r12, r24
    52aa:	c6 18       	sub	r12, r6
    52ac:	3e c0       	rjmp	.+124    	; 0x532a <vfprintf+0x57a>
    52ae:	09 2d       	mov	r16, r9
    52b0:	85 37       	cpi	r24, 0x75	; 117
    52b2:	21 f4       	brne	.+8      	; 0x52bc <vfprintf+0x50c>
    52b4:	0f 7e       	andi	r16, 0xEF	; 239
    52b6:	2a e0       	ldi	r18, 0x0A	; 10
    52b8:	30 e0       	ldi	r19, 0x00	; 0
    52ba:	1d c0       	rjmp	.+58     	; 0x52f6 <vfprintf+0x546>
    52bc:	09 7f       	andi	r16, 0xF9	; 249
    52be:	8f 36       	cpi	r24, 0x6F	; 111
    52c0:	91 f0       	breq	.+36     	; 0x52e6 <vfprintf+0x536>
    52c2:	18 f4       	brcc	.+6      	; 0x52ca <vfprintf+0x51a>
    52c4:	88 35       	cpi	r24, 0x58	; 88
    52c6:	59 f0       	breq	.+22     	; 0x52de <vfprintf+0x52e>
    52c8:	bc c0       	rjmp	.+376    	; 0x5442 <vfprintf+0x692>
    52ca:	80 37       	cpi	r24, 0x70	; 112
    52cc:	19 f0       	breq	.+6      	; 0x52d4 <vfprintf+0x524>
    52ce:	88 37       	cpi	r24, 0x78	; 120
    52d0:	11 f0       	breq	.+4      	; 0x52d6 <vfprintf+0x526>
    52d2:	b7 c0       	rjmp	.+366    	; 0x5442 <vfprintf+0x692>
    52d4:	00 61       	ori	r16, 0x10	; 16
    52d6:	04 ff       	sbrs	r16, 4
    52d8:	09 c0       	rjmp	.+18     	; 0x52ec <vfprintf+0x53c>
    52da:	04 60       	ori	r16, 0x04	; 4
    52dc:	07 c0       	rjmp	.+14     	; 0x52ec <vfprintf+0x53c>
    52de:	94 fe       	sbrs	r9, 4
    52e0:	08 c0       	rjmp	.+16     	; 0x52f2 <vfprintf+0x542>
    52e2:	06 60       	ori	r16, 0x06	; 6
    52e4:	06 c0       	rjmp	.+12     	; 0x52f2 <vfprintf+0x542>
    52e6:	28 e0       	ldi	r18, 0x08	; 8
    52e8:	30 e0       	ldi	r19, 0x00	; 0
    52ea:	05 c0       	rjmp	.+10     	; 0x52f6 <vfprintf+0x546>
    52ec:	20 e1       	ldi	r18, 0x10	; 16
    52ee:	30 e0       	ldi	r19, 0x00	; 0
    52f0:	02 c0       	rjmp	.+4      	; 0x52f6 <vfprintf+0x546>
    52f2:	20 e1       	ldi	r18, 0x10	; 16
    52f4:	32 e0       	ldi	r19, 0x02	; 2
    52f6:	56 01       	movw	r10, r12
    52f8:	07 ff       	sbrs	r16, 7
    52fa:	09 c0       	rjmp	.+18     	; 0x530e <vfprintf+0x55e>
    52fc:	84 e0       	ldi	r24, 0x04	; 4
    52fe:	a8 0e       	add	r10, r24
    5300:	b1 1c       	adc	r11, r1
    5302:	f6 01       	movw	r30, r12
    5304:	60 81       	ld	r22, Z
    5306:	71 81       	ldd	r23, Z+1	; 0x01
    5308:	82 81       	ldd	r24, Z+2	; 0x02
    530a:	93 81       	ldd	r25, Z+3	; 0x03
    530c:	08 c0       	rjmp	.+16     	; 0x531e <vfprintf+0x56e>
    530e:	f2 e0       	ldi	r31, 0x02	; 2
    5310:	af 0e       	add	r10, r31
    5312:	b1 1c       	adc	r11, r1
    5314:	f6 01       	movw	r30, r12
    5316:	60 81       	ld	r22, Z
    5318:	71 81       	ldd	r23, Z+1	; 0x01
    531a:	80 e0       	ldi	r24, 0x00	; 0
    531c:	90 e0       	ldi	r25, 0x00	; 0
    531e:	a3 01       	movw	r20, r6
    5320:	ac d5       	rcall	.+2904   	; 0x5e7a <__ultoa_invert>
    5322:	c8 2e       	mov	r12, r24
    5324:	c6 18       	sub	r12, r6
    5326:	0f 77       	andi	r16, 0x7F	; 127
    5328:	90 2e       	mov	r9, r16
    532a:	96 fe       	sbrs	r9, 6
    532c:	0b c0       	rjmp	.+22     	; 0x5344 <vfprintf+0x594>
    532e:	09 2d       	mov	r16, r9
    5330:	0e 7f       	andi	r16, 0xFE	; 254
    5332:	c1 16       	cp	r12, r17
    5334:	50 f4       	brcc	.+20     	; 0x534a <vfprintf+0x59a>
    5336:	94 fe       	sbrs	r9, 4
    5338:	0a c0       	rjmp	.+20     	; 0x534e <vfprintf+0x59e>
    533a:	92 fc       	sbrc	r9, 2
    533c:	08 c0       	rjmp	.+16     	; 0x534e <vfprintf+0x59e>
    533e:	09 2d       	mov	r16, r9
    5340:	0e 7e       	andi	r16, 0xEE	; 238
    5342:	05 c0       	rjmp	.+10     	; 0x534e <vfprintf+0x59e>
    5344:	dc 2c       	mov	r13, r12
    5346:	09 2d       	mov	r16, r9
    5348:	03 c0       	rjmp	.+6      	; 0x5350 <vfprintf+0x5a0>
    534a:	dc 2c       	mov	r13, r12
    534c:	01 c0       	rjmp	.+2      	; 0x5350 <vfprintf+0x5a0>
    534e:	d1 2e       	mov	r13, r17
    5350:	04 ff       	sbrs	r16, 4
    5352:	0d c0       	rjmp	.+26     	; 0x536e <vfprintf+0x5be>
    5354:	fe 01       	movw	r30, r28
    5356:	ec 0d       	add	r30, r12
    5358:	f1 1d       	adc	r31, r1
    535a:	80 81       	ld	r24, Z
    535c:	80 33       	cpi	r24, 0x30	; 48
    535e:	11 f4       	brne	.+4      	; 0x5364 <vfprintf+0x5b4>
    5360:	09 7e       	andi	r16, 0xE9	; 233
    5362:	09 c0       	rjmp	.+18     	; 0x5376 <vfprintf+0x5c6>
    5364:	02 ff       	sbrs	r16, 2
    5366:	06 c0       	rjmp	.+12     	; 0x5374 <vfprintf+0x5c4>
    5368:	d3 94       	inc	r13
    536a:	d3 94       	inc	r13
    536c:	04 c0       	rjmp	.+8      	; 0x5376 <vfprintf+0x5c6>
    536e:	80 2f       	mov	r24, r16
    5370:	86 78       	andi	r24, 0x86	; 134
    5372:	09 f0       	breq	.+2      	; 0x5376 <vfprintf+0x5c6>
    5374:	d3 94       	inc	r13
    5376:	03 fd       	sbrc	r16, 3
    5378:	10 c0       	rjmp	.+32     	; 0x539a <vfprintf+0x5ea>
    537a:	00 ff       	sbrs	r16, 0
    537c:	06 c0       	rjmp	.+12     	; 0x538a <vfprintf+0x5da>
    537e:	1c 2d       	mov	r17, r12
    5380:	d5 14       	cp	r13, r5
    5382:	78 f4       	brcc	.+30     	; 0x53a2 <vfprintf+0x5f2>
    5384:	15 0d       	add	r17, r5
    5386:	1d 19       	sub	r17, r13
    5388:	0c c0       	rjmp	.+24     	; 0x53a2 <vfprintf+0x5f2>
    538a:	d5 14       	cp	r13, r5
    538c:	50 f4       	brcc	.+20     	; 0x53a2 <vfprintf+0x5f2>
    538e:	b7 01       	movw	r22, r14
    5390:	80 e2       	ldi	r24, 0x20	; 32
    5392:	90 e0       	ldi	r25, 0x00	; 0
    5394:	07 d5       	rcall	.+2574   	; 0x5da4 <fputc>
    5396:	d3 94       	inc	r13
    5398:	f8 cf       	rjmp	.-16     	; 0x538a <vfprintf+0x5da>
    539a:	d5 14       	cp	r13, r5
    539c:	10 f4       	brcc	.+4      	; 0x53a2 <vfprintf+0x5f2>
    539e:	5d 18       	sub	r5, r13
    53a0:	01 c0       	rjmp	.+2      	; 0x53a4 <vfprintf+0x5f4>
    53a2:	51 2c       	mov	r5, r1
    53a4:	04 ff       	sbrs	r16, 4
    53a6:	0f c0       	rjmp	.+30     	; 0x53c6 <vfprintf+0x616>
    53a8:	b7 01       	movw	r22, r14
    53aa:	80 e3       	ldi	r24, 0x30	; 48
    53ac:	90 e0       	ldi	r25, 0x00	; 0
    53ae:	fa d4       	rcall	.+2548   	; 0x5da4 <fputc>
    53b0:	02 ff       	sbrs	r16, 2
    53b2:	16 c0       	rjmp	.+44     	; 0x53e0 <vfprintf+0x630>
    53b4:	01 fd       	sbrc	r16, 1
    53b6:	03 c0       	rjmp	.+6      	; 0x53be <vfprintf+0x60e>
    53b8:	88 e7       	ldi	r24, 0x78	; 120
    53ba:	90 e0       	ldi	r25, 0x00	; 0
    53bc:	02 c0       	rjmp	.+4      	; 0x53c2 <vfprintf+0x612>
    53be:	88 e5       	ldi	r24, 0x58	; 88
    53c0:	90 e0       	ldi	r25, 0x00	; 0
    53c2:	b7 01       	movw	r22, r14
    53c4:	0c c0       	rjmp	.+24     	; 0x53de <vfprintf+0x62e>
    53c6:	80 2f       	mov	r24, r16
    53c8:	86 78       	andi	r24, 0x86	; 134
    53ca:	51 f0       	breq	.+20     	; 0x53e0 <vfprintf+0x630>
    53cc:	01 ff       	sbrs	r16, 1
    53ce:	02 c0       	rjmp	.+4      	; 0x53d4 <vfprintf+0x624>
    53d0:	8b e2       	ldi	r24, 0x2B	; 43
    53d2:	01 c0       	rjmp	.+2      	; 0x53d6 <vfprintf+0x626>
    53d4:	80 e2       	ldi	r24, 0x20	; 32
    53d6:	07 fd       	sbrc	r16, 7
    53d8:	8d e2       	ldi	r24, 0x2D	; 45
    53da:	b7 01       	movw	r22, r14
    53dc:	90 e0       	ldi	r25, 0x00	; 0
    53de:	e2 d4       	rcall	.+2500   	; 0x5da4 <fputc>
    53e0:	c1 16       	cp	r12, r17
    53e2:	30 f4       	brcc	.+12     	; 0x53f0 <vfprintf+0x640>
    53e4:	b7 01       	movw	r22, r14
    53e6:	80 e3       	ldi	r24, 0x30	; 48
    53e8:	90 e0       	ldi	r25, 0x00	; 0
    53ea:	dc d4       	rcall	.+2488   	; 0x5da4 <fputc>
    53ec:	11 50       	subi	r17, 0x01	; 1
    53ee:	f8 cf       	rjmp	.-16     	; 0x53e0 <vfprintf+0x630>
    53f0:	ca 94       	dec	r12
    53f2:	f3 01       	movw	r30, r6
    53f4:	ec 0d       	add	r30, r12
    53f6:	f1 1d       	adc	r31, r1
    53f8:	80 81       	ld	r24, Z
    53fa:	b7 01       	movw	r22, r14
    53fc:	90 e0       	ldi	r25, 0x00	; 0
    53fe:	d2 d4       	rcall	.+2468   	; 0x5da4 <fputc>
    5400:	c1 10       	cpse	r12, r1
    5402:	f6 cf       	rjmp	.-20     	; 0x53f0 <vfprintf+0x640>
    5404:	15 c0       	rjmp	.+42     	; 0x5430 <vfprintf+0x680>
    5406:	f4 e0       	ldi	r31, 0x04	; 4
    5408:	f5 15       	cp	r31, r5
    540a:	50 f5       	brcc	.+84     	; 0x5460 <vfprintf+0x6b0>
    540c:	84 e0       	ldi	r24, 0x04	; 4
    540e:	58 1a       	sub	r5, r24
    5410:	93 fe       	sbrs	r9, 3
    5412:	1e c0       	rjmp	.+60     	; 0x5450 <vfprintf+0x6a0>
    5414:	01 11       	cpse	r16, r1
    5416:	25 c0       	rjmp	.+74     	; 0x5462 <vfprintf+0x6b2>
    5418:	2c 85       	ldd	r18, Y+12	; 0x0c
    541a:	23 ff       	sbrs	r18, 3
    541c:	27 c0       	rjmp	.+78     	; 0x546c <vfprintf+0x6bc>
    541e:	0e e2       	ldi	r16, 0x2E	; 46
    5420:	11 e0       	ldi	r17, 0x01	; 1
    5422:	39 2d       	mov	r19, r9
    5424:	30 71       	andi	r19, 0x10	; 16
    5426:	93 2e       	mov	r9, r19
    5428:	f8 01       	movw	r30, r16
    542a:	84 91       	lpm	r24, Z
    542c:	81 11       	cpse	r24, r1
    542e:	21 c0       	rjmp	.+66     	; 0x5472 <vfprintf+0x6c2>
    5430:	55 20       	and	r5, r5
    5432:	09 f4       	brne	.+2      	; 0x5436 <vfprintf+0x686>
    5434:	fc cc       	rjmp	.-1544   	; 0x4e2e <vfprintf+0x7e>
    5436:	b7 01       	movw	r22, r14
    5438:	80 e2       	ldi	r24, 0x20	; 32
    543a:	90 e0       	ldi	r25, 0x00	; 0
    543c:	b3 d4       	rcall	.+2406   	; 0x5da4 <fputc>
    543e:	5a 94       	dec	r5
    5440:	f7 cf       	rjmp	.-18     	; 0x5430 <vfprintf+0x680>
    5442:	f7 01       	movw	r30, r14
    5444:	86 81       	ldd	r24, Z+6	; 0x06
    5446:	97 81       	ldd	r25, Z+7	; 0x07
    5448:	23 c0       	rjmp	.+70     	; 0x5490 <vfprintf+0x6e0>
    544a:	8f ef       	ldi	r24, 0xFF	; 255
    544c:	9f ef       	ldi	r25, 0xFF	; 255
    544e:	20 c0       	rjmp	.+64     	; 0x5490 <vfprintf+0x6e0>
    5450:	b7 01       	movw	r22, r14
    5452:	80 e2       	ldi	r24, 0x20	; 32
    5454:	90 e0       	ldi	r25, 0x00	; 0
    5456:	a6 d4       	rcall	.+2380   	; 0x5da4 <fputc>
    5458:	5a 94       	dec	r5
    545a:	51 10       	cpse	r5, r1
    545c:	f9 cf       	rjmp	.-14     	; 0x5450 <vfprintf+0x6a0>
    545e:	da cf       	rjmp	.-76     	; 0x5414 <vfprintf+0x664>
    5460:	51 2c       	mov	r5, r1
    5462:	b7 01       	movw	r22, r14
    5464:	80 2f       	mov	r24, r16
    5466:	90 e0       	ldi	r25, 0x00	; 0
    5468:	9d d4       	rcall	.+2362   	; 0x5da4 <fputc>
    546a:	d6 cf       	rjmp	.-84     	; 0x5418 <vfprintf+0x668>
    546c:	02 e3       	ldi	r16, 0x32	; 50
    546e:	11 e0       	ldi	r17, 0x01	; 1
    5470:	d8 cf       	rjmp	.-80     	; 0x5422 <vfprintf+0x672>
    5472:	91 10       	cpse	r9, r1
    5474:	80 52       	subi	r24, 0x20	; 32
    5476:	b7 01       	movw	r22, r14
    5478:	90 e0       	ldi	r25, 0x00	; 0
    547a:	94 d4       	rcall	.+2344   	; 0x5da4 <fputc>
    547c:	0f 5f       	subi	r16, 0xFF	; 255
    547e:	1f 4f       	sbci	r17, 0xFF	; 255
    5480:	d3 cf       	rjmp	.-90     	; 0x5428 <vfprintf+0x678>
    5482:	23 e0       	ldi	r18, 0x03	; 3
    5484:	25 15       	cp	r18, r5
    5486:	10 f4       	brcc	.+4      	; 0x548c <vfprintf+0x6dc>
    5488:	83 e0       	ldi	r24, 0x03	; 3
    548a:	c1 cf       	rjmp	.-126    	; 0x540e <vfprintf+0x65e>
    548c:	51 2c       	mov	r5, r1
    548e:	c4 cf       	rjmp	.-120    	; 0x5418 <vfprintf+0x668>
    5490:	60 96       	adiw	r28, 0x10	; 16
    5492:	0f b6       	in	r0, 0x3f	; 63
    5494:	f8 94       	cli
    5496:	de bf       	out	0x3e, r29	; 62
    5498:	0f be       	out	0x3f, r0	; 63
    549a:	cd bf       	out	0x3d, r28	; 61
    549c:	df 91       	pop	r29
    549e:	cf 91       	pop	r28
    54a0:	1f 91       	pop	r17
    54a2:	0f 91       	pop	r16
    54a4:	ff 90       	pop	r15
    54a6:	ef 90       	pop	r14
    54a8:	df 90       	pop	r13
    54aa:	cf 90       	pop	r12
    54ac:	bf 90       	pop	r11
    54ae:	af 90       	pop	r10
    54b0:	9f 90       	pop	r9
    54b2:	8f 90       	pop	r8
    54b4:	7f 90       	pop	r7
    54b6:	6f 90       	pop	r6
    54b8:	5f 90       	pop	r5
    54ba:	4f 90       	pop	r4
    54bc:	3f 90       	pop	r3
    54be:	2f 90       	pop	r2
    54c0:	08 95       	ret

000054c2 <__mulsi3>:
    54c2:	db 01       	movw	r26, r22
    54c4:	8f 93       	push	r24
    54c6:	9f 93       	push	r25
    54c8:	45 d0       	rcall	.+138    	; 0x5554 <__muluhisi3>
    54ca:	bf 91       	pop	r27
    54cc:	af 91       	pop	r26
    54ce:	a2 9f       	mul	r26, r18
    54d0:	80 0d       	add	r24, r0
    54d2:	91 1d       	adc	r25, r1
    54d4:	a3 9f       	mul	r26, r19
    54d6:	90 0d       	add	r25, r0
    54d8:	b2 9f       	mul	r27, r18
    54da:	90 0d       	add	r25, r0
    54dc:	11 24       	eor	r1, r1
    54de:	08 95       	ret

000054e0 <__udivmodsi4>:
    54e0:	a1 e2       	ldi	r26, 0x21	; 33
    54e2:	1a 2e       	mov	r1, r26
    54e4:	aa 1b       	sub	r26, r26
    54e6:	bb 1b       	sub	r27, r27
    54e8:	fd 01       	movw	r30, r26
    54ea:	0d c0       	rjmp	.+26     	; 0x5506 <__udivmodsi4_ep>

000054ec <__udivmodsi4_loop>:
    54ec:	aa 1f       	adc	r26, r26
    54ee:	bb 1f       	adc	r27, r27
    54f0:	ee 1f       	adc	r30, r30
    54f2:	ff 1f       	adc	r31, r31
    54f4:	a2 17       	cp	r26, r18
    54f6:	b3 07       	cpc	r27, r19
    54f8:	e4 07       	cpc	r30, r20
    54fa:	f5 07       	cpc	r31, r21
    54fc:	20 f0       	brcs	.+8      	; 0x5506 <__udivmodsi4_ep>
    54fe:	a2 1b       	sub	r26, r18
    5500:	b3 0b       	sbc	r27, r19
    5502:	e4 0b       	sbc	r30, r20
    5504:	f5 0b       	sbc	r31, r21

00005506 <__udivmodsi4_ep>:
    5506:	66 1f       	adc	r22, r22
    5508:	77 1f       	adc	r23, r23
    550a:	88 1f       	adc	r24, r24
    550c:	99 1f       	adc	r25, r25
    550e:	1a 94       	dec	r1
    5510:	69 f7       	brne	.-38     	; 0x54ec <__udivmodsi4_loop>
    5512:	60 95       	com	r22
    5514:	70 95       	com	r23
    5516:	80 95       	com	r24
    5518:	90 95       	com	r25
    551a:	9b 01       	movw	r18, r22
    551c:	ac 01       	movw	r20, r24
    551e:	bd 01       	movw	r22, r26
    5520:	cf 01       	movw	r24, r30
    5522:	08 95       	ret

00005524 <__tablejump2__>:
    5524:	ee 0f       	add	r30, r30
    5526:	ff 1f       	adc	r31, r31
    5528:	00 24       	eor	r0, r0
    552a:	00 1c       	adc	r0, r0
    552c:	0b be       	out	0x3b, r0	; 59
    552e:	07 90       	elpm	r0, Z+
    5530:	f6 91       	elpm	r31, Z
    5532:	e0 2d       	mov	r30, r0
    5534:	09 94       	ijmp

00005536 <__umulhisi3>:
    5536:	a2 9f       	mul	r26, r18
    5538:	b0 01       	movw	r22, r0
    553a:	b3 9f       	mul	r27, r19
    553c:	c0 01       	movw	r24, r0
    553e:	a3 9f       	mul	r26, r19
    5540:	70 0d       	add	r23, r0
    5542:	81 1d       	adc	r24, r1
    5544:	11 24       	eor	r1, r1
    5546:	91 1d       	adc	r25, r1
    5548:	b2 9f       	mul	r27, r18
    554a:	70 0d       	add	r23, r0
    554c:	81 1d       	adc	r24, r1
    554e:	11 24       	eor	r1, r1
    5550:	91 1d       	adc	r25, r1
    5552:	08 95       	ret

00005554 <__muluhisi3>:
    5554:	f0 df       	rcall	.-32     	; 0x5536 <__umulhisi3>
    5556:	a5 9f       	mul	r26, r21
    5558:	90 0d       	add	r25, r0
    555a:	b4 9f       	mul	r27, r20
    555c:	90 0d       	add	r25, r0
    555e:	a4 9f       	mul	r26, r20
    5560:	80 0d       	add	r24, r0
    5562:	91 1d       	adc	r25, r1
    5564:	11 24       	eor	r1, r1
    5566:	08 95       	ret

00005568 <malloc>:
    5568:	0f 93       	push	r16
    556a:	1f 93       	push	r17
    556c:	cf 93       	push	r28
    556e:	df 93       	push	r29
    5570:	82 30       	cpi	r24, 0x02	; 2
    5572:	91 05       	cpc	r25, r1
    5574:	10 f4       	brcc	.+4      	; 0x557a <malloc+0x12>
    5576:	82 e0       	ldi	r24, 0x02	; 2
    5578:	90 e0       	ldi	r25, 0x00	; 0
    557a:	e0 91 b1 06 	lds	r30, 0x06B1	; 0x8006b1 <__flp>
    557e:	f0 91 b2 06 	lds	r31, 0x06B2	; 0x8006b2 <__flp+0x1>
    5582:	20 e0       	ldi	r18, 0x00	; 0
    5584:	30 e0       	ldi	r19, 0x00	; 0
    5586:	a0 e0       	ldi	r26, 0x00	; 0
    5588:	b0 e0       	ldi	r27, 0x00	; 0
    558a:	30 97       	sbiw	r30, 0x00	; 0
    558c:	19 f1       	breq	.+70     	; 0x55d4 <malloc+0x6c>
    558e:	40 81       	ld	r20, Z
    5590:	51 81       	ldd	r21, Z+1	; 0x01
    5592:	02 81       	ldd	r16, Z+2	; 0x02
    5594:	13 81       	ldd	r17, Z+3	; 0x03
    5596:	48 17       	cp	r20, r24
    5598:	59 07       	cpc	r21, r25
    559a:	c8 f0       	brcs	.+50     	; 0x55ce <malloc+0x66>
    559c:	84 17       	cp	r24, r20
    559e:	95 07       	cpc	r25, r21
    55a0:	69 f4       	brne	.+26     	; 0x55bc <malloc+0x54>
    55a2:	10 97       	sbiw	r26, 0x00	; 0
    55a4:	31 f0       	breq	.+12     	; 0x55b2 <malloc+0x4a>
    55a6:	12 96       	adiw	r26, 0x02	; 2
    55a8:	0c 93       	st	X, r16
    55aa:	12 97       	sbiw	r26, 0x02	; 2
    55ac:	13 96       	adiw	r26, 0x03	; 3
    55ae:	1c 93       	st	X, r17
    55b0:	27 c0       	rjmp	.+78     	; 0x5600 <malloc+0x98>
    55b2:	00 93 b1 06 	sts	0x06B1, r16	; 0x8006b1 <__flp>
    55b6:	10 93 b2 06 	sts	0x06B2, r17	; 0x8006b2 <__flp+0x1>
    55ba:	22 c0       	rjmp	.+68     	; 0x5600 <malloc+0x98>
    55bc:	21 15       	cp	r18, r1
    55be:	31 05       	cpc	r19, r1
    55c0:	19 f0       	breq	.+6      	; 0x55c8 <malloc+0x60>
    55c2:	42 17       	cp	r20, r18
    55c4:	53 07       	cpc	r21, r19
    55c6:	18 f4       	brcc	.+6      	; 0x55ce <malloc+0x66>
    55c8:	9a 01       	movw	r18, r20
    55ca:	bd 01       	movw	r22, r26
    55cc:	ef 01       	movw	r28, r30
    55ce:	df 01       	movw	r26, r30
    55d0:	f8 01       	movw	r30, r16
    55d2:	db cf       	rjmp	.-74     	; 0x558a <malloc+0x22>
    55d4:	21 15       	cp	r18, r1
    55d6:	31 05       	cpc	r19, r1
    55d8:	f9 f0       	breq	.+62     	; 0x5618 <malloc+0xb0>
    55da:	28 1b       	sub	r18, r24
    55dc:	39 0b       	sbc	r19, r25
    55de:	24 30       	cpi	r18, 0x04	; 4
    55e0:	31 05       	cpc	r19, r1
    55e2:	80 f4       	brcc	.+32     	; 0x5604 <malloc+0x9c>
    55e4:	8a 81       	ldd	r24, Y+2	; 0x02
    55e6:	9b 81       	ldd	r25, Y+3	; 0x03
    55e8:	61 15       	cp	r22, r1
    55ea:	71 05       	cpc	r23, r1
    55ec:	21 f0       	breq	.+8      	; 0x55f6 <malloc+0x8e>
    55ee:	fb 01       	movw	r30, r22
    55f0:	93 83       	std	Z+3, r25	; 0x03
    55f2:	82 83       	std	Z+2, r24	; 0x02
    55f4:	04 c0       	rjmp	.+8      	; 0x55fe <malloc+0x96>
    55f6:	90 93 b2 06 	sts	0x06B2, r25	; 0x8006b2 <__flp+0x1>
    55fa:	80 93 b1 06 	sts	0x06B1, r24	; 0x8006b1 <__flp>
    55fe:	fe 01       	movw	r30, r28
    5600:	32 96       	adiw	r30, 0x02	; 2
    5602:	44 c0       	rjmp	.+136    	; 0x568c <malloc+0x124>
    5604:	fe 01       	movw	r30, r28
    5606:	e2 0f       	add	r30, r18
    5608:	f3 1f       	adc	r31, r19
    560a:	81 93       	st	Z+, r24
    560c:	91 93       	st	Z+, r25
    560e:	22 50       	subi	r18, 0x02	; 2
    5610:	31 09       	sbc	r19, r1
    5612:	39 83       	std	Y+1, r19	; 0x01
    5614:	28 83       	st	Y, r18
    5616:	3a c0       	rjmp	.+116    	; 0x568c <malloc+0x124>
    5618:	20 91 af 06 	lds	r18, 0x06AF	; 0x8006af <__brkval>
    561c:	30 91 b0 06 	lds	r19, 0x06B0	; 0x8006b0 <__brkval+0x1>
    5620:	23 2b       	or	r18, r19
    5622:	41 f4       	brne	.+16     	; 0x5634 <malloc+0xcc>
    5624:	20 91 02 01 	lds	r18, 0x0102	; 0x800102 <__malloc_heap_start>
    5628:	30 91 03 01 	lds	r19, 0x0103	; 0x800103 <__malloc_heap_start+0x1>
    562c:	30 93 b0 06 	sts	0x06B0, r19	; 0x8006b0 <__brkval+0x1>
    5630:	20 93 af 06 	sts	0x06AF, r18	; 0x8006af <__brkval>
    5634:	20 91 00 01 	lds	r18, 0x0100	; 0x800100 <__data_start>
    5638:	30 91 01 01 	lds	r19, 0x0101	; 0x800101 <__data_start+0x1>
    563c:	21 15       	cp	r18, r1
    563e:	31 05       	cpc	r19, r1
    5640:	41 f4       	brne	.+16     	; 0x5652 <malloc+0xea>
    5642:	2d b7       	in	r18, 0x3d	; 61
    5644:	3e b7       	in	r19, 0x3e	; 62
    5646:	40 91 04 01 	lds	r20, 0x0104	; 0x800104 <__malloc_margin>
    564a:	50 91 05 01 	lds	r21, 0x0105	; 0x800105 <__malloc_margin+0x1>
    564e:	24 1b       	sub	r18, r20
    5650:	35 0b       	sbc	r19, r21
    5652:	e0 91 af 06 	lds	r30, 0x06AF	; 0x8006af <__brkval>
    5656:	f0 91 b0 06 	lds	r31, 0x06B0	; 0x8006b0 <__brkval+0x1>
    565a:	e2 17       	cp	r30, r18
    565c:	f3 07       	cpc	r31, r19
    565e:	a0 f4       	brcc	.+40     	; 0x5688 <malloc+0x120>
    5660:	2e 1b       	sub	r18, r30
    5662:	3f 0b       	sbc	r19, r31
    5664:	28 17       	cp	r18, r24
    5666:	39 07       	cpc	r19, r25
    5668:	78 f0       	brcs	.+30     	; 0x5688 <malloc+0x120>
    566a:	ac 01       	movw	r20, r24
    566c:	4e 5f       	subi	r20, 0xFE	; 254
    566e:	5f 4f       	sbci	r21, 0xFF	; 255
    5670:	24 17       	cp	r18, r20
    5672:	35 07       	cpc	r19, r21
    5674:	48 f0       	brcs	.+18     	; 0x5688 <malloc+0x120>
    5676:	4e 0f       	add	r20, r30
    5678:	5f 1f       	adc	r21, r31
    567a:	50 93 b0 06 	sts	0x06B0, r21	; 0x8006b0 <__brkval+0x1>
    567e:	40 93 af 06 	sts	0x06AF, r20	; 0x8006af <__brkval>
    5682:	81 93       	st	Z+, r24
    5684:	91 93       	st	Z+, r25
    5686:	02 c0       	rjmp	.+4      	; 0x568c <malloc+0x124>
    5688:	e0 e0       	ldi	r30, 0x00	; 0
    568a:	f0 e0       	ldi	r31, 0x00	; 0
    568c:	cf 01       	movw	r24, r30
    568e:	df 91       	pop	r29
    5690:	cf 91       	pop	r28
    5692:	1f 91       	pop	r17
    5694:	0f 91       	pop	r16
    5696:	08 95       	ret

00005698 <free>:
    5698:	cf 93       	push	r28
    569a:	df 93       	push	r29
    569c:	00 97       	sbiw	r24, 0x00	; 0
    569e:	09 f4       	brne	.+2      	; 0x56a2 <free+0xa>
    56a0:	81 c0       	rjmp	.+258    	; 0x57a4 <free+0x10c>
    56a2:	fc 01       	movw	r30, r24
    56a4:	32 97       	sbiw	r30, 0x02	; 2
    56a6:	13 82       	std	Z+3, r1	; 0x03
    56a8:	12 82       	std	Z+2, r1	; 0x02
    56aa:	a0 91 b1 06 	lds	r26, 0x06B1	; 0x8006b1 <__flp>
    56ae:	b0 91 b2 06 	lds	r27, 0x06B2	; 0x8006b2 <__flp+0x1>
    56b2:	10 97       	sbiw	r26, 0x00	; 0
    56b4:	81 f4       	brne	.+32     	; 0x56d6 <free+0x3e>
    56b6:	20 81       	ld	r18, Z
    56b8:	31 81       	ldd	r19, Z+1	; 0x01
    56ba:	82 0f       	add	r24, r18
    56bc:	93 1f       	adc	r25, r19
    56be:	20 91 af 06 	lds	r18, 0x06AF	; 0x8006af <__brkval>
    56c2:	30 91 b0 06 	lds	r19, 0x06B0	; 0x8006b0 <__brkval+0x1>
    56c6:	28 17       	cp	r18, r24
    56c8:	39 07       	cpc	r19, r25
    56ca:	51 f5       	brne	.+84     	; 0x5720 <free+0x88>
    56cc:	f0 93 b0 06 	sts	0x06B0, r31	; 0x8006b0 <__brkval+0x1>
    56d0:	e0 93 af 06 	sts	0x06AF, r30	; 0x8006af <__brkval>
    56d4:	67 c0       	rjmp	.+206    	; 0x57a4 <free+0x10c>
    56d6:	ed 01       	movw	r28, r26
    56d8:	20 e0       	ldi	r18, 0x00	; 0
    56da:	30 e0       	ldi	r19, 0x00	; 0
    56dc:	ce 17       	cp	r28, r30
    56de:	df 07       	cpc	r29, r31
    56e0:	40 f4       	brcc	.+16     	; 0x56f2 <free+0x5a>
    56e2:	4a 81       	ldd	r20, Y+2	; 0x02
    56e4:	5b 81       	ldd	r21, Y+3	; 0x03
    56e6:	9e 01       	movw	r18, r28
    56e8:	41 15       	cp	r20, r1
    56ea:	51 05       	cpc	r21, r1
    56ec:	f1 f0       	breq	.+60     	; 0x572a <free+0x92>
    56ee:	ea 01       	movw	r28, r20
    56f0:	f5 cf       	rjmp	.-22     	; 0x56dc <free+0x44>
    56f2:	d3 83       	std	Z+3, r29	; 0x03
    56f4:	c2 83       	std	Z+2, r28	; 0x02
    56f6:	40 81       	ld	r20, Z
    56f8:	51 81       	ldd	r21, Z+1	; 0x01
    56fa:	84 0f       	add	r24, r20
    56fc:	95 1f       	adc	r25, r21
    56fe:	c8 17       	cp	r28, r24
    5700:	d9 07       	cpc	r29, r25
    5702:	59 f4       	brne	.+22     	; 0x571a <free+0x82>
    5704:	88 81       	ld	r24, Y
    5706:	99 81       	ldd	r25, Y+1	; 0x01
    5708:	84 0f       	add	r24, r20
    570a:	95 1f       	adc	r25, r21
    570c:	02 96       	adiw	r24, 0x02	; 2
    570e:	91 83       	std	Z+1, r25	; 0x01
    5710:	80 83       	st	Z, r24
    5712:	8a 81       	ldd	r24, Y+2	; 0x02
    5714:	9b 81       	ldd	r25, Y+3	; 0x03
    5716:	93 83       	std	Z+3, r25	; 0x03
    5718:	82 83       	std	Z+2, r24	; 0x02
    571a:	21 15       	cp	r18, r1
    571c:	31 05       	cpc	r19, r1
    571e:	29 f4       	brne	.+10     	; 0x572a <free+0x92>
    5720:	f0 93 b2 06 	sts	0x06B2, r31	; 0x8006b2 <__flp+0x1>
    5724:	e0 93 b1 06 	sts	0x06B1, r30	; 0x8006b1 <__flp>
    5728:	3d c0       	rjmp	.+122    	; 0x57a4 <free+0x10c>
    572a:	e9 01       	movw	r28, r18
    572c:	fb 83       	std	Y+3, r31	; 0x03
    572e:	ea 83       	std	Y+2, r30	; 0x02
    5730:	49 91       	ld	r20, Y+
    5732:	59 91       	ld	r21, Y+
    5734:	c4 0f       	add	r28, r20
    5736:	d5 1f       	adc	r29, r21
    5738:	ec 17       	cp	r30, r28
    573a:	fd 07       	cpc	r31, r29
    573c:	61 f4       	brne	.+24     	; 0x5756 <free+0xbe>
    573e:	80 81       	ld	r24, Z
    5740:	91 81       	ldd	r25, Z+1	; 0x01
    5742:	84 0f       	add	r24, r20
    5744:	95 1f       	adc	r25, r21
    5746:	02 96       	adiw	r24, 0x02	; 2
    5748:	e9 01       	movw	r28, r18
    574a:	99 83       	std	Y+1, r25	; 0x01
    574c:	88 83       	st	Y, r24
    574e:	82 81       	ldd	r24, Z+2	; 0x02
    5750:	93 81       	ldd	r25, Z+3	; 0x03
    5752:	9b 83       	std	Y+3, r25	; 0x03
    5754:	8a 83       	std	Y+2, r24	; 0x02
    5756:	e0 e0       	ldi	r30, 0x00	; 0
    5758:	f0 e0       	ldi	r31, 0x00	; 0
    575a:	12 96       	adiw	r26, 0x02	; 2
    575c:	8d 91       	ld	r24, X+
    575e:	9c 91       	ld	r25, X
    5760:	13 97       	sbiw	r26, 0x03	; 3
    5762:	00 97       	sbiw	r24, 0x00	; 0
    5764:	19 f0       	breq	.+6      	; 0x576c <free+0xd4>
    5766:	fd 01       	movw	r30, r26
    5768:	dc 01       	movw	r26, r24
    576a:	f7 cf       	rjmp	.-18     	; 0x575a <free+0xc2>
    576c:	8d 91       	ld	r24, X+
    576e:	9c 91       	ld	r25, X
    5770:	11 97       	sbiw	r26, 0x01	; 1
    5772:	9d 01       	movw	r18, r26
    5774:	2e 5f       	subi	r18, 0xFE	; 254
    5776:	3f 4f       	sbci	r19, 0xFF	; 255
    5778:	82 0f       	add	r24, r18
    577a:	93 1f       	adc	r25, r19
    577c:	20 91 af 06 	lds	r18, 0x06AF	; 0x8006af <__brkval>
    5780:	30 91 b0 06 	lds	r19, 0x06B0	; 0x8006b0 <__brkval+0x1>
    5784:	28 17       	cp	r18, r24
    5786:	39 07       	cpc	r19, r25
    5788:	69 f4       	brne	.+26     	; 0x57a4 <free+0x10c>
    578a:	30 97       	sbiw	r30, 0x00	; 0
    578c:	29 f4       	brne	.+10     	; 0x5798 <free+0x100>
    578e:	10 92 b2 06 	sts	0x06B2, r1	; 0x8006b2 <__flp+0x1>
    5792:	10 92 b1 06 	sts	0x06B1, r1	; 0x8006b1 <__flp>
    5796:	02 c0       	rjmp	.+4      	; 0x579c <free+0x104>
    5798:	13 82       	std	Z+3, r1	; 0x03
    579a:	12 82       	std	Z+2, r1	; 0x02
    579c:	b0 93 b0 06 	sts	0x06B0, r27	; 0x8006b0 <__brkval+0x1>
    57a0:	a0 93 af 06 	sts	0x06AF, r26	; 0x8006af <__brkval>
    57a4:	df 91       	pop	r29
    57a6:	cf 91       	pop	r28
    57a8:	08 95       	ret

000057aa <realloc>:
    57aa:	6f 92       	push	r6
    57ac:	7f 92       	push	r7
    57ae:	8f 92       	push	r8
    57b0:	9f 92       	push	r9
    57b2:	af 92       	push	r10
    57b4:	bf 92       	push	r11
    57b6:	cf 92       	push	r12
    57b8:	df 92       	push	r13
    57ba:	ef 92       	push	r14
    57bc:	ff 92       	push	r15
    57be:	0f 93       	push	r16
    57c0:	1f 93       	push	r17
    57c2:	cf 93       	push	r28
    57c4:	df 93       	push	r29
    57c6:	00 97       	sbiw	r24, 0x00	; 0
    57c8:	81 f4       	brne	.+32     	; 0x57ea <realloc+0x40>
    57ca:	cb 01       	movw	r24, r22
    57cc:	df 91       	pop	r29
    57ce:	cf 91       	pop	r28
    57d0:	1f 91       	pop	r17
    57d2:	0f 91       	pop	r16
    57d4:	ff 90       	pop	r15
    57d6:	ef 90       	pop	r14
    57d8:	df 90       	pop	r13
    57da:	cf 90       	pop	r12
    57dc:	bf 90       	pop	r11
    57de:	af 90       	pop	r10
    57e0:	9f 90       	pop	r9
    57e2:	8f 90       	pop	r8
    57e4:	7f 90       	pop	r7
    57e6:	6f 90       	pop	r6
    57e8:	bf ce       	rjmp	.-642    	; 0x5568 <malloc>
    57ea:	fc 01       	movw	r30, r24
    57ec:	e6 0f       	add	r30, r22
    57ee:	f7 1f       	adc	r31, r23
    57f0:	9c 01       	movw	r18, r24
    57f2:	22 50       	subi	r18, 0x02	; 2
    57f4:	31 09       	sbc	r19, r1
    57f6:	e2 17       	cp	r30, r18
    57f8:	f3 07       	cpc	r31, r19
    57fa:	08 f4       	brcc	.+2      	; 0x57fe <realloc+0x54>
    57fc:	a5 c0       	rjmp	.+330    	; 0x5948 <realloc+0x19e>
    57fe:	ec 01       	movw	r28, r24
    5800:	d9 01       	movw	r26, r18
    5802:	0d 91       	ld	r16, X+
    5804:	1c 91       	ld	r17, X
    5806:	11 97       	sbiw	r26, 0x01	; 1
    5808:	06 17       	cp	r16, r22
    580a:	17 07       	cpc	r17, r23
    580c:	a8 f0       	brcs	.+42     	; 0x5838 <realloc+0x8e>
    580e:	05 30       	cpi	r16, 0x05	; 5
    5810:	11 05       	cpc	r17, r1
    5812:	08 f4       	brcc	.+2      	; 0x5816 <realloc+0x6c>
    5814:	97 c0       	rjmp	.+302    	; 0x5944 <realloc+0x19a>
    5816:	c8 01       	movw	r24, r16
    5818:	04 97       	sbiw	r24, 0x04	; 4
    581a:	86 17       	cp	r24, r22
    581c:	97 07       	cpc	r25, r23
    581e:	08 f4       	brcc	.+2      	; 0x5822 <realloc+0x78>
    5820:	91 c0       	rjmp	.+290    	; 0x5944 <realloc+0x19a>
    5822:	02 50       	subi	r16, 0x02	; 2
    5824:	11 09       	sbc	r17, r1
    5826:	06 1b       	sub	r16, r22
    5828:	17 0b       	sbc	r17, r23
    582a:	01 93       	st	Z+, r16
    582c:	11 93       	st	Z+, r17
    582e:	6d 93       	st	X+, r22
    5830:	7c 93       	st	X, r23
    5832:	cf 01       	movw	r24, r30
    5834:	31 df       	rcall	.-414    	; 0x5698 <free>
    5836:	86 c0       	rjmp	.+268    	; 0x5944 <realloc+0x19a>
    5838:	5b 01       	movw	r10, r22
    583a:	a0 1a       	sub	r10, r16
    583c:	b1 0a       	sbc	r11, r17
    583e:	4c 01       	movw	r8, r24
    5840:	80 0e       	add	r8, r16
    5842:	91 1e       	adc	r9, r17
    5844:	a0 91 b1 06 	lds	r26, 0x06B1	; 0x8006b1 <__flp>
    5848:	b0 91 b2 06 	lds	r27, 0x06B2	; 0x8006b2 <__flp+0x1>
    584c:	61 2c       	mov	r6, r1
    584e:	71 2c       	mov	r7, r1
    5850:	e1 2c       	mov	r14, r1
    5852:	f1 2c       	mov	r15, r1
    5854:	10 97       	sbiw	r26, 0x00	; 0
    5856:	09 f4       	brne	.+2      	; 0x585a <realloc+0xb0>
    5858:	46 c0       	rjmp	.+140    	; 0x58e6 <realloc+0x13c>
    585a:	8d 91       	ld	r24, X+
    585c:	9c 91       	ld	r25, X
    585e:	11 97       	sbiw	r26, 0x01	; 1
    5860:	a8 15       	cp	r26, r8
    5862:	b9 05       	cpc	r27, r9
    5864:	b1 f5       	brne	.+108    	; 0x58d2 <realloc+0x128>
    5866:	6c 01       	movw	r12, r24
    5868:	42 e0       	ldi	r20, 0x02	; 2
    586a:	c4 0e       	add	r12, r20
    586c:	d1 1c       	adc	r13, r1
    586e:	ca 14       	cp	r12, r10
    5870:	db 04       	cpc	r13, r11
    5872:	78 f1       	brcs	.+94     	; 0x58d2 <realloc+0x128>
    5874:	4c 01       	movw	r8, r24
    5876:	8a 18       	sub	r8, r10
    5878:	9b 08       	sbc	r9, r11
    587a:	64 01       	movw	r12, r8
    587c:	42 e0       	ldi	r20, 0x02	; 2
    587e:	c4 0e       	add	r12, r20
    5880:	d1 1c       	adc	r13, r1
    5882:	12 96       	adiw	r26, 0x02	; 2
    5884:	bc 90       	ld	r11, X
    5886:	12 97       	sbiw	r26, 0x02	; 2
    5888:	13 96       	adiw	r26, 0x03	; 3
    588a:	ac 91       	ld	r26, X
    588c:	b5 e0       	ldi	r27, 0x05	; 5
    588e:	cb 16       	cp	r12, r27
    5890:	d1 04       	cpc	r13, r1
    5892:	40 f0       	brcs	.+16     	; 0x58a4 <realloc+0xfa>
    5894:	b2 82       	std	Z+2, r11	; 0x02
    5896:	a3 83       	std	Z+3, r26	; 0x03
    5898:	91 82       	std	Z+1, r9	; 0x01
    589a:	80 82       	st	Z, r8
    589c:	d9 01       	movw	r26, r18
    589e:	6d 93       	st	X+, r22
    58a0:	7c 93       	st	X, r23
    58a2:	09 c0       	rjmp	.+18     	; 0x58b6 <realloc+0x10c>
    58a4:	0e 5f       	subi	r16, 0xFE	; 254
    58a6:	1f 4f       	sbci	r17, 0xFF	; 255
    58a8:	80 0f       	add	r24, r16
    58aa:	91 1f       	adc	r25, r17
    58ac:	f9 01       	movw	r30, r18
    58ae:	91 83       	std	Z+1, r25	; 0x01
    58b0:	80 83       	st	Z, r24
    58b2:	eb 2d       	mov	r30, r11
    58b4:	fa 2f       	mov	r31, r26
    58b6:	e1 14       	cp	r14, r1
    58b8:	f1 04       	cpc	r15, r1
    58ba:	31 f0       	breq	.+12     	; 0x58c8 <realloc+0x11e>
    58bc:	d7 01       	movw	r26, r14
    58be:	13 96       	adiw	r26, 0x03	; 3
    58c0:	fc 93       	st	X, r31
    58c2:	ee 93       	st	-X, r30
    58c4:	12 97       	sbiw	r26, 0x02	; 2
    58c6:	3e c0       	rjmp	.+124    	; 0x5944 <realloc+0x19a>
    58c8:	f0 93 b2 06 	sts	0x06B2, r31	; 0x8006b2 <__flp+0x1>
    58cc:	e0 93 b1 06 	sts	0x06B1, r30	; 0x8006b1 <__flp>
    58d0:	39 c0       	rjmp	.+114    	; 0x5944 <realloc+0x19a>
    58d2:	68 16       	cp	r6, r24
    58d4:	79 06       	cpc	r7, r25
    58d6:	08 f4       	brcc	.+2      	; 0x58da <realloc+0x130>
    58d8:	3c 01       	movw	r6, r24
    58da:	7d 01       	movw	r14, r26
    58dc:	12 96       	adiw	r26, 0x02	; 2
    58de:	0d 90       	ld	r0, X+
    58e0:	bc 91       	ld	r27, X
    58e2:	a0 2d       	mov	r26, r0
    58e4:	b7 cf       	rjmp	.-146    	; 0x5854 <realloc+0xaa>
    58e6:	80 91 af 06 	lds	r24, 0x06AF	; 0x8006af <__brkval>
    58ea:	90 91 b0 06 	lds	r25, 0x06B0	; 0x8006b0 <__brkval+0x1>
    58ee:	88 16       	cp	r8, r24
    58f0:	99 06       	cpc	r9, r25
    58f2:	e1 f4       	brne	.+56     	; 0x592c <realloc+0x182>
    58f4:	66 16       	cp	r6, r22
    58f6:	77 06       	cpc	r7, r23
    58f8:	c8 f4       	brcc	.+50     	; 0x592c <realloc+0x182>
    58fa:	80 91 00 01 	lds	r24, 0x0100	; 0x800100 <__data_start>
    58fe:	90 91 01 01 	lds	r25, 0x0101	; 0x800101 <__data_start+0x1>
    5902:	00 97       	sbiw	r24, 0x00	; 0
    5904:	41 f4       	brne	.+16     	; 0x5916 <realloc+0x16c>
    5906:	8d b7       	in	r24, 0x3d	; 61
    5908:	9e b7       	in	r25, 0x3e	; 62
    590a:	40 91 04 01 	lds	r20, 0x0104	; 0x800104 <__malloc_margin>
    590e:	50 91 05 01 	lds	r21, 0x0105	; 0x800105 <__malloc_margin+0x1>
    5912:	84 1b       	sub	r24, r20
    5914:	95 0b       	sbc	r25, r21
    5916:	e8 17       	cp	r30, r24
    5918:	f9 07       	cpc	r31, r25
    591a:	b0 f4       	brcc	.+44     	; 0x5948 <realloc+0x19e>
    591c:	f0 93 b0 06 	sts	0x06B0, r31	; 0x8006b0 <__brkval+0x1>
    5920:	e0 93 af 06 	sts	0x06AF, r30	; 0x8006af <__brkval>
    5924:	f9 01       	movw	r30, r18
    5926:	71 83       	std	Z+1, r23	; 0x01
    5928:	60 83       	st	Z, r22
    592a:	0c c0       	rjmp	.+24     	; 0x5944 <realloc+0x19a>
    592c:	cb 01       	movw	r24, r22
    592e:	1c de       	rcall	.-968    	; 0x5568 <malloc>
    5930:	7c 01       	movw	r14, r24
    5932:	00 97       	sbiw	r24, 0x00	; 0
    5934:	49 f0       	breq	.+18     	; 0x5948 <realloc+0x19e>
    5936:	a8 01       	movw	r20, r16
    5938:	be 01       	movw	r22, r28
    593a:	19 d2       	rcall	.+1074   	; 0x5d6e <memcpy>
    593c:	ce 01       	movw	r24, r28
    593e:	ac de       	rcall	.-680    	; 0x5698 <free>
    5940:	c7 01       	movw	r24, r14
    5942:	04 c0       	rjmp	.+8      	; 0x594c <realloc+0x1a2>
    5944:	ce 01       	movw	r24, r28
    5946:	02 c0       	rjmp	.+4      	; 0x594c <realloc+0x1a2>
    5948:	80 e0       	ldi	r24, 0x00	; 0
    594a:	90 e0       	ldi	r25, 0x00	; 0
    594c:	df 91       	pop	r29
    594e:	cf 91       	pop	r28
    5950:	1f 91       	pop	r17
    5952:	0f 91       	pop	r16
    5954:	ff 90       	pop	r15
    5956:	ef 90       	pop	r14
    5958:	df 90       	pop	r13
    595a:	cf 90       	pop	r12
    595c:	bf 90       	pop	r11
    595e:	af 90       	pop	r10
    5960:	9f 90       	pop	r9
    5962:	8f 90       	pop	r8
    5964:	7f 90       	pop	r7
    5966:	6f 90       	pop	r6
    5968:	08 95       	ret

0000596a <strtoul>:
    596a:	3f 92       	push	r3
    596c:	4f 92       	push	r4
    596e:	5f 92       	push	r5
    5970:	6f 92       	push	r6
    5972:	7f 92       	push	r7
    5974:	8f 92       	push	r8
    5976:	9f 92       	push	r9
    5978:	af 92       	push	r10
    597a:	bf 92       	push	r11
    597c:	cf 92       	push	r12
    597e:	df 92       	push	r13
    5980:	ef 92       	push	r14
    5982:	ff 92       	push	r15
    5984:	0f 93       	push	r16
    5986:	1f 93       	push	r17
    5988:	cf 93       	push	r28
    598a:	df 93       	push	r29
    598c:	5c 01       	movw	r10, r24
    598e:	6b 01       	movw	r12, r22
    5990:	7a 01       	movw	r14, r20
    5992:	61 15       	cp	r22, r1
    5994:	71 05       	cpc	r23, r1
    5996:	19 f0       	breq	.+6      	; 0x599e <strtoul+0x34>
    5998:	fb 01       	movw	r30, r22
    599a:	91 83       	std	Z+1, r25	; 0x01
    599c:	80 83       	st	Z, r24
    599e:	e1 14       	cp	r14, r1
    59a0:	f1 04       	cpc	r15, r1
    59a2:	29 f0       	breq	.+10     	; 0x59ae <strtoul+0x44>
    59a4:	c7 01       	movw	r24, r14
    59a6:	02 97       	sbiw	r24, 0x02	; 2
    59a8:	83 97       	sbiw	r24, 0x23	; 35
    59aa:	08 f0       	brcs	.+2      	; 0x59ae <strtoul+0x44>
    59ac:	c6 c0       	rjmp	.+396    	; 0x5b3a <strtoul+0x1d0>
    59ae:	e5 01       	movw	r28, r10
    59b0:	21 96       	adiw	r28, 0x01	; 1
    59b2:	f5 01       	movw	r30, r10
    59b4:	10 81       	ld	r17, Z
    59b6:	81 2f       	mov	r24, r17
    59b8:	90 e0       	ldi	r25, 0x00	; 0
    59ba:	b9 d1       	rcall	.+882    	; 0x5d2e <isspace>
    59bc:	89 2b       	or	r24, r25
    59be:	11 f0       	breq	.+4      	; 0x59c4 <strtoul+0x5a>
    59c0:	5e 01       	movw	r10, r28
    59c2:	f5 cf       	rjmp	.-22     	; 0x59ae <strtoul+0x44>
    59c4:	1d 32       	cpi	r17, 0x2D	; 45
    59c6:	29 f4       	brne	.+10     	; 0x59d2 <strtoul+0x68>
    59c8:	21 96       	adiw	r28, 0x01	; 1
    59ca:	f5 01       	movw	r30, r10
    59cc:	11 81       	ldd	r17, Z+1	; 0x01
    59ce:	01 e0       	ldi	r16, 0x01	; 1
    59d0:	07 c0       	rjmp	.+14     	; 0x59e0 <strtoul+0x76>
    59d2:	1b 32       	cpi	r17, 0x2B	; 43
    59d4:	21 f4       	brne	.+8      	; 0x59de <strtoul+0x74>
    59d6:	e5 01       	movw	r28, r10
    59d8:	22 96       	adiw	r28, 0x02	; 2
    59da:	f5 01       	movw	r30, r10
    59dc:	11 81       	ldd	r17, Z+1	; 0x01
    59de:	00 e0       	ldi	r16, 0x00	; 0
    59e0:	e1 14       	cp	r14, r1
    59e2:	f1 04       	cpc	r15, r1
    59e4:	b1 f0       	breq	.+44     	; 0x5a12 <strtoul+0xa8>
    59e6:	f0 e1       	ldi	r31, 0x10	; 16
    59e8:	ef 16       	cp	r14, r31
    59ea:	f1 04       	cpc	r15, r1
    59ec:	29 f4       	brne	.+10     	; 0x59f8 <strtoul+0x8e>
    59ee:	ae c0       	rjmp	.+348    	; 0x5b4c <strtoul+0x1e2>
    59f0:	10 e3       	ldi	r17, 0x30	; 48
    59f2:	e1 14       	cp	r14, r1
    59f4:	f1 04       	cpc	r15, r1
    59f6:	01 f1       	breq	.+64     	; 0x5a38 <strtoul+0xce>
    59f8:	2a e0       	ldi	r18, 0x0A	; 10
    59fa:	e2 16       	cp	r14, r18
    59fc:	f1 04       	cpc	r15, r1
    59fe:	a9 f1       	breq	.+106    	; 0x5a6a <strtoul+0x100>
    5a00:	80 e1       	ldi	r24, 0x10	; 16
    5a02:	e8 16       	cp	r14, r24
    5a04:	f1 04       	cpc	r15, r1
    5a06:	71 f0       	breq	.+28     	; 0x5a24 <strtoul+0xba>
    5a08:	e8 e0       	ldi	r30, 0x08	; 8
    5a0a:	ee 16       	cp	r14, r30
    5a0c:	f1 04       	cpc	r15, r1
    5a0e:	f1 f4       	brne	.+60     	; 0x5a4c <strtoul+0xe2>
    5a10:	13 c0       	rjmp	.+38     	; 0x5a38 <strtoul+0xce>
    5a12:	10 33       	cpi	r17, 0x30	; 48
    5a14:	39 f5       	brne	.+78     	; 0x5a64 <strtoul+0xfa>
    5a16:	88 81       	ld	r24, Y
    5a18:	8f 7d       	andi	r24, 0xDF	; 223
    5a1a:	88 35       	cpi	r24, 0x58	; 88
    5a1c:	49 f7       	brne	.-46     	; 0x59f0 <strtoul+0x86>
    5a1e:	19 81       	ldd	r17, Y+1	; 0x01
    5a20:	22 96       	adiw	r28, 0x02	; 2
    5a22:	02 60       	ori	r16, 0x02	; 2
    5a24:	f0 e1       	ldi	r31, 0x10	; 16
    5a26:	ef 2e       	mov	r14, r31
    5a28:	f1 2c       	mov	r15, r1
    5a2a:	88 24       	eor	r8, r8
    5a2c:	8a 94       	dec	r8
    5a2e:	98 2c       	mov	r9, r8
    5a30:	a8 2c       	mov	r10, r8
    5a32:	af e0       	ldi	r26, 0x0F	; 15
    5a34:	ba 2e       	mov	r11, r26
    5a36:	1f c0       	rjmp	.+62     	; 0x5a76 <strtoul+0x10c>
    5a38:	78 e0       	ldi	r23, 0x08	; 8
    5a3a:	e7 2e       	mov	r14, r23
    5a3c:	f1 2c       	mov	r15, r1
    5a3e:	88 24       	eor	r8, r8
    5a40:	8a 94       	dec	r8
    5a42:	98 2c       	mov	r9, r8
    5a44:	a8 2c       	mov	r10, r8
    5a46:	ef e1       	ldi	r30, 0x1F	; 31
    5a48:	be 2e       	mov	r11, r30
    5a4a:	15 c0       	rjmp	.+42     	; 0x5a76 <strtoul+0x10c>
    5a4c:	6f ef       	ldi	r22, 0xFF	; 255
    5a4e:	7f ef       	ldi	r23, 0xFF	; 255
    5a50:	cb 01       	movw	r24, r22
    5a52:	97 01       	movw	r18, r14
    5a54:	0f 2c       	mov	r0, r15
    5a56:	00 0c       	add	r0, r0
    5a58:	44 0b       	sbc	r20, r20
    5a5a:	55 0b       	sbc	r21, r21
    5a5c:	41 dd       	rcall	.-1406   	; 0x54e0 <__udivmodsi4>
    5a5e:	49 01       	movw	r8, r18
    5a60:	5a 01       	movw	r10, r20
    5a62:	09 c0       	rjmp	.+18     	; 0x5a76 <strtoul+0x10c>
    5a64:	8a e0       	ldi	r24, 0x0A	; 10
    5a66:	e8 2e       	mov	r14, r24
    5a68:	f1 2c       	mov	r15, r1
    5a6a:	69 e9       	ldi	r22, 0x99	; 153
    5a6c:	86 2e       	mov	r8, r22
    5a6e:	98 2c       	mov	r9, r8
    5a70:	a8 2c       	mov	r10, r8
    5a72:	69 e1       	ldi	r22, 0x19	; 25
    5a74:	b6 2e       	mov	r11, r22
    5a76:	40 e0       	ldi	r20, 0x00	; 0
    5a78:	60 e0       	ldi	r22, 0x00	; 0
    5a7a:	70 e0       	ldi	r23, 0x00	; 0
    5a7c:	cb 01       	movw	r24, r22
    5a7e:	27 01       	movw	r4, r14
    5a80:	0f 2c       	mov	r0, r15
    5a82:	00 0c       	add	r0, r0
    5a84:	66 08       	sbc	r6, r6
    5a86:	77 08       	sbc	r7, r7
    5a88:	fe 01       	movw	r30, r28
    5a8a:	50 ed       	ldi	r21, 0xD0	; 208
    5a8c:	35 2e       	mov	r3, r21
    5a8e:	31 0e       	add	r3, r17
    5a90:	29 e0       	ldi	r18, 0x09	; 9
    5a92:	23 15       	cp	r18, r3
    5a94:	70 f4       	brcc	.+28     	; 0x5ab2 <strtoul+0x148>
    5a96:	2f eb       	ldi	r18, 0xBF	; 191
    5a98:	21 0f       	add	r18, r17
    5a9a:	2a 31       	cpi	r18, 0x1A	; 26
    5a9c:	18 f4       	brcc	.+6      	; 0x5aa4 <strtoul+0x13a>
    5a9e:	39 ec       	ldi	r19, 0xC9	; 201
    5aa0:	33 2e       	mov	r3, r19
    5aa2:	06 c0       	rjmp	.+12     	; 0x5ab0 <strtoul+0x146>
    5aa4:	2f e9       	ldi	r18, 0x9F	; 159
    5aa6:	21 0f       	add	r18, r17
    5aa8:	2a 31       	cpi	r18, 0x1A	; 26
    5aaa:	28 f5       	brcc	.+74     	; 0x5af6 <strtoul+0x18c>
    5aac:	29 ea       	ldi	r18, 0xA9	; 169
    5aae:	32 2e       	mov	r3, r18
    5ab0:	31 0e       	add	r3, r17
    5ab2:	23 2d       	mov	r18, r3
    5ab4:	30 e0       	ldi	r19, 0x00	; 0
    5ab6:	2e 15       	cp	r18, r14
    5ab8:	3f 05       	cpc	r19, r15
    5aba:	ec f4       	brge	.+58     	; 0x5af6 <strtoul+0x18c>
    5abc:	4f 3f       	cpi	r20, 0xFF	; 255
    5abe:	c1 f0       	breq	.+48     	; 0x5af0 <strtoul+0x186>
    5ac0:	86 16       	cp	r8, r22
    5ac2:	97 06       	cpc	r9, r23
    5ac4:	a8 06       	cpc	r10, r24
    5ac6:	b9 06       	cpc	r11, r25
    5ac8:	80 f0       	brcs	.+32     	; 0x5aea <strtoul+0x180>
    5aca:	a3 01       	movw	r20, r6
    5acc:	92 01       	movw	r18, r4
    5ace:	f9 dc       	rcall	.-1550   	; 0x54c2 <__mulsi3>
    5ad0:	23 2d       	mov	r18, r3
    5ad2:	30 e0       	ldi	r19, 0x00	; 0
    5ad4:	40 e0       	ldi	r20, 0x00	; 0
    5ad6:	50 e0       	ldi	r21, 0x00	; 0
    5ad8:	62 0f       	add	r22, r18
    5ada:	73 1f       	adc	r23, r19
    5adc:	84 1f       	adc	r24, r20
    5ade:	95 1f       	adc	r25, r21
    5ae0:	62 17       	cp	r22, r18
    5ae2:	73 07       	cpc	r23, r19
    5ae4:	84 07       	cpc	r24, r20
    5ae6:	95 07       	cpc	r25, r21
    5ae8:	10 f4       	brcc	.+4      	; 0x5aee <strtoul+0x184>
    5aea:	4f ef       	ldi	r20, 0xFF	; 255
    5aec:	01 c0       	rjmp	.+2      	; 0x5af0 <strtoul+0x186>
    5aee:	41 e0       	ldi	r20, 0x01	; 1
    5af0:	21 96       	adiw	r28, 0x01	; 1
    5af2:	10 81       	ld	r17, Z
    5af4:	c9 cf       	rjmp	.-110    	; 0x5a88 <strtoul+0x11e>
    5af6:	c1 14       	cp	r12, r1
    5af8:	d1 04       	cpc	r13, r1
    5afa:	51 f0       	breq	.+20     	; 0x5b10 <strtoul+0x1a6>
    5afc:	44 23       	and	r20, r20
    5afe:	11 f0       	breq	.+4      	; 0x5b04 <strtoul+0x19a>
    5b00:	21 97       	sbiw	r28, 0x01	; 1
    5b02:	03 c0       	rjmp	.+6      	; 0x5b0a <strtoul+0x1a0>
    5b04:	01 ff       	sbrs	r16, 1
    5b06:	04 c0       	rjmp	.+8      	; 0x5b10 <strtoul+0x1a6>
    5b08:	22 97       	sbiw	r28, 0x02	; 2
    5b0a:	f6 01       	movw	r30, r12
    5b0c:	d1 83       	std	Z+1, r29	; 0x01
    5b0e:	c0 83       	st	Z, r28
    5b10:	00 ff       	sbrs	r16, 0
    5b12:	07 c0       	rjmp	.+14     	; 0x5b22 <strtoul+0x1b8>
    5b14:	90 95       	com	r25
    5b16:	80 95       	com	r24
    5b18:	70 95       	com	r23
    5b1a:	61 95       	neg	r22
    5b1c:	7f 4f       	sbci	r23, 0xFF	; 255
    5b1e:	8f 4f       	sbci	r24, 0xFF	; 255
    5b20:	9f 4f       	sbci	r25, 0xFF	; 255
    5b22:	4f 3f       	cpi	r20, 0xFF	; 255
    5b24:	79 f4       	brne	.+30     	; 0x5b44 <strtoul+0x1da>
    5b26:	82 e2       	ldi	r24, 0x22	; 34
    5b28:	90 e0       	ldi	r25, 0x00	; 0
    5b2a:	90 93 b4 06 	sts	0x06B4, r25	; 0x8006b4 <errno+0x1>
    5b2e:	80 93 b3 06 	sts	0x06B3, r24	; 0x8006b3 <errno>
    5b32:	3f ef       	ldi	r19, 0xFF	; 255
    5b34:	2f ef       	ldi	r18, 0xFF	; 255
    5b36:	9f ef       	ldi	r25, 0xFF	; 255
    5b38:	0d c0       	rjmp	.+26     	; 0x5b54 <strtoul+0x1ea>
    5b3a:	40 e0       	ldi	r20, 0x00	; 0
    5b3c:	30 e0       	ldi	r19, 0x00	; 0
    5b3e:	20 e0       	ldi	r18, 0x00	; 0
    5b40:	90 e0       	ldi	r25, 0x00	; 0
    5b42:	08 c0       	rjmp	.+16     	; 0x5b54 <strtoul+0x1ea>
    5b44:	46 2f       	mov	r20, r22
    5b46:	37 2f       	mov	r19, r23
    5b48:	28 2f       	mov	r18, r24
    5b4a:	04 c0       	rjmp	.+8      	; 0x5b54 <strtoul+0x1ea>
    5b4c:	10 33       	cpi	r17, 0x30	; 48
    5b4e:	09 f0       	breq	.+2      	; 0x5b52 <strtoul+0x1e8>
    5b50:	69 cf       	rjmp	.-302    	; 0x5a24 <strtoul+0xba>
    5b52:	61 cf       	rjmp	.-318    	; 0x5a16 <strtoul+0xac>
    5b54:	64 2f       	mov	r22, r20
    5b56:	73 2f       	mov	r23, r19
    5b58:	82 2f       	mov	r24, r18
    5b5a:	df 91       	pop	r29
    5b5c:	cf 91       	pop	r28
    5b5e:	1f 91       	pop	r17
    5b60:	0f 91       	pop	r16
    5b62:	ff 90       	pop	r15
    5b64:	ef 90       	pop	r14
    5b66:	df 90       	pop	r13
    5b68:	cf 90       	pop	r12
    5b6a:	bf 90       	pop	r11
    5b6c:	af 90       	pop	r10
    5b6e:	9f 90       	pop	r9
    5b70:	8f 90       	pop	r8
    5b72:	7f 90       	pop	r7
    5b74:	6f 90       	pop	r6
    5b76:	5f 90       	pop	r5
    5b78:	4f 90       	pop	r4
    5b7a:	3f 90       	pop	r3
    5b7c:	08 95       	ret

00005b7e <__ftoa_engine>:
    5b7e:	28 30       	cpi	r18, 0x08	; 8
    5b80:	08 f0       	brcs	.+2      	; 0x5b84 <__ftoa_engine+0x6>
    5b82:	27 e0       	ldi	r18, 0x07	; 7
    5b84:	33 27       	eor	r19, r19
    5b86:	da 01       	movw	r26, r20
    5b88:	99 0f       	add	r25, r25
    5b8a:	31 1d       	adc	r19, r1
    5b8c:	87 fd       	sbrc	r24, 7
    5b8e:	91 60       	ori	r25, 0x01	; 1
    5b90:	00 96       	adiw	r24, 0x00	; 0
    5b92:	61 05       	cpc	r22, r1
    5b94:	71 05       	cpc	r23, r1
    5b96:	39 f4       	brne	.+14     	; 0x5ba6 <__ftoa_engine+0x28>
    5b98:	32 60       	ori	r19, 0x02	; 2
    5b9a:	2e 5f       	subi	r18, 0xFE	; 254
    5b9c:	3d 93       	st	X+, r19
    5b9e:	30 e3       	ldi	r19, 0x30	; 48
    5ba0:	2a 95       	dec	r18
    5ba2:	e1 f7       	brne	.-8      	; 0x5b9c <__ftoa_engine+0x1e>
    5ba4:	08 95       	ret
    5ba6:	9f 3f       	cpi	r25, 0xFF	; 255
    5ba8:	30 f0       	brcs	.+12     	; 0x5bb6 <__ftoa_engine+0x38>
    5baa:	80 38       	cpi	r24, 0x80	; 128
    5bac:	71 05       	cpc	r23, r1
    5bae:	61 05       	cpc	r22, r1
    5bb0:	09 f0       	breq	.+2      	; 0x5bb4 <__ftoa_engine+0x36>
    5bb2:	3c 5f       	subi	r19, 0xFC	; 252
    5bb4:	3c 5f       	subi	r19, 0xFC	; 252
    5bb6:	3d 93       	st	X+, r19
    5bb8:	91 30       	cpi	r25, 0x01	; 1
    5bba:	08 f0       	brcs	.+2      	; 0x5bbe <__ftoa_engine+0x40>
    5bbc:	80 68       	ori	r24, 0x80	; 128
    5bbe:	91 1d       	adc	r25, r1
    5bc0:	df 93       	push	r29
    5bc2:	cf 93       	push	r28
    5bc4:	1f 93       	push	r17
    5bc6:	0f 93       	push	r16
    5bc8:	ff 92       	push	r15
    5bca:	ef 92       	push	r14
    5bcc:	19 2f       	mov	r17, r25
    5bce:	98 7f       	andi	r25, 0xF8	; 248
    5bd0:	96 95       	lsr	r25
    5bd2:	e9 2f       	mov	r30, r25
    5bd4:	96 95       	lsr	r25
    5bd6:	96 95       	lsr	r25
    5bd8:	e9 0f       	add	r30, r25
    5bda:	ff 27       	eor	r31, r31
    5bdc:	e0 57       	subi	r30, 0x70	; 112
    5bde:	fe 4f       	sbci	r31, 0xFE	; 254
    5be0:	99 27       	eor	r25, r25
    5be2:	33 27       	eor	r19, r19
    5be4:	ee 24       	eor	r14, r14
    5be6:	ff 24       	eor	r15, r15
    5be8:	a7 01       	movw	r20, r14
    5bea:	e7 01       	movw	r28, r14
    5bec:	05 90       	lpm	r0, Z+
    5bee:	08 94       	sec
    5bf0:	07 94       	ror	r0
    5bf2:	28 f4       	brcc	.+10     	; 0x5bfe <__ftoa_engine+0x80>
    5bf4:	36 0f       	add	r19, r22
    5bf6:	e7 1e       	adc	r14, r23
    5bf8:	f8 1e       	adc	r15, r24
    5bfa:	49 1f       	adc	r20, r25
    5bfc:	51 1d       	adc	r21, r1
    5bfe:	66 0f       	add	r22, r22
    5c00:	77 1f       	adc	r23, r23
    5c02:	88 1f       	adc	r24, r24
    5c04:	99 1f       	adc	r25, r25
    5c06:	06 94       	lsr	r0
    5c08:	a1 f7       	brne	.-24     	; 0x5bf2 <__ftoa_engine+0x74>
    5c0a:	05 90       	lpm	r0, Z+
    5c0c:	07 94       	ror	r0
    5c0e:	28 f4       	brcc	.+10     	; 0x5c1a <__ftoa_engine+0x9c>
    5c10:	e7 0e       	add	r14, r23
    5c12:	f8 1e       	adc	r15, r24
    5c14:	49 1f       	adc	r20, r25
    5c16:	56 1f       	adc	r21, r22
    5c18:	c1 1d       	adc	r28, r1
    5c1a:	77 0f       	add	r23, r23
    5c1c:	88 1f       	adc	r24, r24
    5c1e:	99 1f       	adc	r25, r25
    5c20:	66 1f       	adc	r22, r22
    5c22:	06 94       	lsr	r0
    5c24:	a1 f7       	brne	.-24     	; 0x5c0e <__ftoa_engine+0x90>
    5c26:	05 90       	lpm	r0, Z+
    5c28:	07 94       	ror	r0
    5c2a:	28 f4       	brcc	.+10     	; 0x5c36 <__ftoa_engine+0xb8>
    5c2c:	f8 0e       	add	r15, r24
    5c2e:	49 1f       	adc	r20, r25
    5c30:	56 1f       	adc	r21, r22
    5c32:	c7 1f       	adc	r28, r23
    5c34:	d1 1d       	adc	r29, r1
    5c36:	88 0f       	add	r24, r24
    5c38:	99 1f       	adc	r25, r25
    5c3a:	66 1f       	adc	r22, r22
    5c3c:	77 1f       	adc	r23, r23
    5c3e:	06 94       	lsr	r0
    5c40:	a1 f7       	brne	.-24     	; 0x5c2a <__ftoa_engine+0xac>
    5c42:	05 90       	lpm	r0, Z+
    5c44:	07 94       	ror	r0
    5c46:	20 f4       	brcc	.+8      	; 0x5c50 <__ftoa_engine+0xd2>
    5c48:	49 0f       	add	r20, r25
    5c4a:	56 1f       	adc	r21, r22
    5c4c:	c7 1f       	adc	r28, r23
    5c4e:	d8 1f       	adc	r29, r24
    5c50:	99 0f       	add	r25, r25
    5c52:	66 1f       	adc	r22, r22
    5c54:	77 1f       	adc	r23, r23
    5c56:	88 1f       	adc	r24, r24
    5c58:	06 94       	lsr	r0
    5c5a:	a9 f7       	brne	.-22     	; 0x5c46 <__ftoa_engine+0xc8>
    5c5c:	84 91       	lpm	r24, Z
    5c5e:	10 95       	com	r17
    5c60:	17 70       	andi	r17, 0x07	; 7
    5c62:	41 f0       	breq	.+16     	; 0x5c74 <__ftoa_engine+0xf6>
    5c64:	d6 95       	lsr	r29
    5c66:	c7 95       	ror	r28
    5c68:	57 95       	ror	r21
    5c6a:	47 95       	ror	r20
    5c6c:	f7 94       	ror	r15
    5c6e:	e7 94       	ror	r14
    5c70:	1a 95       	dec	r17
    5c72:	c1 f7       	brne	.-16     	; 0x5c64 <__ftoa_engine+0xe6>
    5c74:	e6 e3       	ldi	r30, 0x36	; 54
    5c76:	f1 e0       	ldi	r31, 0x01	; 1
    5c78:	68 94       	set
    5c7a:	15 90       	lpm	r1, Z+
    5c7c:	15 91       	lpm	r17, Z+
    5c7e:	35 91       	lpm	r19, Z+
    5c80:	65 91       	lpm	r22, Z+
    5c82:	95 91       	lpm	r25, Z+
    5c84:	05 90       	lpm	r0, Z+
    5c86:	7f e2       	ldi	r23, 0x2F	; 47
    5c88:	73 95       	inc	r23
    5c8a:	e1 18       	sub	r14, r1
    5c8c:	f1 0a       	sbc	r15, r17
    5c8e:	43 0b       	sbc	r20, r19
    5c90:	56 0b       	sbc	r21, r22
    5c92:	c9 0b       	sbc	r28, r25
    5c94:	d0 09       	sbc	r29, r0
    5c96:	c0 f7       	brcc	.-16     	; 0x5c88 <__ftoa_engine+0x10a>
    5c98:	e1 0c       	add	r14, r1
    5c9a:	f1 1e       	adc	r15, r17
    5c9c:	43 1f       	adc	r20, r19
    5c9e:	56 1f       	adc	r21, r22
    5ca0:	c9 1f       	adc	r28, r25
    5ca2:	d0 1d       	adc	r29, r0
    5ca4:	7e f4       	brtc	.+30     	; 0x5cc4 <__ftoa_engine+0x146>
    5ca6:	70 33       	cpi	r23, 0x30	; 48
    5ca8:	11 f4       	brne	.+4      	; 0x5cae <__ftoa_engine+0x130>
    5caa:	8a 95       	dec	r24
    5cac:	e6 cf       	rjmp	.-52     	; 0x5c7a <__ftoa_engine+0xfc>
    5cae:	e8 94       	clt
    5cb0:	01 50       	subi	r16, 0x01	; 1
    5cb2:	30 f0       	brcs	.+12     	; 0x5cc0 <__ftoa_engine+0x142>
    5cb4:	08 0f       	add	r16, r24
    5cb6:	0a f4       	brpl	.+2      	; 0x5cba <__ftoa_engine+0x13c>
    5cb8:	00 27       	eor	r16, r16
    5cba:	02 17       	cp	r16, r18
    5cbc:	08 f4       	brcc	.+2      	; 0x5cc0 <__ftoa_engine+0x142>
    5cbe:	20 2f       	mov	r18, r16
    5cc0:	23 95       	inc	r18
    5cc2:	02 2f       	mov	r16, r18
    5cc4:	7a 33       	cpi	r23, 0x3A	; 58
    5cc6:	28 f0       	brcs	.+10     	; 0x5cd2 <__ftoa_engine+0x154>
    5cc8:	79 e3       	ldi	r23, 0x39	; 57
    5cca:	7d 93       	st	X+, r23
    5ccc:	2a 95       	dec	r18
    5cce:	e9 f7       	brne	.-6      	; 0x5cca <__ftoa_engine+0x14c>
    5cd0:	10 c0       	rjmp	.+32     	; 0x5cf2 <__ftoa_engine+0x174>
    5cd2:	7d 93       	st	X+, r23
    5cd4:	2a 95       	dec	r18
    5cd6:	89 f6       	brne	.-94     	; 0x5c7a <__ftoa_engine+0xfc>
    5cd8:	06 94       	lsr	r0
    5cda:	97 95       	ror	r25
    5cdc:	67 95       	ror	r22
    5cde:	37 95       	ror	r19
    5ce0:	17 95       	ror	r17
    5ce2:	17 94       	ror	r1
    5ce4:	e1 18       	sub	r14, r1
    5ce6:	f1 0a       	sbc	r15, r17
    5ce8:	43 0b       	sbc	r20, r19
    5cea:	56 0b       	sbc	r21, r22
    5cec:	c9 0b       	sbc	r28, r25
    5cee:	d0 09       	sbc	r29, r0
    5cf0:	98 f0       	brcs	.+38     	; 0x5d18 <__ftoa_engine+0x19a>
    5cf2:	23 95       	inc	r18
    5cf4:	7e 91       	ld	r23, -X
    5cf6:	73 95       	inc	r23
    5cf8:	7a 33       	cpi	r23, 0x3A	; 58
    5cfa:	08 f0       	brcs	.+2      	; 0x5cfe <__ftoa_engine+0x180>
    5cfc:	70 e3       	ldi	r23, 0x30	; 48
    5cfe:	7c 93       	st	X, r23
    5d00:	20 13       	cpse	r18, r16
    5d02:	b8 f7       	brcc	.-18     	; 0x5cf2 <__ftoa_engine+0x174>
    5d04:	7e 91       	ld	r23, -X
    5d06:	70 61       	ori	r23, 0x10	; 16
    5d08:	7d 93       	st	X+, r23
    5d0a:	30 f0       	brcs	.+12     	; 0x5d18 <__ftoa_engine+0x19a>
    5d0c:	83 95       	inc	r24
    5d0e:	71 e3       	ldi	r23, 0x31	; 49
    5d10:	7d 93       	st	X+, r23
    5d12:	70 e3       	ldi	r23, 0x30	; 48
    5d14:	2a 95       	dec	r18
    5d16:	e1 f7       	brne	.-8      	; 0x5d10 <__ftoa_engine+0x192>
    5d18:	11 24       	eor	r1, r1
    5d1a:	ef 90       	pop	r14
    5d1c:	ff 90       	pop	r15
    5d1e:	0f 91       	pop	r16
    5d20:	1f 91       	pop	r17
    5d22:	cf 91       	pop	r28
    5d24:	df 91       	pop	r29
    5d26:	99 27       	eor	r25, r25
    5d28:	87 fd       	sbrc	r24, 7
    5d2a:	90 95       	com	r25
    5d2c:	08 95       	ret

00005d2e <isspace>:
    5d2e:	91 11       	cpse	r25, r1
    5d30:	02 c1       	rjmp	.+516    	; 0x5f36 <__ctype_isfalse>
    5d32:	80 32       	cpi	r24, 0x20	; 32
    5d34:	19 f0       	breq	.+6      	; 0x5d3c <isspace+0xe>
    5d36:	89 50       	subi	r24, 0x09	; 9
    5d38:	85 50       	subi	r24, 0x05	; 5
    5d3a:	d0 f7       	brcc	.-12     	; 0x5d30 <isspace+0x2>
    5d3c:	08 95       	ret

00005d3e <strnlen_P>:
    5d3e:	fc 01       	movw	r30, r24
    5d40:	05 90       	lpm	r0, Z+
    5d42:	61 50       	subi	r22, 0x01	; 1
    5d44:	70 40       	sbci	r23, 0x00	; 0
    5d46:	01 10       	cpse	r0, r1
    5d48:	d8 f7       	brcc	.-10     	; 0x5d40 <strnlen_P+0x2>
    5d4a:	80 95       	com	r24
    5d4c:	90 95       	com	r25
    5d4e:	8e 0f       	add	r24, r30
    5d50:	9f 1f       	adc	r25, r31
    5d52:	08 95       	ret

00005d54 <memcmp>:
    5d54:	fb 01       	movw	r30, r22
    5d56:	dc 01       	movw	r26, r24
    5d58:	04 c0       	rjmp	.+8      	; 0x5d62 <memcmp+0xe>
    5d5a:	8d 91       	ld	r24, X+
    5d5c:	01 90       	ld	r0, Z+
    5d5e:	80 19       	sub	r24, r0
    5d60:	21 f4       	brne	.+8      	; 0x5d6a <memcmp+0x16>
    5d62:	41 50       	subi	r20, 0x01	; 1
    5d64:	50 40       	sbci	r21, 0x00	; 0
    5d66:	c8 f7       	brcc	.-14     	; 0x5d5a <memcmp+0x6>
    5d68:	88 1b       	sub	r24, r24
    5d6a:	99 0b       	sbc	r25, r25
    5d6c:	08 95       	ret

00005d6e <memcpy>:
    5d6e:	fb 01       	movw	r30, r22
    5d70:	dc 01       	movw	r26, r24
    5d72:	02 c0       	rjmp	.+4      	; 0x5d78 <memcpy+0xa>
    5d74:	01 90       	ld	r0, Z+
    5d76:	0d 92       	st	X+, r0
    5d78:	41 50       	subi	r20, 0x01	; 1
    5d7a:	50 40       	sbci	r21, 0x00	; 0
    5d7c:	d8 f7       	brcc	.-10     	; 0x5d74 <memcpy+0x6>
    5d7e:	08 95       	ret

00005d80 <memset>:
    5d80:	dc 01       	movw	r26, r24
    5d82:	01 c0       	rjmp	.+2      	; 0x5d86 <memset+0x6>
    5d84:	6d 93       	st	X+, r22
    5d86:	41 50       	subi	r20, 0x01	; 1
    5d88:	50 40       	sbci	r21, 0x00	; 0
    5d8a:	e0 f7       	brcc	.-8      	; 0x5d84 <memset+0x4>
    5d8c:	08 95       	ret

00005d8e <strnlen>:
    5d8e:	fc 01       	movw	r30, r24
    5d90:	61 50       	subi	r22, 0x01	; 1
    5d92:	70 40       	sbci	r23, 0x00	; 0
    5d94:	01 90       	ld	r0, Z+
    5d96:	01 10       	cpse	r0, r1
    5d98:	d8 f7       	brcc	.-10     	; 0x5d90 <strnlen+0x2>
    5d9a:	80 95       	com	r24
    5d9c:	90 95       	com	r25
    5d9e:	8e 0f       	add	r24, r30
    5da0:	9f 1f       	adc	r25, r31
    5da2:	08 95       	ret

00005da4 <fputc>:
    5da4:	0f 93       	push	r16
    5da6:	1f 93       	push	r17
    5da8:	cf 93       	push	r28
    5daa:	df 93       	push	r29
    5dac:	fb 01       	movw	r30, r22
    5dae:	23 81       	ldd	r18, Z+3	; 0x03
    5db0:	21 fd       	sbrc	r18, 1
    5db2:	03 c0       	rjmp	.+6      	; 0x5dba <fputc+0x16>
    5db4:	8f ef       	ldi	r24, 0xFF	; 255
    5db6:	9f ef       	ldi	r25, 0xFF	; 255
    5db8:	2c c0       	rjmp	.+88     	; 0x5e12 <fputc+0x6e>
    5dba:	22 ff       	sbrs	r18, 2
    5dbc:	16 c0       	rjmp	.+44     	; 0x5dea <fputc+0x46>
    5dbe:	46 81       	ldd	r20, Z+6	; 0x06
    5dc0:	57 81       	ldd	r21, Z+7	; 0x07
    5dc2:	24 81       	ldd	r18, Z+4	; 0x04
    5dc4:	35 81       	ldd	r19, Z+5	; 0x05
    5dc6:	42 17       	cp	r20, r18
    5dc8:	53 07       	cpc	r21, r19
    5dca:	44 f4       	brge	.+16     	; 0x5ddc <fputc+0x38>
    5dcc:	a0 81       	ld	r26, Z
    5dce:	b1 81       	ldd	r27, Z+1	; 0x01
    5dd0:	9d 01       	movw	r18, r26
    5dd2:	2f 5f       	subi	r18, 0xFF	; 255
    5dd4:	3f 4f       	sbci	r19, 0xFF	; 255
    5dd6:	31 83       	std	Z+1, r19	; 0x01
    5dd8:	20 83       	st	Z, r18
    5dda:	8c 93       	st	X, r24
    5ddc:	26 81       	ldd	r18, Z+6	; 0x06
    5dde:	37 81       	ldd	r19, Z+7	; 0x07
    5de0:	2f 5f       	subi	r18, 0xFF	; 255
    5de2:	3f 4f       	sbci	r19, 0xFF	; 255
    5de4:	37 83       	std	Z+7, r19	; 0x07
    5de6:	26 83       	std	Z+6, r18	; 0x06
    5de8:	14 c0       	rjmp	.+40     	; 0x5e12 <fputc+0x6e>
    5dea:	8b 01       	movw	r16, r22
    5dec:	ec 01       	movw	r28, r24
    5dee:	fb 01       	movw	r30, r22
    5df0:	00 84       	ldd	r0, Z+8	; 0x08
    5df2:	f1 85       	ldd	r31, Z+9	; 0x09
    5df4:	e0 2d       	mov	r30, r0
    5df6:	09 95       	icall
    5df8:	89 2b       	or	r24, r25
    5dfa:	e1 f6       	brne	.-72     	; 0x5db4 <fputc+0x10>
    5dfc:	d8 01       	movw	r26, r16
    5dfe:	16 96       	adiw	r26, 0x06	; 6
    5e00:	8d 91       	ld	r24, X+
    5e02:	9c 91       	ld	r25, X
    5e04:	17 97       	sbiw	r26, 0x07	; 7
    5e06:	01 96       	adiw	r24, 0x01	; 1
    5e08:	17 96       	adiw	r26, 0x07	; 7
    5e0a:	9c 93       	st	X, r25
    5e0c:	8e 93       	st	-X, r24
    5e0e:	16 97       	sbiw	r26, 0x06	; 6
    5e10:	ce 01       	movw	r24, r28
    5e12:	df 91       	pop	r29
    5e14:	cf 91       	pop	r28
    5e16:	1f 91       	pop	r17
    5e18:	0f 91       	pop	r16
    5e1a:	08 95       	ret

00005e1c <sprintf>:
    5e1c:	0f 93       	push	r16
    5e1e:	1f 93       	push	r17
    5e20:	cf 93       	push	r28
    5e22:	df 93       	push	r29
    5e24:	cd b7       	in	r28, 0x3d	; 61
    5e26:	de b7       	in	r29, 0x3e	; 62
    5e28:	2e 97       	sbiw	r28, 0x0e	; 14
    5e2a:	0f b6       	in	r0, 0x3f	; 63
    5e2c:	f8 94       	cli
    5e2e:	de bf       	out	0x3e, r29	; 62
    5e30:	0f be       	out	0x3f, r0	; 63
    5e32:	cd bf       	out	0x3d, r28	; 61
    5e34:	0d 89       	ldd	r16, Y+21	; 0x15
    5e36:	1e 89       	ldd	r17, Y+22	; 0x16
    5e38:	86 e0       	ldi	r24, 0x06	; 6
    5e3a:	8c 83       	std	Y+4, r24	; 0x04
    5e3c:	1a 83       	std	Y+2, r17	; 0x02
    5e3e:	09 83       	std	Y+1, r16	; 0x01
    5e40:	8f ef       	ldi	r24, 0xFF	; 255
    5e42:	9f e7       	ldi	r25, 0x7F	; 127
    5e44:	9e 83       	std	Y+6, r25	; 0x06
    5e46:	8d 83       	std	Y+5, r24	; 0x05
    5e48:	ae 01       	movw	r20, r28
    5e4a:	47 5e       	subi	r20, 0xE7	; 231
    5e4c:	5f 4f       	sbci	r21, 0xFF	; 255
    5e4e:	6f 89       	ldd	r22, Y+23	; 0x17
    5e50:	78 8d       	ldd	r23, Y+24	; 0x18
    5e52:	ce 01       	movw	r24, r28
    5e54:	01 96       	adiw	r24, 0x01	; 1
    5e56:	0e 94 d8 26 	call	0x4db0	; 0x4db0 <vfprintf>
    5e5a:	ef 81       	ldd	r30, Y+7	; 0x07
    5e5c:	f8 85       	ldd	r31, Y+8	; 0x08
    5e5e:	e0 0f       	add	r30, r16
    5e60:	f1 1f       	adc	r31, r17
    5e62:	10 82       	st	Z, r1
    5e64:	2e 96       	adiw	r28, 0x0e	; 14
    5e66:	0f b6       	in	r0, 0x3f	; 63
    5e68:	f8 94       	cli
    5e6a:	de bf       	out	0x3e, r29	; 62
    5e6c:	0f be       	out	0x3f, r0	; 63
    5e6e:	cd bf       	out	0x3d, r28	; 61
    5e70:	df 91       	pop	r29
    5e72:	cf 91       	pop	r28
    5e74:	1f 91       	pop	r17
    5e76:	0f 91       	pop	r16
    5e78:	08 95       	ret

00005e7a <__ultoa_invert>:
    5e7a:	fa 01       	movw	r30, r20
    5e7c:	aa 27       	eor	r26, r26
    5e7e:	28 30       	cpi	r18, 0x08	; 8
    5e80:	51 f1       	breq	.+84     	; 0x5ed6 <__ultoa_invert+0x5c>
    5e82:	20 31       	cpi	r18, 0x10	; 16
    5e84:	81 f1       	breq	.+96     	; 0x5ee6 <__ultoa_invert+0x6c>
    5e86:	e8 94       	clt
    5e88:	6f 93       	push	r22
    5e8a:	6e 7f       	andi	r22, 0xFE	; 254
    5e8c:	6e 5f       	subi	r22, 0xFE	; 254
    5e8e:	7f 4f       	sbci	r23, 0xFF	; 255
    5e90:	8f 4f       	sbci	r24, 0xFF	; 255
    5e92:	9f 4f       	sbci	r25, 0xFF	; 255
    5e94:	af 4f       	sbci	r26, 0xFF	; 255
    5e96:	b1 e0       	ldi	r27, 0x01	; 1
    5e98:	3e d0       	rcall	.+124    	; 0x5f16 <__ultoa_invert+0x9c>
    5e9a:	b4 e0       	ldi	r27, 0x04	; 4
    5e9c:	3c d0       	rcall	.+120    	; 0x5f16 <__ultoa_invert+0x9c>
    5e9e:	67 0f       	add	r22, r23
    5ea0:	78 1f       	adc	r23, r24
    5ea2:	89 1f       	adc	r24, r25
    5ea4:	9a 1f       	adc	r25, r26
    5ea6:	a1 1d       	adc	r26, r1
    5ea8:	68 0f       	add	r22, r24
    5eaa:	79 1f       	adc	r23, r25
    5eac:	8a 1f       	adc	r24, r26
    5eae:	91 1d       	adc	r25, r1
    5eb0:	a1 1d       	adc	r26, r1
    5eb2:	6a 0f       	add	r22, r26
    5eb4:	71 1d       	adc	r23, r1
    5eb6:	81 1d       	adc	r24, r1
    5eb8:	91 1d       	adc	r25, r1
    5eba:	a1 1d       	adc	r26, r1
    5ebc:	20 d0       	rcall	.+64     	; 0x5efe <__ultoa_invert+0x84>
    5ebe:	09 f4       	brne	.+2      	; 0x5ec2 <__ultoa_invert+0x48>
    5ec0:	68 94       	set
    5ec2:	3f 91       	pop	r19
    5ec4:	2a e0       	ldi	r18, 0x0A	; 10
    5ec6:	26 9f       	mul	r18, r22
    5ec8:	11 24       	eor	r1, r1
    5eca:	30 19       	sub	r19, r0
    5ecc:	30 5d       	subi	r19, 0xD0	; 208
    5ece:	31 93       	st	Z+, r19
    5ed0:	de f6       	brtc	.-74     	; 0x5e88 <__ultoa_invert+0xe>
    5ed2:	cf 01       	movw	r24, r30
    5ed4:	08 95       	ret
    5ed6:	46 2f       	mov	r20, r22
    5ed8:	47 70       	andi	r20, 0x07	; 7
    5eda:	40 5d       	subi	r20, 0xD0	; 208
    5edc:	41 93       	st	Z+, r20
    5ede:	b3 e0       	ldi	r27, 0x03	; 3
    5ee0:	0f d0       	rcall	.+30     	; 0x5f00 <__ultoa_invert+0x86>
    5ee2:	c9 f7       	brne	.-14     	; 0x5ed6 <__ultoa_invert+0x5c>
    5ee4:	f6 cf       	rjmp	.-20     	; 0x5ed2 <__ultoa_invert+0x58>
    5ee6:	46 2f       	mov	r20, r22
    5ee8:	4f 70       	andi	r20, 0x0F	; 15
    5eea:	40 5d       	subi	r20, 0xD0	; 208
    5eec:	4a 33       	cpi	r20, 0x3A	; 58
    5eee:	18 f0       	brcs	.+6      	; 0x5ef6 <__ultoa_invert+0x7c>
    5ef0:	49 5d       	subi	r20, 0xD9	; 217
    5ef2:	31 fd       	sbrc	r19, 1
    5ef4:	40 52       	subi	r20, 0x20	; 32
    5ef6:	41 93       	st	Z+, r20
    5ef8:	02 d0       	rcall	.+4      	; 0x5efe <__ultoa_invert+0x84>
    5efa:	a9 f7       	brne	.-22     	; 0x5ee6 <__ultoa_invert+0x6c>
    5efc:	ea cf       	rjmp	.-44     	; 0x5ed2 <__ultoa_invert+0x58>
    5efe:	b4 e0       	ldi	r27, 0x04	; 4
    5f00:	a6 95       	lsr	r26
    5f02:	97 95       	ror	r25
    5f04:	87 95       	ror	r24
    5f06:	77 95       	ror	r23
    5f08:	67 95       	ror	r22
    5f0a:	ba 95       	dec	r27
    5f0c:	c9 f7       	brne	.-14     	; 0x5f00 <__ultoa_invert+0x86>
    5f0e:	00 97       	sbiw	r24, 0x00	; 0
    5f10:	61 05       	cpc	r22, r1
    5f12:	71 05       	cpc	r23, r1
    5f14:	08 95       	ret
    5f16:	9b 01       	movw	r18, r22
    5f18:	ac 01       	movw	r20, r24
    5f1a:	0a 2e       	mov	r0, r26
    5f1c:	06 94       	lsr	r0
    5f1e:	57 95       	ror	r21
    5f20:	47 95       	ror	r20
    5f22:	37 95       	ror	r19
    5f24:	27 95       	ror	r18
    5f26:	ba 95       	dec	r27
    5f28:	c9 f7       	brne	.-14     	; 0x5f1c <__ultoa_invert+0xa2>
    5f2a:	62 0f       	add	r22, r18
    5f2c:	73 1f       	adc	r23, r19
    5f2e:	84 1f       	adc	r24, r20
    5f30:	95 1f       	adc	r25, r21
    5f32:	a0 1d       	adc	r26, r0
    5f34:	08 95       	ret

00005f36 <__ctype_isfalse>:
    5f36:	99 27       	eor	r25, r25
    5f38:	88 27       	eor	r24, r24

00005f3a <__ctype_istrue>:
    5f3a:	08 95       	ret

00005f3c <__do_global_dtors>:
    5f3c:	11 e0       	ldi	r17, 0x01	; 1
    5f3e:	c5 e2       	ldi	r28, 0x25	; 37
    5f40:	d1 e0       	ldi	r29, 0x01	; 1
    5f42:	03 c0       	rjmp	.+6      	; 0x5f4a <__do_global_dtors+0xe>
    5f44:	fe 01       	movw	r30, r28
    5f46:	ee da       	rcall	.-2596   	; 0x5524 <__tablejump2__>
    5f48:	21 96       	adiw	r28, 0x01	; 1
    5f4a:	ca 32       	cpi	r28, 0x2A	; 42
    5f4c:	d1 07       	cpc	r29, r17
    5f4e:	d1 f7       	brne	.-12     	; 0x5f44 <__do_global_dtors+0x8>
    5f50:	f8 94       	cli

00005f52 <__stop_program>:
    5f52:	ff cf       	rjmp	.-2      	; 0x5f52 <__stop_program>
