
RdtOneBLE.elf:     file format elf32-avr

Sections:
Idx Name          Size      VMA       LMA       File off  Algn
  0 .data         00000124  00800100  00005578  0000560c  2**0
                  CONTENTS, ALLOC, LOAD, DATA
  1 .text         00005578  00000000  00000000  00000094  2**1
                  CONTENTS, ALLOC, LOAD, READONLY, CODE
  2 .bss          0000038b  00800224  00800224  00005730  2**0
                  ALLOC
  3 .comment      0000005c  00000000  00000000  00005730  2**0
                  CONTENTS, READONLY
  4 .note.gnu.avr.deviceinfo 00000040  00000000  00000000  0000578c  2**2
                  CONTENTS, READONLY
  5 .debug_aranges 00000e08  00000000  00000000  000057cc  2**0
                  CONTENTS, READONLY, DEBUGGING
  6 .debug_info   00015ce0  00000000  00000000  000065d4  2**0
                  CONTENTS, READONLY, DEBUGGING
  7 .debug_abbrev 00004919  00000000  00000000  0001c2b4  2**0
                  CONTENTS, READONLY, DEBUGGING
  8 .debug_line   0000579e  00000000  00000000  00020bcd  2**0
                  CONTENTS, READONLY, DEBUGGING
  9 .debug_frame  00002cf8  00000000  00000000  0002636c  2**2
                  CONTENTS, READONLY, DEBUGGING
 10 .debug_str    0000765c  00000000  00000000  00029064  2**0
                  CONTENTS, READONLY, DEBUGGING
 11 .debug_loc    0000e0b4  00000000  00000000  000306c0  2**0
                  CONTENTS, READONLY, DEBUGGING
 12 .debug_ranges 00000ef8  00000000  00000000  0003e774  2**0
                  CONTENTS, READONLY, DEBUGGING

Disassembly of section .text:

00000000 <__vectors>:
       0:	28 c1       	rjmp	.+592    	; 0x252 <__dtors_end>
       2:	00 00       	nop
       4:	0c 94 73 1f 	jmp	0x3ee6	; 0x3ee6 <__vector_1>
       8:	4d c1       	rjmp	.+666    	; 0x2a4 <__bad_interrupt>
       a:	00 00       	nop
       c:	4b c1       	rjmp	.+662    	; 0x2a4 <__bad_interrupt>
       e:	00 00       	nop
      10:	49 c1       	rjmp	.+658    	; 0x2a4 <__bad_interrupt>
      12:	00 00       	nop
      14:	47 c1       	rjmp	.+654    	; 0x2a4 <__bad_interrupt>
      16:	00 00       	nop
      18:	45 c1       	rjmp	.+650    	; 0x2a4 <__bad_interrupt>
      1a:	00 00       	nop
      1c:	43 c1       	rjmp	.+646    	; 0x2a4 <__bad_interrupt>
      1e:	00 00       	nop
      20:	41 c1       	rjmp	.+642    	; 0x2a4 <__bad_interrupt>
      22:	00 00       	nop
      24:	3f c1       	rjmp	.+638    	; 0x2a4 <__bad_interrupt>
      26:	00 00       	nop
      28:	3d c1       	rjmp	.+634    	; 0x2a4 <__bad_interrupt>
      2a:	00 00       	nop
      2c:	3b c1       	rjmp	.+630    	; 0x2a4 <__bad_interrupt>
      2e:	00 00       	nop
      30:	39 c1       	rjmp	.+626    	; 0x2a4 <__bad_interrupt>
      32:	00 00       	nop
      34:	37 c1       	rjmp	.+622    	; 0x2a4 <__bad_interrupt>
      36:	00 00       	nop
      38:	35 c1       	rjmp	.+618    	; 0x2a4 <__bad_interrupt>
      3a:	00 00       	nop
      3c:	0c 94 e9 1f 	jmp	0x3fd2	; 0x3fd2 <__vector_15>
      40:	31 c1       	rjmp	.+610    	; 0x2a4 <__bad_interrupt>
      42:	00 00       	nop
      44:	2f c1       	rjmp	.+606    	; 0x2a4 <__bad_interrupt>
      46:	00 00       	nop
      48:	0c 94 aa 20 	jmp	0x4154	; 0x4154 <__vector_18>
      4c:	0c 94 fb 20 	jmp	0x41f6	; 0x41f6 <__vector_19>
      50:	29 c1       	rjmp	.+594    	; 0x2a4 <__bad_interrupt>
      52:	00 00       	nop
      54:	0c 94 29 1f 	jmp	0x3e52	; 0x3e52 <__vector_21>
      58:	25 c1       	rjmp	.+586    	; 0x2a4 <__bad_interrupt>
      5a:	00 00       	nop
      5c:	23 c1       	rjmp	.+582    	; 0x2a4 <__bad_interrupt>
      5e:	00 00       	nop
      60:	21 c1       	rjmp	.+578    	; 0x2a4 <__bad_interrupt>
      62:	00 00       	nop
      64:	1f c1       	rjmp	.+574    	; 0x2a4 <__bad_interrupt>
      66:	00 00       	nop
      68:	1d c1       	rjmp	.+570    	; 0x2a4 <__bad_interrupt>
      6a:	00 00       	nop
      6c:	1b c1       	rjmp	.+566    	; 0x2a4 <__bad_interrupt>
      6e:	00 00       	nop
      70:	19 c1       	rjmp	.+562    	; 0x2a4 <__bad_interrupt>
      72:	00 00       	nop
      74:	17 c1       	rjmp	.+558    	; 0x2a4 <__bad_interrupt>
      76:	00 00       	nop
      78:	0c 94 d8 1d 	jmp	0x3bb0	; 0x3bb0 <__vector_30>
      7c:	0c 94 30 1e 	jmp	0x3c60	; 0x3c60 <__vector_31>
      80:	11 c1       	rjmp	.+546    	; 0x2a4 <__bad_interrupt>
      82:	00 00       	nop
      84:	0f c1       	rjmp	.+542    	; 0x2a4 <__bad_interrupt>
      86:	00 00       	nop
      88:	0d c1       	rjmp	.+538    	; 0x2a4 <__bad_interrupt>
      8a:	00 00       	nop
      8c:	38 15       	cp	r19, r8
      8e:	5e 15       	cp	r21, r14
      90:	3c 15       	cp	r19, r12
      92:	5e 15       	cp	r21, r14
      94:	40 15       	cp	r20, r0
      96:	5e 15       	cp	r21, r14
      98:	44 15       	cp	r20, r4
      9a:	5e 15       	cp	r21, r14
      9c:	4a 15       	cp	r20, r10
      9e:	5e 15       	cp	r21, r14
      a0:	4a 15       	cp	r20, r10
      a2:	5e 15       	cp	r21, r14
      a4:	5e 15       	cp	r21, r14
      a6:	5e 15       	cp	r21, r14
      a8:	47 15       	cp	r20, r7
      aa:	5e 15       	cp	r21, r14
      ac:	4f 15       	cp	r20, r15
      ae:	5e 15       	cp	r21, r14
      b0:	5e 15       	cp	r21, r14
      b2:	5e 15       	cp	r21, r14
      b4:	54 15       	cp	r21, r4
      b6:	5e 15       	cp	r21, r14
      b8:	57 15       	cp	r21, r7
      ba:	5e 15       	cp	r21, r14
      bc:	5e 15       	cp	r21, r14
      be:	5e 15       	cp	r21, r14
      c0:	5e 15       	cp	r21, r14
      c2:	5e 15       	cp	r21, r14
      c4:	5a 15       	cp	r21, r10
      c6:	5e 15       	cp	r21, r14
      c8:	5e 15       	cp	r21, r14
      ca:	5e 15       	cp	r21, r14
      cc:	5e 15       	cp	r21, r14
      ce:	5e 15       	cp	r21, r14
      d0:	5e 15       	cp	r21, r14
      d2:	5e 15       	cp	r21, r14
      d4:	5e 15       	cp	r21, r14
      d6:	5e 15       	cp	r21, r14
      d8:	5e 15       	cp	r21, r14
      da:	5e 15       	cp	r21, r14
      dc:	5e 15       	cp	r21, r14
      de:	5e 15       	cp	r21, r14
      e0:	5e 15       	cp	r21, r14
      e2:	5e 15       	cp	r21, r14
      e4:	5e 15       	cp	r21, r14
      e6:	5e 15       	cp	r21, r14
      e8:	5e 15       	cp	r21, r14
      ea:	5e 15       	cp	r21, r14
      ec:	5e 15       	cp	r21, r14
      ee:	5e 15       	cp	r21, r14
      f0:	5e 15       	cp	r21, r14
      f2:	5e 15       	cp	r21, r14
      f4:	5e 15       	cp	r21, r14
      f6:	5e 15       	cp	r21, r14
      f8:	5e 15       	cp	r21, r14
      fa:	5e 15       	cp	r21, r14
      fc:	5e 15       	cp	r21, r14
      fe:	5e 15       	cp	r21, r14
     100:	5e 15       	cp	r21, r14
     102:	5e 15       	cp	r21, r14
     104:	5e 15       	cp	r21, r14
     106:	5e 15       	cp	r21, r14
     108:	5e 15       	cp	r21, r14
     10a:	5e 15       	cp	r21, r14
     10c:	5e 15       	cp	r21, r14
     10e:	5e 15       	cp	r21, r14
     110:	5e 15       	cp	r21, r14
     112:	5e 15       	cp	r21, r14
     114:	5e 15       	cp	r21, r14
     116:	5e 15       	cp	r21, r14
     118:	5e 15       	cp	r21, r14
     11a:	5e 15       	cp	r21, r14
     11c:	5e 15       	cp	r21, r14
     11e:	5e 15       	cp	r21, r14
     120:	5e 15       	cp	r21, r14
     122:	5e 15       	cp	r21, r14
     124:	5e 15       	cp	r21, r14
     126:	5e 15       	cp	r21, r14
     128:	5e 15       	cp	r21, r14
     12a:	5e 15       	cp	r21, r14
     12c:	4f 15       	cp	r20, r15

0000012e <__trampolines_end>:
     12e:	6e 61       	ori	r22, 0x1E	; 30
     130:	6e 00       	.word	0x006e	; ????

00000132 <__c.2332>:
     132:	69 6e 66 00 00 40 7a 10 f3 5a 00 a0 72 4e 18 09     inf..@z..Z..rN..
     142:	00 10 a5 d4 e8 00 00 e8 76 48 17 00 00 e4 0b 54     ........vH.....T
     152:	02 00 00 ca 9a 3b 00 00 00 e1 f5 05 00 00 80 96     .....;..........
     162:	98 00 00 00 40 42 0f 00 00 00 a0 86 01 00 00 00     ....@B..........
     172:	10 27 00 00 00 00 e8 03 00 00 00 00 64 00 00 00     .'..........d...
     182:	00 00 0a 00 00 00 00 00 01 00 00 00 00 00 2c 76     ..............,v
     192:	d8 88 dc 67 4f 08 23 df c1 df ae 59 e1 b1 b7 96     ...gO.#....Y....
     1a2:	e5 e3 e4 53 c6 3a e6 51 99 76 96 e8 e6 c2 84 26     ...S.:.Q.v.....&
     1b2:	eb 89 8c 9b 62 ed 40 7c 6f fc ef bc 9c 9f 40 f2     ....b.@|o.....@.
     1c2:	ba a5 6f a5 f4 90 05 5a 2a f7 5c 93 6b 6c f9 67     ..o....Z*.\.kl.g
     1d2:	6d c1 1b fc e0 e4 0d 47 fe f5 20 e6 b5 00 d0 ed     m......G.. .....
     1e2:	90 2e 03 00 94 35 77 05 00 80 84 1e 08 00 00 20     .....5w........ 
     1f2:	4e 0a 00 00 00 c8 0c 33 33 33 33 0f 98 6e 12 83     N......3333..n..
     202:	11 41 ef 8d 21 14 89 3b e6 55 16 cf fe e6 db 18     .A..!..;.U......
     212:	d1 84 4b 38 1b f7 7c 1d 90 1d a4 bb e4 24 20 32     ..K8..|......$ 2
     222:	84 72 5e 22 81 00 c9 f1 24 ec a1 e5 3d 27           .r^"....$...='

00000230 <__ctors_start>:
     230:	96 01       	movw	r18, r12
     232:	2b 05       	cpc	r18, r11
     234:	6b 15       	cp	r22, r11
     236:	d1 16       	cp	r13, r17
     238:	2a 18       	sub	r2, r10
     23a:	1b 1c       	adc	r1, r11
     23c:	8e 1c       	adc	r8, r14
     23e:	71 1d       	adc	r23, r1
     240:	fb 1e       	adc	r15, r27
     242:	52 1f       	adc	r21, r18
     244:	12 20       	and	r1, r2
     246:	dd 21       	and	r29, r13

00000248 <__ctors_end>:
     248:	a2 01       	movw	r20, r4
     24a:	2f 05       	cpc	r18, r15
     24c:	70 15       	cp	r23, r0
     24e:	5f 18       	sub	r5, r15
     250:	1d 20       	and	r1, r13

00000252 <__dtors_end>:
     252:	11 24       	eor	r1, r1
     254:	1f be       	out	0x3f, r1	; 63
     256:	cf ef       	ldi	r28, 0xFF	; 255
     258:	d0 e1       	ldi	r29, 0x10	; 16
     25a:	de bf       	out	0x3e, r29	; 62
     25c:	cd bf       	out	0x3d, r28	; 61

0000025e <__do_copy_data>:
     25e:	12 e0       	ldi	r17, 0x02	; 2
     260:	a0 e0       	ldi	r26, 0x00	; 0
     262:	b1 e0       	ldi	r27, 0x01	; 1
     264:	e8 e7       	ldi	r30, 0x78	; 120
     266:	f5 e5       	ldi	r31, 0x55	; 85
     268:	00 e0       	ldi	r16, 0x00	; 0
     26a:	0b bf       	out	0x3b, r16	; 59
     26c:	02 c0       	rjmp	.+4      	; 0x272 <__do_copy_data+0x14>
     26e:	07 90       	elpm	r0, Z+
     270:	0d 92       	st	X+, r0
     272:	a4 32       	cpi	r26, 0x24	; 36
     274:	b1 07       	cpc	r27, r17
     276:	d9 f7       	brne	.-10     	; 0x26e <__do_copy_data+0x10>

00000278 <__do_clear_bss>:
     278:	25 e0       	ldi	r18, 0x05	; 5
     27a:	a4 e2       	ldi	r26, 0x24	; 36
     27c:	b2 e0       	ldi	r27, 0x02	; 2
     27e:	01 c0       	rjmp	.+2      	; 0x282 <.do_clear_bss_start>

00000280 <.do_clear_bss_loop>:
     280:	1d 92       	st	X+, r1

00000282 <.do_clear_bss_start>:
     282:	af 3a       	cpi	r26, 0xAF	; 175
     284:	b2 07       	cpc	r27, r18
     286:	e1 f7       	brne	.-8      	; 0x280 <.do_clear_bss_loop>

00000288 <__do_global_ctors>:
     288:	11 e0       	ldi	r17, 0x01	; 1
     28a:	c4 e2       	ldi	r28, 0x24	; 36
     28c:	d1 e0       	ldi	r29, 0x01	; 1
     28e:	04 c0       	rjmp	.+8      	; 0x298 <__do_global_ctors+0x10>
     290:	21 97       	sbiw	r28, 0x01	; 1
     292:	fe 01       	movw	r30, r28
     294:	0e 94 95 25 	call	0x4b2a	; 0x4b2a <__tablejump2__>
     298:	c8 31       	cpi	r28, 0x18	; 24
     29a:	d1 07       	cpc	r29, r17
     29c:	c9 f7       	brne	.-14     	; 0x290 <__do_global_ctors+0x8>
     29e:	2f d0       	rcall	.+94     	; 0x2fe <main>
     2a0:	0c 94 b0 2a 	jmp	0x5560	; 0x5560 <__do_global_dtors>

000002a4 <__bad_interrupt>:
     2a4:	ad ce       	rjmp	.-678    	; 0x0 <__vectors>

000002a6 <_ZN22BLETypedCharacteristicIhED1Ev>:
#define BLETYPEDCHARACTERISTIC_H_

#include <string.h>
#include "profile/BLECharacteristic.h"

template<typename T> class BLETypedCharacteristic : public BLECharacteristic
     2a6:	24 e1       	ldi	r18, 0x14	; 20
     2a8:	31 e0       	ldi	r19, 0x01	; 1
     2aa:	fc 01       	movw	r30, r24
     2ac:	31 83       	std	Z+1, r19	; 0x01
     2ae:	20 83       	st	Z, r18
     2b0:	0c c5       	rjmp	.+2584   	; 0xcca <_ZN17BLECharacteristicD1Ev>
     2b2:	08 95       	ret

000002b4 <_ZN22BLETypedCharacteristicIhED0Ev>:
     2b4:	cf 93       	push	r28
     2b6:	df 93       	push	r29
     2b8:	ec 01       	movw	r28, r24
     2ba:	84 e1       	ldi	r24, 0x14	; 20
     2bc:	91 e0       	ldi	r25, 0x01	; 1
     2be:	99 83       	std	Y+1, r25	; 0x01
     2c0:	88 83       	st	Y, r24
     2c2:	ce 01       	movw	r24, r28
     2c4:	02 d5       	rcall	.+2564   	; 0xcca <_ZN17BLECharacteristicD1Ev>
     2c6:	ce 01       	movw	r24, r28
     2c8:	0e 94 e6 21 	call	0x43cc	; 0x43cc <_ZdlPv>
     2cc:	df 91       	pop	r29
     2ce:	cf 91       	pop	r28
     2d0:	08 95       	ret

000002d2 <_ZN29BLEUnsignedCharCharacteristicD1Ev>:
     2d2:	24 e1       	ldi	r18, 0x14	; 20
     2d4:	31 e0       	ldi	r19, 0x01	; 1
     2d6:	fc 01       	movw	r30, r24
     2d8:	31 83       	std	Z+1, r19	; 0x01
     2da:	20 83       	st	Z, r18
     2dc:	f6 c4       	rjmp	.+2540   	; 0xcca <_ZN17BLECharacteristicD1Ev>
     2de:	08 95       	ret

000002e0 <_ZN29BLEUnsignedCharCharacteristicD0Ev>:
{
public:
    BLECharCharacteristic(const char* uuid, unsigned char properties);
};

class BLEUnsignedCharCharacteristic : public BLETypedCharacteristic<unsigned char>
     2e0:	cf 93       	push	r28
     2e2:	df 93       	push	r29
     2e4:	ec 01       	movw	r28, r24
     2e6:	84 e1       	ldi	r24, 0x14	; 20
     2e8:	91 e0       	ldi	r25, 0x01	; 1
     2ea:	99 83       	std	Y+1, r25	; 0x01
     2ec:	88 83       	st	Y, r24
     2ee:	ce 01       	movw	r24, r28
     2f0:	ec d4       	rcall	.+2520   	; 0xcca <_ZN17BLECharacteristicD1Ev>
     2f2:	ce 01       	movw	r24, r28
     2f4:	0e 94 e6 21 	call	0x43cc	; 0x43cc <_ZdlPv>
     2f8:	df 91       	pop	r29
     2fa:	cf 91       	pop	r28
     2fc:	08 95       	ret

000002fe <main>:
BLEService g_xService("180F");
BLEUnsignedCharCharacteristic g_xLevelChar("2A19", BPP_READ | BPP_NOTIPY);

int main(void)
{
    g_console.begin(115200UL);
     2fe:	40 e0       	ldi	r20, 0x00	; 0
     300:	52 ec       	ldi	r21, 0xC2	; 194
     302:	61 e0       	ldi	r22, 0x01	; 1
     304:	70 e0       	ldi	r23, 0x00	; 0
     306:	84 e8       	ldi	r24, 0x84	; 132
     308:	94 e0       	ldi	r25, 0x04	; 4
     30a:	0e 94 7f 1d 	call	0x3afe	; 0x3afe <_ZN8XConsole5beginEm>
    g_uart.begin(115200UL);
     30e:	40 e0       	ldi	r20, 0x00	; 0
     310:	52 ec       	ldi	r21, 0xC2	; 194
     312:	61 e0       	ldi	r22, 0x01	; 1
     314:	70 e0       	ldi	r23, 0x00	; 0
     316:	82 e2       	ldi	r24, 0x22	; 34
     318:	95 e0       	ldi	r25, 0x05	; 5
     31a:	0e 94 24 20 	call	0x4048	; 0x4048 <_ZN5XUart5beginEm>
    g_timer0.begin(0);
     31e:	60 e0       	ldi	r22, 0x00	; 0
     320:	70 e0       	ldi	r23, 0x00	; 0
     322:	88 e1       	ldi	r24, 0x18	; 24
     324:	95 e0       	ldi	r25, 0x05	; 5
     326:	0e 94 9c 1f 	call	0x3f38	; 0x3f38 <_ZN6XTimer5beginEi>
     32a:	ff cf       	rjmp	.-2      	; 0x32a <main+0x2c>

0000032c <_GLOBAL__sub_I_g_xService>:
#include "profile/BLEProperty.h"
#include "profile/BLETypedCharacteristics.h"
#include "profile/BLEService.h"
#include "peripheral/LocalDevice.h"

BLEService g_xService("180F");
     32c:	66 e0       	ldi	r22, 0x06	; 6
     32e:	71 e0       	ldi	r23, 0x01	; 1
     330:	88 e2       	ldi	r24, 0x28	; 40
     332:	92 e0       	ldi	r25, 0x02	; 2
     334:	4e d6       	rcall	.+3228   	; 0xfd2 <_ZN10BLEServiceC1EPKc>
BLEUnsignedCharCharacteristic g_xLevelChar("2A19", BPP_READ | BPP_NOTIPY);
     336:	42 e1       	ldi	r20, 0x12	; 18
     338:	6b e0       	ldi	r22, 0x0B	; 11
     33a:	71 e0       	ldi	r23, 0x01	; 1
     33c:	84 e2       	ldi	r24, 0x24	; 36
     33e:	92 e0       	ldi	r25, 0x02	; 2
     340:	8a c6       	rjmp	.+3348   	; 0x1056 <_ZN29BLEUnsignedCharCharacteristicC1EPKch>
     342:	08 95       	ret

00000344 <_GLOBAL__sub_D_g_xService>:
     344:	84 e1       	ldi	r24, 0x14	; 20
     346:	91 e0       	ldi	r25, 0x01	; 1
     348:	90 93 25 02 	sts	0x0225, r25	; 0x800225 <__data_end+0x1>
     34c:	80 93 24 02 	sts	0x0224, r24	; 0x800224 <__data_end>
     350:	84 e2       	ldi	r24, 0x24	; 36
     352:	92 e0       	ldi	r25, 0x02	; 2
     354:	ba d4       	rcall	.+2420   	; 0xcca <_ZN17BLECharacteristicD1Ev>
#include "profile/BLEProperty.h"
#include "profile/BLETypedCharacteristics.h"
#include "profile/BLEService.h"
#include "peripheral/LocalDevice.h"

BLEService g_xService("180F");
     356:	88 e2       	ldi	r24, 0x28	; 40
     358:	92 e0       	ldi	r25, 0x02	; 2
     35a:	13 c6       	rjmp	.+3110   	; 0xf82 <_ZN10BLEServiceD1Ev>
     35c:	08 95       	ret

0000035e <_ZN19LocalCharacteristic4typeEv>:
    LocalDescriptor* localDescriptor = descriptor.local();
    if (localDescriptor) {
        localDescriptor->retain();
        m_descriptors.add(localDescriptor);
    }
}
     35e:	83 e0       	ldi	r24, 0x03	; 3
     360:	98 e2       	ldi	r25, 0x28	; 40
     362:	08 95       	ret

00000364 <_ZN19LocalCharacteristic10propertiesEv>:
     364:	fc 01       	movw	r30, r24
     366:	87 89       	ldd	r24, Z+23	; 0x17
     368:	08 95       	ret

0000036a <_ZN19LocalCharacteristic9valueSizeEv>:
     36a:	fc 01       	movw	r30, r24
     36c:	80 8d       	ldd	r24, Z+24	; 0x18
     36e:	91 8d       	ldd	r25, Z+25	; 0x19
     370:	08 95       	ret

00000372 <_ZN19LocalCharacteristic5valueEv>:
     372:	fc 01       	movw	r30, r24
     374:	82 a1       	ldd	r24, Z+34	; 0x22
     376:	93 a1       	ldd	r25, Z+35	; 0x23
     378:	08 95       	ret

0000037a <_ZN19LocalCharacteristic11valueLengthEv>:
     37a:	fc 01       	movw	r30, r24
     37c:	82 8d       	ldd	r24, Z+26	; 0x1a
     37e:	90 e0       	ldi	r25, 0x00	; 0
     380:	08 95       	ret

00000382 <_ZN19LocalCharacteristic10writeValueEPKhi>:
     382:	ef 92       	push	r14
     384:	ff 92       	push	r15
     386:	0f 93       	push	r16
     388:	1f 93       	push	r17
     38a:	cf 93       	push	r28
     38c:	df 93       	push	r29
     38e:	ec 01       	movw	r28, r24
     390:	7b 01       	movw	r14, r22
     392:	8a 01       	movw	r16, r20
     394:	48 8d       	ldd	r20, Y+24	; 0x18
     396:	59 8d       	ldd	r21, Y+25	; 0x19
     398:	04 17       	cp	r16, r20
     39a:	15 07       	cpc	r17, r21
     39c:	0c f4       	brge	.+2      	; 0x3a0 <_ZN19LocalCharacteristic10writeValueEPKhi+0x1e>
     39e:	40 2f       	mov	r20, r16
     3a0:	4a 8f       	std	Y+26, r20	; 0x1a
     3a2:	50 e0       	ldi	r21, 0x00	; 0
     3a4:	b7 01       	movw	r22, r14
     3a6:	8a a1       	ldd	r24, Y+34	; 0x22
     3a8:	9b a1       	ldd	r25, Y+35	; 0x23
     3aa:	0e 94 a1 29 	call	0x5342	; 0x5342 <memcpy>
     3ae:	8b 8d       	ldd	r24, Y+27	; 0x1b
     3b0:	88 23       	and	r24, r24
     3b2:	11 f0       	breq	.+4      	; 0x3b8 <_ZN19LocalCharacteristic10writeValueEPKhi+0x36>
     3b4:	88 8d       	ldd	r24, Y+24	; 0x18
     3b6:	8a 8f       	std	Y+26, r24	; 0x1a
     3b8:	8f 89       	ldd	r24, Y+23	; 0x17
     3ba:	85 ff       	sbrs	r24, 5
     3bc:	11 c0       	rjmp	.+34     	; 0x3e0 <_ZN19LocalCharacteristic10writeValueEPKhi+0x5e>
     3be:	98 a1       	ldd	r25, Y+32	; 0x20
     3c0:	91 ff       	sbrs	r25, 1
     3c2:	0e c0       	rjmp	.+28     	; 0x3e0 <_ZN19LocalCharacteristic10writeValueEPKhi+0x5e>
     3c4:	2a 8d       	ldd	r18, Y+26	; 0x1a
     3c6:	30 e0       	ldi	r19, 0x00	; 0
     3c8:	4a a1       	ldd	r20, Y+34	; 0x22
     3ca:	5b a1       	ldd	r21, Y+35	; 0x23
     3cc:	6c 8d       	ldd	r22, Y+28	; 0x1c
     3ce:	7d 8d       	ldd	r23, Y+29	; 0x1d
     3d0:	6f 5f       	subi	r22, 0xFF	; 255
     3d2:	7f 4f       	sbci	r23, 0xFF	; 255
     3d4:	8a e5       	ldi	r24, 0x5A	; 90
     3d6:	92 e0       	ldi	r25, 0x02	; 2
     3d8:	0e 94 a1 0a 	call	0x1542	; 0x1542 <_ZN8ATTClass9handleIndEjPKhi>
     3dc:	90 e0       	ldi	r25, 0x00	; 0
     3de:	3c c0       	rjmp	.+120    	; 0x458 <__LOCK_REGION_LENGTH__+0x58>
     3e0:	84 ff       	sbrs	r24, 4
     3e2:	11 c0       	rjmp	.+34     	; 0x406 <__LOCK_REGION_LENGTH__+0x6>
     3e4:	88 a1       	ldd	r24, Y+32	; 0x20
     3e6:	80 ff       	sbrs	r24, 0
     3e8:	0e c0       	rjmp	.+28     	; 0x406 <__LOCK_REGION_LENGTH__+0x6>
     3ea:	2a 8d       	ldd	r18, Y+26	; 0x1a
     3ec:	30 e0       	ldi	r19, 0x00	; 0
     3ee:	4a a1       	ldd	r20, Y+34	; 0x22
     3f0:	5b a1       	ldd	r21, Y+35	; 0x23
     3f2:	6c 8d       	ldd	r22, Y+28	; 0x1c
     3f4:	7d 8d       	ldd	r23, Y+29	; 0x1d
     3f6:	6f 5f       	subi	r22, 0xFF	; 255
     3f8:	7f 4f       	sbci	r23, 0xFF	; 255
     3fa:	8a e5       	ldi	r24, 0x5A	; 90
     3fc:	92 e0       	ldi	r25, 0x02	; 2
     3fe:	0e 94 39 0a 	call	0x1472	; 0x1472 <_ZN8ATTClass12handleNotifyEjPKhi>
     402:	90 e0       	ldi	r25, 0x00	; 0
     404:	29 c0       	rjmp	.+82     	; 0x458 <__LOCK_REGION_LENGTH__+0x58>
     406:	8e 8d       	ldd	r24, Y+30	; 0x1e
     408:	88 23       	and	r24, r24
     40a:	f1 f0       	breq	.+60     	; 0x448 <__LOCK_REGION_LENGTH__+0x48>
     40c:	be 01       	movw	r22, r28
     40e:	87 e8       	ldi	r24, 0x87	; 135
     410:	92 e0       	ldi	r25, 0x02	; 2
     412:	0e 94 67 17 	call	0x2ece	; 0x2ece <_ZN9GATTClass28serviceUuidForCharacteristicEP19LocalCharacteristic>
     416:	98 01       	movw	r18, r16
     418:	a7 01       	movw	r20, r14
     41a:	bc 01       	movw	r22, r24
     41c:	83 e7       	ldi	r24, 0x73	; 115
     41e:	92 e0       	ldi	r25, 0x02	; 2
     420:	0e 94 c9 16 	call	0x2d92	; 0x2d92 <_ZN8GAPClass24setAdvertisedServiceDataEjPKhi>
     424:	8a e5       	ldi	r24, 0x5A	; 90
     426:	92 e0       	ldi	r25, 0x02	; 2
     428:	ce d7       	rcall	.+3996   	; 0x13c6 <_ZN8ATTClass9connectedEv>
     42a:	81 11       	cpse	r24, r1
     42c:	10 c0       	rjmp	.+32     	; 0x44e <__LOCK_REGION_LENGTH__+0x4e>
     42e:	83 e7       	ldi	r24, 0x73	; 115
     430:	92 e0       	ldi	r25, 0x02	; 2
     432:	0e 94 92 15 	call	0x2b24	; 0x2b24 <_ZN8GAPClass11advertisingEv>
     436:	88 23       	and	r24, r24
     438:	69 f0       	breq	.+26     	; 0x454 <__LOCK_REGION_LENGTH__+0x54>
     43a:	83 e7       	ldi	r24, 0x73	; 115
     43c:	92 e0       	ldi	r25, 0x02	; 2
     43e:	0e 94 95 15 	call	0x2b2a	; 0x2b2a <_ZN8GAPClass9advertiseEv>
     442:	81 e0       	ldi	r24, 0x01	; 1
     444:	90 e0       	ldi	r25, 0x00	; 0
     446:	08 c0       	rjmp	.+16     	; 0x458 <__LOCK_REGION_LENGTH__+0x58>
     448:	81 e0       	ldi	r24, 0x01	; 1
     44a:	90 e0       	ldi	r25, 0x00	; 0
     44c:	05 c0       	rjmp	.+10     	; 0x458 <__LOCK_REGION_LENGTH__+0x58>
     44e:	81 e0       	ldi	r24, 0x01	; 1
     450:	90 e0       	ldi	r25, 0x00	; 0
     452:	02 c0       	rjmp	.+4      	; 0x458 <__LOCK_REGION_LENGTH__+0x58>
     454:	81 e0       	ldi	r24, 0x01	; 1
     456:	90 e0       	ldi	r25, 0x00	; 0
     458:	df 91       	pop	r29
     45a:	cf 91       	pop	r28
     45c:	1f 91       	pop	r17
     45e:	0f 91       	pop	r16
     460:	ff 90       	pop	r15
     462:	ef 90       	pop	r14
     464:	08 95       	ret

00000466 <_ZN19LocalCharacteristic6handleEv>:
     466:	fc 01       	movw	r30, r24
     468:	84 8d       	ldd	r24, Z+28	; 0x1c
     46a:	95 8d       	ldd	r25, Z+29	; 0x1d
     46c:	08 95       	ret

0000046e <_ZN19LocalCharacteristic11valueHandleEv>:
     46e:	fc 01       	movw	r30, r24
     470:	84 8d       	ldd	r24, Z+28	; 0x1c
     472:	95 8d       	ldd	r25, Z+29	; 0x1d
     474:	01 96       	adiw	r24, 0x01	; 1
     476:	08 95       	ret

00000478 <_ZN19LocalCharacteristic10descriptorEj>:
     478:	dc 01       	movw	r26, r24
     47a:	94 96       	adiw	r26, 0x24	; 36
     47c:	2d 91       	ld	r18, X+
     47e:	3c 91       	ld	r19, X
     480:	95 97       	sbiw	r26, 0x25	; 37
     482:	62 17       	cp	r22, r18
     484:	73 07       	cpc	r23, r19
     486:	98 f4       	brcc	.+38     	; 0x4ae <_ZN19LocalCharacteristic10descriptorEj+0x36>
     488:	96 96       	adiw	r26, 0x26	; 38
     48a:	ed 91       	ld	r30, X+
     48c:	fc 91       	ld	r31, X
     48e:	97 97       	sbiw	r26, 0x27	; 39
     490:	61 15       	cp	r22, r1
     492:	71 05       	cpc	r23, r1
     494:	49 f0       	breq	.+18     	; 0x4a8 <_ZN19LocalCharacteristic10descriptorEj+0x30>
     496:	80 e0       	ldi	r24, 0x00	; 0
     498:	90 e0       	ldi	r25, 0x00	; 0
     49a:	02 80       	ldd	r0, Z+2	; 0x02
     49c:	f3 81       	ldd	r31, Z+3	; 0x03
     49e:	e0 2d       	mov	r30, r0
     4a0:	01 96       	adiw	r24, 0x01	; 1
     4a2:	68 17       	cp	r22, r24
     4a4:	79 07       	cpc	r23, r25
     4a6:	c9 f7       	brne	.-14     	; 0x49a <_ZN19LocalCharacteristic10descriptorEj+0x22>
     4a8:	80 81       	ld	r24, Z
     4aa:	91 81       	ldd	r25, Z+1	; 0x01
     4ac:	08 95       	ret
     4ae:	80 e0       	ldi	r24, 0x00	; 0
     4b0:	90 e0       	ldi	r25, 0x00	; 0
     4b2:	08 95       	ret

000004b4 <_ZN11XLinkedListIP15LocalDescriptorE3addES1_>:
     4b4:	0f 93       	push	r16
     4b6:	1f 93       	push	r17
     4b8:	cf 93       	push	r28
     4ba:	df 93       	push	r29
     4bc:	ec 01       	movw	r28, r24
     4be:	8b 01       	movw	r16, r22
     4c0:	84 e0       	ldi	r24, 0x04	; 4
     4c2:	90 e0       	ldi	r25, 0x00	; 0
     4c4:	0e 94 e4 21 	call	0x43c8	; 0x43c8 <_Znwj>
     4c8:	fc 01       	movw	r30, r24
     4ca:	13 82       	std	Z+3, r1	; 0x03
     4cc:	12 82       	std	Z+2, r1	; 0x02
     4ce:	11 83       	std	Z+1, r17	; 0x01
     4d0:	00 83       	st	Z, r16
     4d2:	2a 81       	ldd	r18, Y+2	; 0x02
     4d4:	3b 81       	ldd	r19, Y+3	; 0x03
     4d6:	23 2b       	or	r18, r19
     4d8:	19 f4       	brne	.+6      	; 0x4e0 <_ZN11XLinkedListIP15LocalDescriptorE3addES1_+0x2c>
     4da:	9b 83       	std	Y+3, r25	; 0x03
     4dc:	8a 83       	std	Y+2, r24	; 0x02
     4de:	04 c0       	rjmp	.+8      	; 0x4e8 <_ZN11XLinkedListIP15LocalDescriptorE3addES1_+0x34>
     4e0:	ec 81       	ldd	r30, Y+4	; 0x04
     4e2:	fd 81       	ldd	r31, Y+5	; 0x05
     4e4:	93 83       	std	Z+3, r25	; 0x03
     4e6:	82 83       	std	Z+2, r24	; 0x02
     4e8:	9d 83       	std	Y+5, r25	; 0x05
     4ea:	8c 83       	std	Y+4, r24	; 0x04
     4ec:	88 81       	ld	r24, Y
     4ee:	99 81       	ldd	r25, Y+1	; 0x01
     4f0:	01 96       	adiw	r24, 0x01	; 1
     4f2:	99 83       	std	Y+1, r25	; 0x01
     4f4:	88 83       	st	Y, r24
     4f6:	df 91       	pop	r29
     4f8:	cf 91       	pop	r28
     4fa:	1f 91       	pop	r17
     4fc:	0f 91       	pop	r16
     4fe:	08 95       	ret

00000500 <_ZN19LocalCharacteristicC1EPKchib>:
     500:	ef 92       	push	r14
     502:	ff 92       	push	r15
     504:	0f 93       	push	r16
     506:	1f 93       	push	r17
     508:	cf 93       	push	r28
     50a:	df 93       	push	r29
     50c:	ec 01       	movw	r28, r24
     50e:	14 2f       	mov	r17, r20
     510:	79 01       	movw	r14, r18
     512:	b6 d3       	rcall	.+1900   	; 0xc80 <_ZN12BLEAttributeC1EPKc>
     514:	81 e2       	ldi	r24, 0x21	; 33
     516:	91 e0       	ldi	r25, 0x01	; 1
     518:	99 83       	std	Y+1, r25	; 0x01
     51a:	88 83       	st	Y, r24
     51c:	1f 8b       	std	Y+23, r17	; 0x17
     51e:	9e 2d       	mov	r25, r14
     520:	8f 2d       	mov	r24, r15
     522:	21 e0       	ldi	r18, 0x01	; 1
     524:	e2 16       	cp	r14, r18
     526:	22 e0       	ldi	r18, 0x02	; 2
     528:	f2 06       	cpc	r15, r18
     52a:	14 f0       	brlt	.+4      	; 0x530 <_ZN19LocalCharacteristicC1EPKchib+0x30>
     52c:	90 e0       	ldi	r25, 0x00	; 0
     52e:	82 e0       	ldi	r24, 0x02	; 2
     530:	98 8f       	std	Y+24, r25	; 0x18
     532:	89 8f       	std	Y+25, r24	; 0x19
     534:	1a 8e       	std	Y+26, r1	; 0x1a
     536:	0b 8f       	std	Y+27, r16	; 0x1b
     538:	1d 8e       	std	Y+29, r1	; 0x1d
     53a:	1c 8e       	std	Y+28, r1	; 0x1c
     53c:	1e 8e       	std	Y+30, r1	; 0x1e
     53e:	1f 8e       	std	Y+31, r1	; 0x1f
     540:	19 a2       	std	Y+33, r1	; 0x21
     542:	18 a2       	std	Y+32, r1	; 0x20
     544:	1d a2       	std	Y+37, r1	; 0x25
     546:	1c a2       	std	Y+36, r1	; 0x24
     548:	1f a2       	std	Y+39, r1	; 0x27
     54a:	1e a2       	std	Y+38, r1	; 0x26
     54c:	19 a6       	std	Y+41, r1	; 0x29
     54e:	18 a6       	std	Y+40, r1	; 0x28
     550:	88 e0       	ldi	r24, 0x08	; 8
     552:	fe 01       	movw	r30, r28
     554:	ba 96       	adiw	r30, 0x2a	; 42
     556:	df 01       	movw	r26, r30
     558:	1d 92       	st	X+, r1
     55a:	8a 95       	dec	r24
     55c:	e9 f7       	brne	.-6      	; 0x558 <_ZN19LocalCharacteristicC1EPKchib+0x58>
     55e:	10 73       	andi	r17, 0x30	; 48
     560:	89 f0       	breq	.+34     	; 0x584 <_ZN19LocalCharacteristicC1EPKchib+0x84>
     562:	8d e1       	ldi	r24, 0x1D	; 29
     564:	90 e0       	ldi	r25, 0x00	; 0
     566:	0e 94 e4 21 	call	0x43c8	; 0x43c8 <_Znwj>
     56a:	8c 01       	movw	r16, r24
     56c:	22 e0       	ldi	r18, 0x02	; 2
     56e:	30 e0       	ldi	r19, 0x00	; 0
     570:	ae 01       	movw	r20, r28
     572:	40 5e       	subi	r20, 0xE0	; 224
     574:	5f 4f       	sbci	r21, 0xFF	; 255
     576:	68 e1       	ldi	r22, 0x18	; 24
     578:	71 e0       	ldi	r23, 0x01	; 1
     57a:	c6 d1       	rcall	.+908    	; 0x908 <_ZN15LocalDescriptorC1EPKcPKhi>
     57c:	b8 01       	movw	r22, r16
     57e:	ce 01       	movw	r24, r28
     580:	84 96       	adiw	r24, 0x24	; 36
     582:	98 df       	rcall	.-208    	; 0x4b4 <_ZN11XLinkedListIP15LocalDescriptorE3addES1_>
     584:	c7 01       	movw	r24, r14
     586:	0e 94 9e 25 	call	0x4b3c	; 0x4b3c <malloc>
     58a:	9b a3       	std	Y+35, r25	; 0x23
     58c:	8a a3       	std	Y+34, r24	; 0x22
     58e:	df 91       	pop	r29
     590:	cf 91       	pop	r28
     592:	1f 91       	pop	r17
     594:	0f 91       	pop	r16
     596:	ff 90       	pop	r15
     598:	ef 90       	pop	r14
     59a:	08 95       	ret

0000059c <_ZN11XLinkedListIP15LocalDescriptorE5clearEv>:
        itemNode = itemNode->next;
    }
    return itemNode->data;
}

template <typename T> void XLinkedList<T>::clear()
     59c:	ef 92       	push	r14
     59e:	ff 92       	push	r15
     5a0:	0f 93       	push	r16
     5a2:	1f 93       	push	r17
     5a4:	cf 93       	push	r28
     5a6:	df 93       	push	r29
     5a8:	7c 01       	movw	r14, r24
{
    XLinkedListNode<T>* itemNode = m_root;
     5aa:	fc 01       	movw	r30, r24
     5ac:	82 81       	ldd	r24, Z+2	; 0x02
     5ae:	93 81       	ldd	r25, Z+3	; 0x03
    for (unsigned int i = 0; i < m_size; i++) {
     5b0:	20 81       	ld	r18, Z
     5b2:	31 81       	ldd	r19, Z+1	; 0x01
     5b4:	23 2b       	or	r18, r19
     5b6:	81 f0       	breq	.+32     	; 0x5d8 <_ZN11XLinkedListIP15LocalDescriptorE5clearEv+0x3c>
     5b8:	c0 e0       	ldi	r28, 0x00	; 0
     5ba:	d0 e0       	ldi	r29, 0x00	; 0
        XLinkedListNode<T>* n = itemNode;
        itemNode = itemNode->next;
     5bc:	fc 01       	movw	r30, r24
     5be:	02 81       	ldd	r16, Z+2	; 0x02
     5c0:	13 81       	ldd	r17, Z+3	; 0x03
        delete n;
     5c2:	0e 94 e6 21 	call	0x43cc	; 0x43cc <_ZdlPv>
}

template <typename T> void XLinkedList<T>::clear()
{
    XLinkedListNode<T>* itemNode = m_root;
    for (unsigned int i = 0; i < m_size; i++) {
     5c6:	21 96       	adiw	r28, 0x01	; 1
        XLinkedListNode<T>* n = itemNode;
        itemNode = itemNode->next;
     5c8:	80 2f       	mov	r24, r16
     5ca:	91 2f       	mov	r25, r17
}

template <typename T> void XLinkedList<T>::clear()
{
    XLinkedListNode<T>* itemNode = m_root;
    for (unsigned int i = 0; i < m_size; i++) {
     5cc:	f7 01       	movw	r30, r14
     5ce:	20 81       	ld	r18, Z
     5d0:	31 81       	ldd	r19, Z+1	; 0x01
     5d2:	c2 17       	cp	r28, r18
     5d4:	d3 07       	cpc	r29, r19
     5d6:	90 f3       	brcs	.-28     	; 0x5bc <_ZN11XLinkedListIP15LocalDescriptorE5clearEv+0x20>
        XLinkedListNode<T>* n = itemNode;
        itemNode = itemNode->next;
        delete n;
    }
    m_size = 0;
     5d8:	f7 01       	movw	r30, r14
     5da:	11 82       	std	Z+1, r1	; 0x01
     5dc:	10 82       	st	Z, r1
    m_root = NULL;
     5de:	13 82       	std	Z+3, r1	; 0x03
     5e0:	12 82       	std	Z+2, r1	; 0x02
    m_last = NULL;
     5e2:	15 82       	std	Z+5, r1	; 0x05
     5e4:	14 82       	std	Z+4, r1	; 0x04
}
     5e6:	df 91       	pop	r29
     5e8:	cf 91       	pop	r28
     5ea:	1f 91       	pop	r17
     5ec:	0f 91       	pop	r16
     5ee:	ff 90       	pop	r15
     5f0:	ef 90       	pop	r14
     5f2:	08 95       	ret

000005f4 <_ZN19LocalCharacteristicD1Ev>:
LocalCharacteristic::LocalCharacteristic(const char* uuid, uint8_t properties, const char* value) : LocalCharacteristic(uuid, properties, strlen(value))
{
    writeValue(value);
}

LocalCharacteristic::~LocalCharacteristic()
     5f4:	ef 92       	push	r14
     5f6:	ff 92       	push	r15
     5f8:	0f 93       	push	r16
     5fa:	1f 93       	push	r17
     5fc:	cf 93       	push	r28
     5fe:	df 93       	push	r29
     600:	7c 01       	movw	r14, r24
     602:	81 e2       	ldi	r24, 0x21	; 33
     604:	91 e0       	ldi	r25, 0x01	; 1
     606:	d7 01       	movw	r26, r14
     608:	11 96       	adiw	r26, 0x01	; 1
     60a:	9c 93       	st	X, r25
     60c:	8e 93       	st	-X, r24
{
    for (unsigned int i = 0; i < descriptorCount(); i++) {
     60e:	94 96       	adiw	r26, 0x24	; 36
     610:	8d 91       	ld	r24, X+
     612:	9c 91       	ld	r25, X
     614:	95 97       	sbiw	r26, 0x25	; 37
     616:	89 2b       	or	r24, r25
     618:	e1 f0       	breq	.+56     	; 0x652 <_ZN19LocalCharacteristicD1Ev+0x5e>
     61a:	c0 e0       	ldi	r28, 0x00	; 0
     61c:	d0 e0       	ldi	r29, 0x00	; 0
        LocalDescriptor* d = descriptor(i);
     61e:	be 01       	movw	r22, r28
     620:	c7 01       	movw	r24, r14
     622:	2a df       	rcall	.-428    	; 0x478 <_ZN19LocalCharacteristic10descriptorEj>
     624:	8c 01       	movw	r16, r24
        if (d->release() <= 0) {
     626:	49 d3       	rcall	.+1682   	; 0xcba <_ZN12BLEAttribute7releaseEv>
     628:	18 16       	cp	r1, r24
     62a:	19 06       	cpc	r1, r25
     62c:	5c f0       	brlt	.+22     	; 0x644 <_ZN19LocalCharacteristicD1Ev+0x50>
     62e:	01 15       	cp	r16, r1
            delete d;
     630:	11 05       	cpc	r17, r1
     632:	41 f0       	breq	.+16     	; 0x644 <_ZN19LocalCharacteristicD1Ev+0x50>
     634:	d8 01       	movw	r26, r16
     636:	ed 91       	ld	r30, X+
     638:	fc 91       	ld	r31, X
     63a:	02 80       	ldd	r0, Z+2	; 0x02
     63c:	f3 81       	ldd	r31, Z+3	; 0x03
     63e:	e0 2d       	mov	r30, r0
     640:	c8 01       	movw	r24, r16
     642:	09 95       	icall
     644:	21 96       	adiw	r28, 0x01	; 1
    writeValue(value);
}

LocalCharacteristic::~LocalCharacteristic()
{
    for (unsigned int i = 0; i < descriptorCount(); i++) {
     646:	f7 01       	movw	r30, r14
     648:	84 a1       	ldd	r24, Z+36	; 0x24
     64a:	95 a1       	ldd	r25, Z+37	; 0x25
     64c:	c8 17       	cp	r28, r24
     64e:	d9 07       	cpc	r29, r25
     650:	30 f3       	brcs	.-52     	; 0x61e <_ZN19LocalCharacteristicD1Ev+0x2a>
     652:	e7 01       	movw	r28, r14
        LocalDescriptor* d = descriptor(i);
        if (d->release() <= 0) {
            delete d;
        }
    }
    m_descriptors.clear();
     654:	a4 96       	adiw	r28, 0x24	; 36
     656:	ce 01       	movw	r24, r28
     658:	a1 df       	rcall	.-190    	; 0x59c <_ZN11XLinkedListIP15LocalDescriptorE5clearEv>
     65a:	d7 01       	movw	r26, r14
    if (m_value) {
     65c:	92 96       	adiw	r26, 0x22	; 34
     65e:	8d 91       	ld	r24, X+
     660:	9c 91       	ld	r25, X
     662:	93 97       	sbiw	r26, 0x23	; 35
     664:	00 97       	sbiw	r24, 0x00	; 0
     666:	11 f0       	breq	.+4      	; 0x66c <_ZN19LocalCharacteristicD1Ev+0x78>
     668:	0e 94 36 26 	call	0x4c6c	; 0x4c6c <free>
    //
}

template <typename T> XLinkedList<T>::~XLinkedList()
{
    clear();
     66c:	ce 01       	movw	r24, r28
     66e:	96 df       	rcall	.-212    	; 0x59c <_ZN11XLinkedListIP15LocalDescriptorE5clearEv>
LocalCharacteristic::LocalCharacteristic(const char* uuid, uint8_t properties, const char* value) : LocalCharacteristic(uuid, properties, strlen(value))
{
    writeValue(value);
}

LocalCharacteristic::~LocalCharacteristic()
     670:	c7 01       	movw	r24, r14
     672:	ff d2       	rcall	.+1534   	; 0xc72 <_ZN12BLEAttributeD1Ev>
     674:	df 91       	pop	r29
    }
    m_descriptors.clear();
    if (m_value) {
        free(m_value);
    }
}
     676:	cf 91       	pop	r28
     678:	1f 91       	pop	r17
     67a:	0f 91       	pop	r16
     67c:	ff 90       	pop	r15
     67e:	ef 90       	pop	r14
     680:	08 95       	ret

00000682 <_ZN19LocalCharacteristicD0Ev>:
     682:	cf 93       	push	r28
LocalCharacteristic::LocalCharacteristic(const char* uuid, uint8_t properties, const char* value) : LocalCharacteristic(uuid, properties, strlen(value))
{
    writeValue(value);
}

LocalCharacteristic::~LocalCharacteristic()
     684:	df 93       	push	r29
     686:	ec 01       	movw	r28, r24
    }
    m_descriptors.clear();
    if (m_value) {
        free(m_value);
    }
}
     688:	b5 df       	rcall	.-150    	; 0x5f4 <_ZN19LocalCharacteristicD1Ev>
     68a:	ce 01       	movw	r24, r28
     68c:	0e 94 e6 21 	call	0x43cc	; 0x43cc <_ZdlPv>
     690:	df 91       	pop	r29
     692:	cf 91       	pop	r28
     694:	08 95       	ret

00000696 <_ZN19LocalCharacteristic9readValueE9BLEDevicejPhi>:
{
    return m_descriptors.get(index);
}

void LocalCharacteristic::readValue(BLEDevice device, uint16_t offset, uint8_t value[], int length)
{
     696:	6f 92       	push	r6
     698:	7f 92       	push	r7
     69a:	8f 92       	push	r8
     69c:	9f 92       	push	r9
     69e:	af 92       	push	r10
     6a0:	bf 92       	push	r11
     6a2:	cf 92       	push	r12
     6a4:	df 92       	push	r13
     6a6:	ef 92       	push	r14
     6a8:	ff 92       	push	r15
     6aa:	0f 93       	push	r16
     6ac:	1f 93       	push	r17
     6ae:	cf 93       	push	r28
     6b0:	df 93       	push	r29
     6b2:	cd b7       	in	r28, 0x3d	; 61
     6b4:	de b7       	in	r29, 0x3e	; 62
     6b6:	a0 97       	sbiw	r28, 0x20	; 32
     6b8:	0f b6       	in	r0, 0x3f	; 63
     6ba:	f8 94       	cli
     6bc:	de bf       	out	0x3e, r29	; 62
     6be:	0f be       	out	0x3f, r0	; 63
     6c0:	cd bf       	out	0x3d, r28	; 61
     6c2:	7c 01       	movw	r14, r24
     6c4:	6b 01       	movw	r12, r22
     6c6:	3a 01       	movw	r6, r20
     6c8:	49 01       	movw	r8, r18
    if (m_eventHandlers[BC_READ]) {
     6ca:	fc 01       	movw	r30, r24
     6cc:	a6 a4       	ldd	r10, Z+46	; 0x2e
     6ce:	b7 a4       	ldd	r11, Z+47	; 0x2f
     6d0:	a1 14       	cp	r10, r1
     6d2:	b1 04       	cpc	r11, r1
     6d4:	59 f1       	breq	.+86     	; 0x72c <_ZN19LocalCharacteristic9readValueE9BLEDevicejPhi+0x96>
        m_eventHandlers[BC_READ](device, BLECharacteristic(this));
     6d6:	bc 01       	movw	r22, r24
     6d8:	ce 01       	movw	r24, r28
     6da:	4d 96       	adiw	r24, 0x1d	; 29
     6dc:	1e d3       	rcall	.+1596   	; 0xd1a <_ZN17BLECharacteristicC1EP19LocalCharacteristic>
    BD_CONNECTED = 0,
    BD_DISCONNECTED = 1,
    BD_EVENT_LAST
};

class BLEDevice
     6de:	89 e8       	ldi	r24, 0x89	; 137
     6e0:	91 e0       	ldi	r25, 0x01	; 1
     6e2:	9a 83       	std	Y+2, r25	; 0x02
     6e4:	89 83       	std	Y+1, r24	; 0x01
     6e6:	82 e1       	ldi	r24, 0x12	; 18
     6e8:	f6 01       	movw	r30, r12
     6ea:	32 96       	adiw	r30, 0x02	; 2
     6ec:	de 01       	movw	r26, r28
     6ee:	13 96       	adiw	r26, 0x03	; 3
     6f0:	01 90       	ld	r0, Z+
     6f2:	0d 92       	st	X+, r0
     6f4:	8a 95       	dec	r24
     6f6:	e1 f7       	brne	.-8      	; 0x6f0 <_ZN19LocalCharacteristic9readValueE9BLEDevicejPhi+0x5a>
     6f8:	f6 01       	movw	r30, r12
     6fa:	84 89       	ldd	r24, Z+20	; 0x14
     6fc:	95 89       	ldd	r25, Z+21	; 0x15
     6fe:	9e 8b       	std	Y+22, r25	; 0x16
     700:	8d 8b       	std	Y+21, r24	; 0x15
     702:	86 e0       	ldi	r24, 0x06	; 6
     704:	76 96       	adiw	r30, 0x16	; 22
     706:	de 01       	movw	r26, r28
     708:	57 96       	adiw	r26, 0x17	; 23
     70a:	01 90       	ld	r0, Z+
     70c:	0d 92       	st	X+, r0
     70e:	8a 95       	dec	r24
     710:	e1 f7       	brne	.-8      	; 0x70a <_ZN19LocalCharacteristic9readValueE9BLEDevicejPhi+0x74>
     712:	be 01       	movw	r22, r28
     714:	63 5e       	subi	r22, 0xE3	; 227
     716:	7f 4f       	sbci	r23, 0xFF	; 255
     718:	ce 01       	movw	r24, r28
     71a:	01 96       	adiw	r24, 0x01	; 1
     71c:	f5 01       	movw	r30, r10
     71e:	09 95       	icall
     720:	ce 01       	movw	r24, r28
     722:	01 96       	adiw	r24, 0x01	; 1
     724:	36 d3       	rcall	.+1644   	; 0xd92 <_ZN9BLEDeviceD1Ev>
     726:	ce 01       	movw	r24, r28
     728:	4d 96       	adiw	r24, 0x1d	; 29
     72a:	cf d2       	rcall	.+1438   	; 0xcca <_ZN17BLECharacteristicD1Ev>
    }
    memcpy(value, m_value + offset, length);
     72c:	f7 01       	movw	r30, r14
     72e:	62 a1       	ldd	r22, Z+34	; 0x22
     730:	73 a1       	ldd	r23, Z+35	; 0x23
     732:	66 0d       	add	r22, r6
     734:	77 1d       	adc	r23, r7
     736:	a8 01       	movw	r20, r16
     738:	c4 01       	movw	r24, r8
     73a:	0e 94 a1 29 	call	0x5342	; 0x5342 <memcpy>
}
     73e:	a0 96       	adiw	r28, 0x20	; 32
     740:	0f b6       	in	r0, 0x3f	; 63
     742:	f8 94       	cli
     744:	de bf       	out	0x3e, r29	; 62
     746:	0f be       	out	0x3f, r0	; 63
     748:	cd bf       	out	0x3d, r28	; 61
     74a:	df 91       	pop	r29
     74c:	cf 91       	pop	r28
     74e:	1f 91       	pop	r17
     750:	0f 91       	pop	r16
     752:	ff 90       	pop	r15
     754:	ef 90       	pop	r14
     756:	df 90       	pop	r13
     758:	cf 90       	pop	r12
     75a:	bf 90       	pop	r11
     75c:	af 90       	pop	r10
     75e:	9f 90       	pop	r9
     760:	8f 90       	pop	r8
     762:	7f 90       	pop	r7
     764:	6f 90       	pop	r6
     766:	08 95       	ret

00000768 <_ZN19LocalCharacteristic10writeValueE9BLEDevicePKhi>:

void LocalCharacteristic::writeValue(BLEDevice device, const uint8_t value[], int length)
{
     768:	cf 92       	push	r12
     76a:	df 92       	push	r13
     76c:	ef 92       	push	r14
     76e:	ff 92       	push	r15
     770:	0f 93       	push	r16
     772:	1f 93       	push	r17
     774:	cf 93       	push	r28
     776:	df 93       	push	r29
     778:	cd b7       	in	r28, 0x3d	; 61
     77a:	de b7       	in	r29, 0x3e	; 62
     77c:	a0 97       	sbiw	r28, 0x20	; 32
     77e:	0f b6       	in	r0, 0x3f	; 63
     780:	f8 94       	cli
     782:	de bf       	out	0x3e, r29	; 62
     784:	0f be       	out	0x3f, r0	; 63
     786:	cd bf       	out	0x3d, r28	; 61
     788:	8c 01       	movw	r16, r24
     78a:	7b 01       	movw	r14, r22
     78c:	ba 01       	movw	r22, r20
    m_written = true;
     78e:	81 e0       	ldi	r24, 0x01	; 1
     790:	f8 01       	movw	r30, r16
     792:	87 8f       	std	Z+31, r24	; 0x1f
    writeValue(value, length);
     794:	a9 01       	movw	r20, r18
     796:	c8 01       	movw	r24, r16
     798:	f4 dd       	rcall	.-1048   	; 0x382 <_ZN19LocalCharacteristic10writeValueEPKhi>
    if (m_eventHandlers[BC_WRITTEN]) {
     79a:	f8 01       	movw	r30, r16
     79c:	c0 a8       	ldd	r12, Z+48	; 0x30
     79e:	d1 a8       	ldd	r13, Z+49	; 0x31
     7a0:	c1 14       	cp	r12, r1
     7a2:	d1 04       	cpc	r13, r1
     7a4:	59 f1       	breq	.+86     	; 0x7fc <_ZN19LocalCharacteristic10writeValueE9BLEDevicePKhi+0x94>
        m_eventHandlers[BC_WRITTEN](device, BLECharacteristic(this));
     7a6:	b8 01       	movw	r22, r16
     7a8:	ce 01       	movw	r24, r28
     7aa:	4d 96       	adiw	r24, 0x1d	; 29
     7ac:	b6 d2       	rcall	.+1388   	; 0xd1a <_ZN17BLECharacteristicC1EP19LocalCharacteristic>
     7ae:	89 e8       	ldi	r24, 0x89	; 137
     7b0:	91 e0       	ldi	r25, 0x01	; 1
     7b2:	9a 83       	std	Y+2, r25	; 0x02
     7b4:	89 83       	std	Y+1, r24	; 0x01
     7b6:	82 e1       	ldi	r24, 0x12	; 18
     7b8:	f7 01       	movw	r30, r14
     7ba:	32 96       	adiw	r30, 0x02	; 2
     7bc:	de 01       	movw	r26, r28
     7be:	13 96       	adiw	r26, 0x03	; 3
     7c0:	01 90       	ld	r0, Z+
     7c2:	0d 92       	st	X+, r0
     7c4:	8a 95       	dec	r24
     7c6:	e1 f7       	brne	.-8      	; 0x7c0 <_ZN19LocalCharacteristic10writeValueE9BLEDevicePKhi+0x58>
     7c8:	f7 01       	movw	r30, r14
     7ca:	84 89       	ldd	r24, Z+20	; 0x14
     7cc:	95 89       	ldd	r25, Z+21	; 0x15
     7ce:	9e 8b       	std	Y+22, r25	; 0x16
     7d0:	8d 8b       	std	Y+21, r24	; 0x15
     7d2:	86 e0       	ldi	r24, 0x06	; 6
     7d4:	76 96       	adiw	r30, 0x16	; 22
     7d6:	de 01       	movw	r26, r28
     7d8:	57 96       	adiw	r26, 0x17	; 23
     7da:	01 90       	ld	r0, Z+
     7dc:	0d 92       	st	X+, r0
     7de:	8a 95       	dec	r24
     7e0:	e1 f7       	brne	.-8      	; 0x7da <_ZN19LocalCharacteristic10writeValueE9BLEDevicePKhi+0x72>
     7e2:	be 01       	movw	r22, r28
     7e4:	63 5e       	subi	r22, 0xE3	; 227
     7e6:	7f 4f       	sbci	r23, 0xFF	; 255
     7e8:	ce 01       	movw	r24, r28
     7ea:	01 96       	adiw	r24, 0x01	; 1
     7ec:	f6 01       	movw	r30, r12
     7ee:	09 95       	icall
     7f0:	ce 01       	movw	r24, r28
     7f2:	01 96       	adiw	r24, 0x01	; 1
     7f4:	ce d2       	rcall	.+1436   	; 0xd92 <_ZN9BLEDeviceD1Ev>
     7f6:	ce 01       	movw	r24, r28
     7f8:	4d 96       	adiw	r24, 0x1d	; 29
     7fa:	67 d2       	rcall	.+1230   	; 0xcca <_ZN17BLECharacteristicD1Ev>
    }
}
     7fc:	a0 96       	adiw	r28, 0x20	; 32
     7fe:	0f b6       	in	r0, 0x3f	; 63
     800:	f8 94       	cli
     802:	de bf       	out	0x3e, r29	; 62
     804:	0f be       	out	0x3f, r0	; 63
     806:	cd bf       	out	0x3d, r28	; 61
     808:	df 91       	pop	r29
     80a:	cf 91       	pop	r28
     80c:	1f 91       	pop	r17
     80e:	0f 91       	pop	r16
     810:	ff 90       	pop	r15
     812:	ef 90       	pop	r14
     814:	df 90       	pop	r13
     816:	cf 90       	pop	r12
     818:	08 95       	ret

0000081a <_ZN19LocalCharacteristic14writeCccdValueE9BLEDevicej>:

void LocalCharacteristic::writeCccdValue(BLEDevice device, uint16_t value)
{
     81a:	ef 92       	push	r14
     81c:	ff 92       	push	r15
     81e:	0f 93       	push	r16
     820:	1f 93       	push	r17
     822:	cf 93       	push	r28
     824:	df 93       	push	r29
     826:	cd b7       	in	r28, 0x3d	; 61
     828:	de b7       	in	r29, 0x3e	; 62
     82a:	a0 97       	sbiw	r28, 0x20	; 32
     82c:	0f b6       	in	r0, 0x3f	; 63
     82e:	f8 94       	cli
     830:	de bf       	out	0x3e, r29	; 62
     832:	0f be       	out	0x3f, r0	; 63
     834:	cd bf       	out	0x3d, r28	; 61
    value &= 0x0003;
     836:	43 70       	andi	r20, 0x03	; 3
     838:	55 27       	eor	r21, r21
    if (m_cccdValue != value) {
     83a:	fc 01       	movw	r30, r24
     83c:	20 a1       	ldd	r18, Z+32	; 0x20
     83e:	31 a1       	ldd	r19, Z+33	; 0x21
     840:	42 17       	cp	r20, r18
     842:	53 07       	cpc	r21, r19
     844:	09 f4       	brne	.+2      	; 0x848 <_ZN19LocalCharacteristic14writeCccdValueE9BLEDevicej+0x2e>
     846:	3f c0       	rjmp	.+126    	; 0x8c6 <_ZN19LocalCharacteristic14writeCccdValueE9BLEDevicej+0xac>
        m_cccdValue = value;
     848:	51 a3       	std	Z+33, r21	; 0x21
     84a:	40 a3       	std	Z+32, r20	; 0x20
        BLECharacteristicEvent event = (m_cccdValue) ? BC_SUBSCRIBED : BC_UNSUBSCRIBED;
        if (m_eventHandlers[event]) {
     84c:	21 e0       	ldi	r18, 0x01	; 1
     84e:	30 e0       	ldi	r19, 0x00	; 0
     850:	45 2b       	or	r20, r21
     852:	11 f0       	breq	.+4      	; 0x858 <_ZN19LocalCharacteristic14writeCccdValueE9BLEDevicej+0x3e>
     854:	20 e0       	ldi	r18, 0x00	; 0
     856:	30 e0       	ldi	r19, 0x00	; 0
     858:	d9 01       	movw	r26, r18
     85a:	55 96       	adiw	r26, 0x15	; 21
     85c:	aa 0f       	add	r26, r26
     85e:	bb 1f       	adc	r27, r27
     860:	a8 0f       	add	r26, r24
     862:	b9 1f       	adc	r27, r25
     864:	ed 90       	ld	r14, X+
     866:	fc 90       	ld	r15, X
     868:	e1 14       	cp	r14, r1
     86a:	f1 04       	cpc	r15, r1
     86c:	61 f1       	breq	.+88     	; 0x8c6 <_ZN19LocalCharacteristic14writeCccdValueE9BLEDevicej+0xac>
     86e:	8b 01       	movw	r16, r22
     870:	bc 01       	movw	r22, r24
            m_eventHandlers[event](device, BLECharacteristic(this));
     872:	ce 01       	movw	r24, r28
     874:	4d 96       	adiw	r24, 0x1d	; 29
     876:	51 d2       	rcall	.+1186   	; 0xd1a <_ZN17BLECharacteristicC1EP19LocalCharacteristic>
     878:	89 e8       	ldi	r24, 0x89	; 137
     87a:	91 e0       	ldi	r25, 0x01	; 1
     87c:	9a 83       	std	Y+2, r25	; 0x02
     87e:	89 83       	std	Y+1, r24	; 0x01
     880:	82 e1       	ldi	r24, 0x12	; 18
     882:	f8 01       	movw	r30, r16
     884:	32 96       	adiw	r30, 0x02	; 2
     886:	de 01       	movw	r26, r28
     888:	13 96       	adiw	r26, 0x03	; 3
     88a:	01 90       	ld	r0, Z+
     88c:	0d 92       	st	X+, r0
     88e:	8a 95       	dec	r24
     890:	e1 f7       	brne	.-8      	; 0x88a <_ZN19LocalCharacteristic14writeCccdValueE9BLEDevicej+0x70>
     892:	f8 01       	movw	r30, r16
     894:	84 89       	ldd	r24, Z+20	; 0x14
     896:	95 89       	ldd	r25, Z+21	; 0x15
     898:	9e 8b       	std	Y+22, r25	; 0x16
     89a:	8d 8b       	std	Y+21, r24	; 0x15
     89c:	86 e0       	ldi	r24, 0x06	; 6
     89e:	76 96       	adiw	r30, 0x16	; 22
     8a0:	de 01       	movw	r26, r28
     8a2:	57 96       	adiw	r26, 0x17	; 23
     8a4:	01 90       	ld	r0, Z+
     8a6:	0d 92       	st	X+, r0
     8a8:	8a 95       	dec	r24
     8aa:	e1 f7       	brne	.-8      	; 0x8a4 <_ZN19LocalCharacteristic14writeCccdValueE9BLEDevicej+0x8a>
     8ac:	be 01       	movw	r22, r28
     8ae:	63 5e       	subi	r22, 0xE3	; 227
     8b0:	7f 4f       	sbci	r23, 0xFF	; 255
     8b2:	ce 01       	movw	r24, r28
     8b4:	01 96       	adiw	r24, 0x01	; 1
     8b6:	f7 01       	movw	r30, r14
     8b8:	09 95       	icall
     8ba:	ce 01       	movw	r24, r28
     8bc:	01 96       	adiw	r24, 0x01	; 1
     8be:	69 d2       	rcall	.+1234   	; 0xd92 <_ZN9BLEDeviceD1Ev>
     8c0:	ce 01       	movw	r24, r28
     8c2:	4d 96       	adiw	r24, 0x1d	; 29
     8c4:	02 d2       	rcall	.+1028   	; 0xcca <_ZN17BLECharacteristicD1Ev>
        }
    }
}
     8c6:	a0 96       	adiw	r28, 0x20	; 32
     8c8:	0f b6       	in	r0, 0x3f	; 63
     8ca:	f8 94       	cli
     8cc:	de bf       	out	0x3e, r29	; 62
     8ce:	0f be       	out	0x3f, r0	; 63
     8d0:	cd bf       	out	0x3d, r28	; 61
     8d2:	df 91       	pop	r29
     8d4:	cf 91       	pop	r28
     8d6:	1f 91       	pop	r17
     8d8:	0f 91       	pop	r16
     8da:	ff 90       	pop	r15
     8dc:	ef 90       	pop	r14
     8de:	08 95       	ret

000008e0 <_ZN15LocalDescriptor4typeEv>:
m_value(value), m_valueSize(min(valueSize, 512)), m_handle(0x0000)
{
    //
}

LocalDescriptor::LocalDescriptor(const char* uuid, const char* value) : LocalDescriptor(uuid, (const uint8_t*)value, strlen(value))
     8e0:	80 e0       	ldi	r24, 0x00	; 0
     8e2:	99 e2       	ldi	r25, 0x29	; 41
     8e4:	08 95       	ret

000008e6 <_ZN15LocalDescriptorD1Ev>:
     8e6:	2b e2       	ldi	r18, 0x2B	; 43
     8e8:	31 e0       	ldi	r19, 0x01	; 1
     8ea:	fc 01       	movw	r30, r24
     8ec:	31 83       	std	Z+1, r19	; 0x01
     8ee:	20 83       	st	Z, r18
     8f0:	c0 c1       	rjmp	.+896    	; 0xc72 <_ZN12BLEAttributeD1Ev>
     8f2:	08 95       	ret

000008f4 <_ZN15LocalDescriptorD0Ev>:
     8f4:	cf 93       	push	r28
     8f6:	df 93       	push	r29
     8f8:	ec 01       	movw	r28, r24
     8fa:	f5 df       	rcall	.-22     	; 0x8e6 <_ZN15LocalDescriptorD1Ev>
     8fc:	ce 01       	movw	r24, r28
     8fe:	0e 94 e6 21 	call	0x43cc	; 0x43cc <_ZdlPv>
     902:	df 91       	pop	r29
     904:	cf 91       	pop	r28
     906:	08 95       	ret

00000908 <_ZN15LocalDescriptorC1EPKcPKhi>:
     908:	ef 92       	push	r14
     90a:	ff 92       	push	r15
     90c:	0f 93       	push	r16
     90e:	1f 93       	push	r17
     910:	cf 93       	push	r28
     912:	df 93       	push	r29
     914:	ec 01       	movw	r28, r24
     916:	7a 01       	movw	r14, r20
     918:	02 2f       	mov	r16, r18
     91a:	13 2f       	mov	r17, r19
     91c:	b1 d1       	rcall	.+866    	; 0xc80 <_ZN12BLEAttributeC1EPKc>
     91e:	8b e2       	ldi	r24, 0x2B	; 43
     920:	91 e0       	ldi	r25, 0x01	; 1
     922:	99 83       	std	Y+1, r25	; 0x01
     924:	88 83       	st	Y, r24
     926:	f8 8e       	std	Y+24, r15	; 0x18
     928:	ef 8a       	std	Y+23, r14	; 0x17
     92a:	80 2f       	mov	r24, r16
     92c:	91 2f       	mov	r25, r17
     92e:	81 30       	cpi	r24, 0x01	; 1
     930:	22 e0       	ldi	r18, 0x02	; 2
     932:	92 07       	cpc	r25, r18
     934:	14 f0       	brlt	.+4      	; 0x93a <_ZN15LocalDescriptorC1EPKcPKhi+0x32>
     936:	80 e0       	ldi	r24, 0x00	; 0
     938:	92 e0       	ldi	r25, 0x02	; 2
     93a:	9a 8f       	std	Y+26, r25	; 0x1a
     93c:	89 8f       	std	Y+25, r24	; 0x19
     93e:	1c 8e       	std	Y+28, r1	; 0x1c
     940:	1b 8e       	std	Y+27, r1	; 0x1b
     942:	df 91       	pop	r29
     944:	cf 91       	pop	r28
     946:	1f 91       	pop	r17
     948:	0f 91       	pop	r16
     94a:	ff 90       	pop	r15
     94c:	ef 90       	pop	r14
     94e:	08 95       	ret

00000950 <_ZN15LocalDescriptor9valueSizeEv>:
}

int LocalDescriptor::valueSize()
{
    return m_valueSize;
}
     950:	fc 01       	movw	r30, r24
     952:	81 8d       	ldd	r24, Z+25	; 0x19
     954:	92 8d       	ldd	r25, Z+26	; 0x1a
     956:	08 95       	ret

00000958 <_ZN15LocalDescriptor5valueEv>:

const uint8_t* LocalDescriptor::value()
{
    return m_value;
}
     958:	fc 01       	movw	r30, r24
     95a:	87 89       	ldd	r24, Z+23	; 0x17
     95c:	90 8d       	ldd	r25, Z+24	; 0x18
     95e:	08 95       	ret

00000960 <_ZN11LocalDevicecvbEv>:
    g_l2capSignaling.setConnectionInterval(minimumConnectionInterval, maximumConnectionInterval);
}

void LocalDevice::setConnectable(bool connectable)
{
    g_gap.setConnectable(connectable);
     960:	81 e0       	ldi	r24, 0x01	; 1
     962:	08 95       	ret

00000964 <_ZN11LocalDeviceeqER9BLEDevice>:
     964:	21 e0       	ldi	r18, 0x01	; 1
     966:	68 17       	cp	r22, r24
     968:	79 07       	cpc	r23, r25
     96a:	09 f0       	breq	.+2      	; 0x96e <_ZN11LocalDeviceeqER9BLEDevice+0xa>
     96c:	20 e0       	ldi	r18, 0x00	; 0
     96e:	82 2f       	mov	r24, r18
     970:	08 95       	ret

00000972 <_ZN11LocalDeviceneER9BLEDevice>:
     972:	21 e0       	ldi	r18, 0x01	; 1
     974:	68 17       	cp	r22, r24
     976:	79 07       	cpc	r23, r25
     978:	09 f4       	brne	.+2      	; 0x97c <_ZN11LocalDeviceneER9BLEDevice+0xa>
     97a:	20 e0       	ldi	r18, 0x00	; 0
     97c:	82 2f       	mov	r24, r18
     97e:	08 95       	ret

00000980 <_ZN11LocalDeviceD1Ev>:
     980:	23 e5       	ldi	r18, 0x53	; 83
     982:	31 e0       	ldi	r19, 0x01	; 1
     984:	fc 01       	movw	r30, r24
     986:	31 83       	std	Z+1, r19	; 0x01
     988:	20 83       	st	Z, r18
     98a:	03 c2       	rjmp	.+1030   	; 0xd92 <_ZN9BLEDeviceD1Ev>
     98c:	08 95       	ret

0000098e <_ZN11LocalDeviceD0Ev>:
     98e:	cf 93       	push	r28
     990:	df 93       	push	r29
     992:	ec 01       	movw	r28, r24
     994:	f5 df       	rcall	.-22     	; 0x980 <_ZN11LocalDeviceD1Ev>
     996:	ce 01       	movw	r24, r28
     998:	0e 94 e6 21 	call	0x43cc	; 0x43cc <_ZdlPv>
     99c:	df 91       	pop	r29
     99e:	cf 91       	pop	r28
     9a0:	08 95       	ret

000009a2 <_ZN11LocalDevice9connectedEv>:
     9a2:	87 e6       	ldi	r24, 0x67	; 103
     9a4:	93 e0       	ldi	r25, 0x03	; 3
     9a6:	0e 94 71 19 	call	0x32e2	; 0x32e2 <_ZN8HCIClass4pollEv>
     9aa:	8a e5       	ldi	r24, 0x5A	; 90
     9ac:	92 e0       	ldi	r25, 0x02	; 2
     9ae:	0b c5       	rjmp	.+2582   	; 0x13c6 <_ZN8ATTClass9connectedEv>
     9b0:	08 95       	ret

000009b2 <_ZN11LocalDevice10disconnectEv>:
     9b2:	8a e5       	ldi	r24, 0x5A	; 90
     9b4:	92 e0       	ldi	r25, 0x02	; 2
     9b6:	24 c5       	rjmp	.+2632   	; 0x1400 <_ZN8ATTClass10disconnectEv>
     9b8:	08 95       	ret

000009ba <_ZN11LocalDevice7addressEv>:
     9ba:	0f 93       	push	r16
     9bc:	1f 93       	push	r17
     9be:	cf 93       	push	r28
     9c0:	df 93       	push	r29
     9c2:	00 d0       	rcall	.+0      	; 0x9c4 <_ZN11LocalDevice7addressEv+0xa>
     9c4:	00 d0       	rcall	.+0      	; 0x9c6 <_ZN11LocalDevice7addressEv+0xc>
     9c6:	00 d0       	rcall	.+0      	; 0x9c8 <_ZN11LocalDevice7addressEv+0xe>
     9c8:	cd b7       	in	r28, 0x3d	; 61
     9ca:	de b7       	in	r29, 0x3e	; 62
     9cc:	8c 01       	movw	r16, r24
     9ce:	be 01       	movw	r22, r28
     9d0:	6f 5f       	subi	r22, 0xFF	; 255
     9d2:	7f 4f       	sbci	r23, 0xFF	; 255
     9d4:	86 e0       	ldi	r24, 0x06	; 6
     9d6:	fb 01       	movw	r30, r22
     9d8:	11 92       	st	Z+, r1
     9da:	8a 95       	dec	r24
     9dc:	e9 f7       	brne	.-6      	; 0x9d8 <_ZN11LocalDevice7addressEv+0x1e>
     9de:	87 e6       	ldi	r24, 0x67	; 103
     9e0:	93 e0       	ldi	r25, 0x03	; 3
     9e2:	0e 94 d4 1a 	call	0x35a8	; 0x35a8 <_ZN8HCIClass10readBDAddrEPh>
     9e6:	04 5e       	subi	r16, 0xE4	; 228
     9e8:	1f 4f       	sbci	r17, 0xFF	; 255
     9ea:	89 81       	ldd	r24, Y+1	; 0x01
     9ec:	1f 92       	push	r1
     9ee:	8f 93       	push	r24
     9f0:	8a 81       	ldd	r24, Y+2	; 0x02
     9f2:	1f 92       	push	r1
     9f4:	8f 93       	push	r24
     9f6:	8b 81       	ldd	r24, Y+3	; 0x03
     9f8:	1f 92       	push	r1
     9fa:	8f 93       	push	r24
     9fc:	8c 81       	ldd	r24, Y+4	; 0x04
     9fe:	1f 92       	push	r1
     a00:	8f 93       	push	r24
     a02:	8d 81       	ldd	r24, Y+5	; 0x05
     a04:	1f 92       	push	r1
     a06:	8f 93       	push	r24
     a08:	8e 81       	ldd	r24, Y+6	; 0x06
     a0a:	1f 92       	push	r1
     a0c:	8f 93       	push	r24
     a0e:	81 e3       	ldi	r24, 0x31	; 49
     a10:	91 e0       	ldi	r25, 0x01	; 1
     a12:	9f 93       	push	r25
     a14:	8f 93       	push	r24
     a16:	1f 93       	push	r17
     a18:	0f 93       	push	r16
     a1a:	0e 94 f8 29 	call	0x53f0	; 0x53f0 <sprintf>
     a1e:	0f b6       	in	r0, 0x3f	; 63
     a20:	f8 94       	cli
     a22:	de bf       	out	0x3e, r29	; 62
     a24:	0f be       	out	0x3f, r0	; 63
     a26:	cd bf       	out	0x3d, r28	; 61
     a28:	c8 01       	movw	r24, r16
     a2a:	26 96       	adiw	r28, 0x06	; 6
     a2c:	0f b6       	in	r0, 0x3f	; 63
     a2e:	f8 94       	cli
     a30:	de bf       	out	0x3e, r29	; 62
     a32:	0f be       	out	0x3f, r0	; 63
     a34:	cd bf       	out	0x3d, r28	; 61
     a36:	df 91       	pop	r29
     a38:	cf 91       	pop	r28
     a3a:	1f 91       	pop	r17
     a3c:	0f 91       	pop	r16
     a3e:	08 95       	ret

00000a40 <_ZN11LocalDeviceC1Ev>:
     a40:	cf 93       	push	r28
     a42:	df 93       	push	r29
     a44:	ec 01       	movw	r28, r24
     a46:	77 d2       	rcall	.+1262   	; 0xf36 <_ZN9BLEDeviceC1Ev>
     a48:	83 e5       	ldi	r24, 0x53	; 83
     a4a:	91 e0       	ldi	r25, 0x01	; 1
     a4c:	99 83       	std	Y+1, r25	; 0x01
     a4e:	88 83       	st	Y, r24
     a50:	df 91       	pop	r29
     a52:	cf 91       	pop	r28
     a54:	08 95       	ret

00000a56 <_GLOBAL__sub_I__ZN11LocalDeviceC2Ev>:
bool LocalDevice::operator!=(BLEDevice& rhs)
{
    return (this != &rhs);
}

LocalDevice g_bleDevice;
     a56:	8c e2       	ldi	r24, 0x2C	; 44
     a58:	92 e0       	ldi	r25, 0x02	; 2
     a5a:	f2 cf       	rjmp	.-28     	; 0xa40 <_ZN11LocalDeviceC1Ev>
     a5c:	08 95       	ret

00000a5e <_GLOBAL__sub_D__ZN11LocalDeviceC2Ev>:
     a5e:	8c e2       	ldi	r24, 0x2C	; 44
     a60:	92 e0       	ldi	r25, 0x02	; 2
     a62:	8e cf       	rjmp	.-228    	; 0x980 <_ZN11LocalDeviceD1Ev>
     a64:	08 95       	ret

00000a66 <_ZN11LocalDevice4rssiEv>:
    sprintf(m_addrString, "%02x:%02x:%02x:%02x:%02x:%02x", addr[5], addr[4], addr[3], addr[2], addr[1], addr[0]);
    return  m_addrString;
}

int LocalDevice::rssi()
{
     a66:	0f 93       	push	r16
     a68:	1f 93       	push	r17
     a6a:	cf 93       	push	r28
     a6c:	df 93       	push	r29
     a6e:	cd b7       	in	r28, 0x3d	; 61
     a70:	de b7       	in	r29, 0x3e	; 62
     a72:	6c 97       	sbiw	r28, 0x1c	; 28
     a74:	0f b6       	in	r0, 0x3f	; 63
     a76:	f8 94       	cli
     a78:	de bf       	out	0x3e, r29	; 62
     a7a:	0f be       	out	0x3f, r0	; 63
     a7c:	cd bf       	out	0x3d, r28	; 61
    BLEDevice central = g_att.central();
     a7e:	6a e5       	ldi	r22, 0x5A	; 90
     a80:	72 e0       	ldi	r23, 0x02	; 2
     a82:	ce 01       	movw	r24, r28
     a84:	01 96       	adiw	r24, 0x01	; 1
     a86:	de d4       	rcall	.+2492   	; 0x1444 <_ZN8ATTClass7centralEv>
    if (central) {
     a88:	ce 01       	movw	r24, r28
     a8a:	01 96       	adiw	r24, 0x01	; 1
     a8c:	f5 d1       	rcall	.+1002   	; 0xe78 <_ZN9BLEDevicecvbEv>
     a8e:	88 23       	and	r24, r24
     a90:	29 f0       	breq	.+10     	; 0xa9c <_ZN11LocalDevice4rssiEv+0x36>
        return central.rssi();
     a92:	ce 01       	movw	r24, r28
     a94:	01 96       	adiw	r24, 0x01	; 1
     a96:	e1 d1       	rcall	.+962    	; 0xe5a <_ZN9BLEDevice4rssiEv>
     a98:	8c 01       	movw	r16, r24
     a9a:	02 c0       	rjmp	.+4      	; 0xaa0 <_ZN11LocalDevice4rssiEv+0x3a>
    }
    return 127;
     a9c:	0f e7       	ldi	r16, 0x7F	; 127
    return  m_addrString;
}

int LocalDevice::rssi()
{
    BLEDevice central = g_att.central();
     a9e:	10 e0       	ldi	r17, 0x00	; 0
     aa0:	ce 01       	movw	r24, r28
     aa2:	01 96       	adiw	r24, 0x01	; 1
     aa4:	76 d1       	rcall	.+748    	; 0xd92 <_ZN9BLEDeviceD1Ev>
    if (central) {
        return central.rssi();
    }
    return 127;
}
     aa6:	c8 01       	movw	r24, r16
     aa8:	6c 96       	adiw	r28, 0x1c	; 28
     aaa:	0f b6       	in	r0, 0x3f	; 63
     aac:	f8 94       	cli
     aae:	de bf       	out	0x3e, r29	; 62
     ab0:	0f be       	out	0x3f, r0	; 63
     ab2:	cd bf       	out	0x3d, r28	; 61
     ab4:	df 91       	pop	r29
     ab6:	cf 91       	pop	r28
     ab8:	1f 91       	pop	r17
     aba:	0f 91       	pop	r16
     abc:	08 95       	ret

00000abe <_ZN12LocalService4typeEv>:
{
    LocalCharacteristic* localCharacteristic = characteristic.local();
    if (localCharacteristic) {
        addCharacteristic(localCharacteristic);
    }
}
     abe:	80 e0       	ldi	r24, 0x00	; 0
     ac0:	98 e2       	ldi	r25, 0x28	; 40
     ac2:	08 95       	ret

00000ac4 <_ZN12LocalServiceC1EPKc>:
     ac4:	cf 93       	push	r28
     ac6:	df 93       	push	r29
     ac8:	ec 01       	movw	r28, r24
     aca:	da d0       	rcall	.+436    	; 0xc80 <_ZN12BLEAttributeC1EPKc>
     acc:	8d e6       	ldi	r24, 0x6D	; 109
     ace:	91 e0       	ldi	r25, 0x01	; 1
     ad0:	99 83       	std	Y+1, r25	; 0x01
     ad2:	88 83       	st	Y, r24
     ad4:	18 8e       	std	Y+24, r1	; 0x18
     ad6:	1f 8a       	std	Y+23, r1	; 0x17
     ad8:	1a 8e       	std	Y+26, r1	; 0x1a
     ada:	19 8e       	std	Y+25, r1	; 0x19
     adc:	1c 8e       	std	Y+28, r1	; 0x1c
     ade:	1b 8e       	std	Y+27, r1	; 0x1b
     ae0:	1e 8e       	std	Y+30, r1	; 0x1e
     ae2:	1d 8e       	std	Y+29, r1	; 0x1d
     ae4:	18 a2       	std	Y+32, r1	; 0x20
     ae6:	1f 8e       	std	Y+31, r1	; 0x1f
     ae8:	df 91       	pop	r29
     aea:	cf 91       	pop	r28
     aec:	08 95       	ret

00000aee <_ZN12LocalService11startHandleEv>:
     aee:	fc 01       	movw	r30, r24
     af0:	87 89       	ldd	r24, Z+23	; 0x17
     af2:	90 8d       	ldd	r25, Z+24	; 0x18
     af4:	08 95       	ret

00000af6 <_ZN12LocalService9endHandleEv>:
     af6:	fc 01       	movw	r30, r24
     af8:	81 8d       	ldd	r24, Z+25	; 0x19
     afa:	92 8d       	ldd	r25, Z+26	; 0x1a
     afc:	08 95       	ret

00000afe <_ZN12LocalService14characteristicEj>:
     afe:	dc 01       	movw	r26, r24
     b00:	5b 96       	adiw	r26, 0x1b	; 27
     b02:	2d 91       	ld	r18, X+
     b04:	3c 91       	ld	r19, X
     b06:	5c 97       	sbiw	r26, 0x1c	; 28
     b08:	62 17       	cp	r22, r18
     b0a:	73 07       	cpc	r23, r19
     b0c:	98 f4       	brcc	.+38     	; 0xb34 <_ZN12LocalService14characteristicEj+0x36>
     b0e:	5d 96       	adiw	r26, 0x1d	; 29
     b10:	ed 91       	ld	r30, X+
     b12:	fc 91       	ld	r31, X
     b14:	5e 97       	sbiw	r26, 0x1e	; 30
     b16:	61 15       	cp	r22, r1
     b18:	71 05       	cpc	r23, r1
     b1a:	49 f0       	breq	.+18     	; 0xb2e <_ZN12LocalService14characteristicEj+0x30>
     b1c:	80 e0       	ldi	r24, 0x00	; 0
     b1e:	90 e0       	ldi	r25, 0x00	; 0
     b20:	02 80       	ldd	r0, Z+2	; 0x02
     b22:	f3 81       	ldd	r31, Z+3	; 0x03
     b24:	e0 2d       	mov	r30, r0
     b26:	01 96       	adiw	r24, 0x01	; 1
     b28:	68 17       	cp	r22, r24
     b2a:	79 07       	cpc	r23, r25
     b2c:	c9 f7       	brne	.-14     	; 0xb20 <_ZN12LocalService14characteristicEj+0x22>
     b2e:	80 81       	ld	r24, Z
     b30:	91 81       	ldd	r25, Z+1	; 0x01
     b32:	08 95       	ret
     b34:	80 e0       	ldi	r24, 0x00	; 0
     b36:	90 e0       	ldi	r25, 0x00	; 0
     b38:	08 95       	ret

00000b3a <_ZN12LocalService17addCharacteristicEP19LocalCharacteristic>:
     b3a:	0f 93       	push	r16
     b3c:	1f 93       	push	r17
     b3e:	cf 93       	push	r28
     b40:	df 93       	push	r29
     b42:	ec 01       	movw	r28, r24
     b44:	8b 01       	movw	r16, r22
     b46:	cb 01       	movw	r24, r22
     b48:	b0 d0       	rcall	.+352    	; 0xcaa <_ZN12BLEAttribute6retainEv>
     b4a:	84 e0       	ldi	r24, 0x04	; 4
     b4c:	90 e0       	ldi	r25, 0x00	; 0
     b4e:	0e 94 e4 21 	call	0x43c8	; 0x43c8 <_Znwj>
     b52:	fc 01       	movw	r30, r24
     b54:	13 82       	std	Z+3, r1	; 0x03
     b56:	12 82       	std	Z+2, r1	; 0x02
     b58:	11 83       	std	Z+1, r17	; 0x01
     b5a:	00 83       	st	Z, r16
     b5c:	2d 8d       	ldd	r18, Y+29	; 0x1d
     b5e:	3e 8d       	ldd	r19, Y+30	; 0x1e
     b60:	23 2b       	or	r18, r19
     b62:	19 f4       	brne	.+6      	; 0xb6a <_ZN12LocalService17addCharacteristicEP19LocalCharacteristic+0x30>
     b64:	9e 8f       	std	Y+30, r25	; 0x1e
     b66:	8d 8f       	std	Y+29, r24	; 0x1d
     b68:	04 c0       	rjmp	.+8      	; 0xb72 <_ZN12LocalService17addCharacteristicEP19LocalCharacteristic+0x38>
     b6a:	ef 8d       	ldd	r30, Y+31	; 0x1f
     b6c:	f8 a1       	ldd	r31, Y+32	; 0x20
     b6e:	93 83       	std	Z+3, r25	; 0x03
     b70:	82 83       	std	Z+2, r24	; 0x02
     b72:	98 a3       	std	Y+32, r25	; 0x20
     b74:	8f 8f       	std	Y+31, r24	; 0x1f
     b76:	8b 8d       	ldd	r24, Y+27	; 0x1b
     b78:	9c 8d       	ldd	r25, Y+28	; 0x1c
     b7a:	01 96       	adiw	r24, 0x01	; 1
     b7c:	9c 8f       	std	Y+28, r25	; 0x1c
     b7e:	8b 8f       	std	Y+27, r24	; 0x1b
     b80:	df 91       	pop	r29
     b82:	cf 91       	pop	r28
     b84:	1f 91       	pop	r17
     b86:	0f 91       	pop	r16
     b88:	08 95       	ret

00000b8a <_ZN11XLinkedListIP19LocalCharacteristicE5clearEv>:
        itemNode = itemNode->next;
    }
    return itemNode->data;
}

template <typename T> void XLinkedList<T>::clear()
     b8a:	ef 92       	push	r14
     b8c:	ff 92       	push	r15
     b8e:	0f 93       	push	r16
     b90:	1f 93       	push	r17
     b92:	cf 93       	push	r28
     b94:	df 93       	push	r29
     b96:	7c 01       	movw	r14, r24
{
    XLinkedListNode<T>* itemNode = m_root;
     b98:	fc 01       	movw	r30, r24
     b9a:	82 81       	ldd	r24, Z+2	; 0x02
     b9c:	93 81       	ldd	r25, Z+3	; 0x03
    for (unsigned int i = 0; i < m_size; i++) {
     b9e:	20 81       	ld	r18, Z
     ba0:	31 81       	ldd	r19, Z+1	; 0x01
     ba2:	23 2b       	or	r18, r19
     ba4:	81 f0       	breq	.+32     	; 0xbc6 <_ZN11XLinkedListIP19LocalCharacteristicE5clearEv+0x3c>
     ba6:	c0 e0       	ldi	r28, 0x00	; 0
     ba8:	d0 e0       	ldi	r29, 0x00	; 0
        XLinkedListNode<T>* n = itemNode;
        itemNode = itemNode->next;
     baa:	fc 01       	movw	r30, r24
     bac:	02 81       	ldd	r16, Z+2	; 0x02
     bae:	13 81       	ldd	r17, Z+3	; 0x03
        delete n;
     bb0:	0e 94 e6 21 	call	0x43cc	; 0x43cc <_ZdlPv>
}

template <typename T> void XLinkedList<T>::clear()
{
    XLinkedListNode<T>* itemNode = m_root;
    for (unsigned int i = 0; i < m_size; i++) {
     bb4:	21 96       	adiw	r28, 0x01	; 1
        XLinkedListNode<T>* n = itemNode;
        itemNode = itemNode->next;
     bb6:	80 2f       	mov	r24, r16
     bb8:	91 2f       	mov	r25, r17
}

template <typename T> void XLinkedList<T>::clear()
{
    XLinkedListNode<T>* itemNode = m_root;
    for (unsigned int i = 0; i < m_size; i++) {
     bba:	f7 01       	movw	r30, r14
     bbc:	20 81       	ld	r18, Z
     bbe:	31 81       	ldd	r19, Z+1	; 0x01
     bc0:	c2 17       	cp	r28, r18
     bc2:	d3 07       	cpc	r29, r19
     bc4:	90 f3       	brcs	.-28     	; 0xbaa <_ZN11XLinkedListIP19LocalCharacteristicE5clearEv+0x20>
        XLinkedListNode<T>* n = itemNode;
        itemNode = itemNode->next;
        delete n;
    }
    m_size = 0;
     bc6:	f7 01       	movw	r30, r14
     bc8:	11 82       	std	Z+1, r1	; 0x01
     bca:	10 82       	st	Z, r1
    m_root = NULL;
     bcc:	13 82       	std	Z+3, r1	; 0x03
     bce:	12 82       	std	Z+2, r1	; 0x02
    m_last = NULL;
     bd0:	15 82       	std	Z+5, r1	; 0x05
     bd2:	14 82       	std	Z+4, r1	; 0x04
}
     bd4:	df 91       	pop	r29
     bd6:	cf 91       	pop	r28
     bd8:	1f 91       	pop	r17
     bda:	0f 91       	pop	r16
     bdc:	ff 90       	pop	r15
     bde:	ef 90       	pop	r14
     be0:	08 95       	ret

00000be2 <_ZN12LocalServiceD1Ev>:
LocalService::LocalService(const char* uuid) : BLEAttribute(uuid), m_startHandle(0x0000), m_endHandle(0x0000)
{
    //
}

LocalService::~LocalService()
     be2:	ef 92       	push	r14
     be4:	ff 92       	push	r15
     be6:	0f 93       	push	r16
     be8:	1f 93       	push	r17
     bea:	cf 93       	push	r28
     bec:	df 93       	push	r29
     bee:	7c 01       	movw	r14, r24
     bf0:	8d e6       	ldi	r24, 0x6D	; 109
     bf2:	91 e0       	ldi	r25, 0x01	; 1
     bf4:	d7 01       	movw	r26, r14
     bf6:	11 96       	adiw	r26, 0x01	; 1
     bf8:	9c 93       	st	X, r25
     bfa:	8e 93       	st	-X, r24
{
    for (unsigned int i = 0; i < characteristicCount(); i++) {
     bfc:	5b 96       	adiw	r26, 0x1b	; 27
     bfe:	8d 91       	ld	r24, X+
     c00:	9c 91       	ld	r25, X
     c02:	5c 97       	sbiw	r26, 0x1c	; 28
     c04:	89 2b       	or	r24, r25
     c06:	e1 f0       	breq	.+56     	; 0xc40 <_ZN12LocalServiceD1Ev+0x5e>
     c08:	c0 e0       	ldi	r28, 0x00	; 0
     c0a:	d0 e0       	ldi	r29, 0x00	; 0
        LocalCharacteristic* c = characteristic(i);
     c0c:	be 01       	movw	r22, r28
     c0e:	c7 01       	movw	r24, r14
     c10:	76 df       	rcall	.-276    	; 0xafe <_ZN12LocalService14characteristicEj>
     c12:	8c 01       	movw	r16, r24
        if (c->release() <= 0) {
     c14:	52 d0       	rcall	.+164    	; 0xcba <_ZN12BLEAttribute7releaseEv>
     c16:	18 16       	cp	r1, r24
     c18:	19 06       	cpc	r1, r25
     c1a:	5c f0       	brlt	.+22     	; 0xc32 <_ZN12LocalServiceD1Ev+0x50>
     c1c:	01 15       	cp	r16, r1
            delete c;
     c1e:	11 05       	cpc	r17, r1
     c20:	41 f0       	breq	.+16     	; 0xc32 <_ZN12LocalServiceD1Ev+0x50>
     c22:	d8 01       	movw	r26, r16
     c24:	ed 91       	ld	r30, X+
     c26:	fc 91       	ld	r31, X
     c28:	02 80       	ldd	r0, Z+2	; 0x02
     c2a:	f3 81       	ldd	r31, Z+3	; 0x03
     c2c:	e0 2d       	mov	r30, r0
     c2e:	c8 01       	movw	r24, r16
     c30:	09 95       	icall
     c32:	21 96       	adiw	r28, 0x01	; 1
    //
}

LocalService::~LocalService()
{
    for (unsigned int i = 0; i < characteristicCount(); i++) {
     c34:	f7 01       	movw	r30, r14
     c36:	83 8d       	ldd	r24, Z+27	; 0x1b
     c38:	94 8d       	ldd	r25, Z+28	; 0x1c
     c3a:	c8 17       	cp	r28, r24
     c3c:	d9 07       	cpc	r29, r25
     c3e:	30 f3       	brcs	.-52     	; 0xc0c <_ZN12LocalServiceD1Ev+0x2a>
     c40:	e7 01       	movw	r28, r14
        LocalCharacteristic* c = characteristic(i);
        if (c->release() <= 0) {
            delete c;
        }
    }
    m_characteristics.clear();
     c42:	6b 96       	adiw	r28, 0x1b	; 27
     c44:	ce 01       	movw	r24, r28
     c46:	a1 df       	rcall	.-190    	; 0xb8a <_ZN11XLinkedListIP19LocalCharacteristicE5clearEv>
    //
}

template <typename T> XLinkedList<T>::~XLinkedList()
{
    clear();
     c48:	ce 01       	movw	r24, r28
     c4a:	9f df       	rcall	.-194    	; 0xb8a <_ZN11XLinkedListIP19LocalCharacteristicE5clearEv>
LocalService::LocalService(const char* uuid) : BLEAttribute(uuid), m_startHandle(0x0000), m_endHandle(0x0000)
{
    //
}

LocalService::~LocalService()
     c4c:	c7 01       	movw	r24, r14
     c4e:	11 d0       	rcall	.+34     	; 0xc72 <_ZN12BLEAttributeD1Ev>
     c50:	df 91       	pop	r29
        if (c->release() <= 0) {
            delete c;
        }
    }
    m_characteristics.clear();
}
     c52:	cf 91       	pop	r28
     c54:	1f 91       	pop	r17
     c56:	0f 91       	pop	r16
     c58:	ff 90       	pop	r15
     c5a:	ef 90       	pop	r14
     c5c:	08 95       	ret

00000c5e <_ZN12LocalServiceD0Ev>:
     c5e:	cf 93       	push	r28
LocalService::LocalService(const char* uuid) : BLEAttribute(uuid), m_startHandle(0x0000), m_endHandle(0x0000)
{
    //
}

LocalService::~LocalService()
     c60:	df 93       	push	r29
     c62:	ec 01       	movw	r28, r24
        if (c->release() <= 0) {
            delete c;
        }
    }
    m_characteristics.clear();
}
     c64:	be df       	rcall	.-132    	; 0xbe2 <_ZN12LocalServiceD1Ev>
     c66:	ce 01       	movw	r24, r28
     c68:	0e 94 e6 21 	call	0x43cc	; 0x43cc <_ZdlPv>
     c6c:	df 91       	pop	r29
     c6e:	cf 91       	pop	r28
     c70:	08 95       	ret

00000c72 <_ZN12BLEAttributeD1Ev>:
}

const char* BLEAttribute::uuid()
{
    return m_uuid.str();
}
     c72:	08 95       	ret

00000c74 <_ZN12BLEAttribute4typeEv>:
     c74:	80 e0       	ldi	r24, 0x00	; 0
     c76:	90 e0       	ldi	r25, 0x00	; 0
     c78:	08 95       	ret

00000c7a <_ZN12BLEAttributeD0Ev>:
     c7a:	0c 94 e6 21 	jmp	0x43cc	; 0x43cc <_ZdlPv>
     c7e:	08 95       	ret

00000c80 <_ZN12BLEAttributeC1EPKc>:
     c80:	cf 93       	push	r28
     c82:	df 93       	push	r29
     c84:	ec 01       	movw	r28, r24
     c86:	27 e7       	ldi	r18, 0x77	; 119
     c88:	31 e0       	ldi	r19, 0x01	; 1
     c8a:	fc 01       	movw	r30, r24
     c8c:	21 93       	st	Z+, r18
     c8e:	31 93       	st	Z+, r19
     c90:	cf 01       	movw	r24, r30
     c92:	ec d1       	rcall	.+984    	; 0x106c <_ZN7BLEUUIDC1EPKc>
     c94:	1e 8a       	std	Y+22, r1	; 0x16
     c96:	1d 8a       	std	Y+21, r1	; 0x15
     c98:	df 91       	pop	r29
     c9a:	cf 91       	pop	r28
     c9c:	08 95       	ret

00000c9e <_ZN12BLEAttribute8uuidDataEv>:

const uint8_t* BLEAttribute::uuidData()
{
    return m_uuid.data();
     c9e:	02 96       	adiw	r24, 0x02	; 2
     ca0:	50 c2       	rjmp	.+1184   	; 0x1142 <_ZN7BLEUUID4dataEv>
}
     ca2:	08 95       	ret

00000ca4 <_ZN12BLEAttribute10uuidLengthEv>:

uint8_t BLEAttribute::uuidLength()
{
    return m_uuid.length();
     ca4:	02 96       	adiw	r24, 0x02	; 2
     ca6:	4f c2       	rjmp	.+1182   	; 0x1146 <_ZN7BLEUUID6lengthEv>
}
     ca8:	08 95       	ret

00000caa <_ZN12BLEAttribute6retainEv>:
{
    return BATT_UNKNOWN;
}

int BLEAttribute::retain()
{
     caa:	fc 01       	movw	r30, r24
    m_refCount++;
     cac:	25 89       	ldd	r18, Z+21	; 0x15
     cae:	36 89       	ldd	r19, Z+22	; 0x16
     cb0:	c9 01       	movw	r24, r18
     cb2:	01 96       	adiw	r24, 0x01	; 1
     cb4:	96 8b       	std	Z+22, r25	; 0x16
     cb6:	85 8b       	std	Z+21, r24	; 0x15
    return m_refCount;
}
     cb8:	08 95       	ret

00000cba <_ZN12BLEAttribute7releaseEv>:

int BLEAttribute::release()
{
     cba:	fc 01       	movw	r30, r24
    m_refCount--;
     cbc:	25 89       	ldd	r18, Z+21	; 0x15
     cbe:	36 89       	ldd	r19, Z+22	; 0x16
     cc0:	c9 01       	movw	r24, r18
     cc2:	01 97       	sbiw	r24, 0x01	; 1
     cc4:	96 8b       	std	Z+22, r25	; 0x16
     cc6:	85 8b       	std	Z+21, r24	; 0x15
    return m_refCount;
}
     cc8:	08 95       	ret

00000cca <_ZN17BLECharacteristicD1Ev>:
{
    if (m_local) {
        return (*m_local)[offset];
    }
    return 0;
}
     cca:	cf 93       	push	r28
     ccc:	df 93       	push	r29
     cce:	fc 01       	movw	r30, r24
     cd0:	81 e8       	ldi	r24, 0x81	; 129
     cd2:	91 e0       	ldi	r25, 0x01	; 1
     cd4:	91 83       	std	Z+1, r25	; 0x01
     cd6:	80 83       	st	Z, r24
     cd8:	82 81       	ldd	r24, Z+2	; 0x02
     cda:	93 81       	ldd	r25, Z+3	; 0x03
     cdc:	00 97       	sbiw	r24, 0x00	; 0
     cde:	81 f0       	breq	.+32     	; 0xd00 <_ZN17BLECharacteristicD1Ev+0x36>
     ce0:	ef 01       	movw	r28, r30
     ce2:	eb df       	rcall	.-42     	; 0xcba <_ZN12BLEAttribute7releaseEv>
     ce4:	18 16       	cp	r1, r24
     ce6:	19 06       	cpc	r1, r25
     ce8:	5c f0       	brlt	.+22     	; 0xd00 <_ZN17BLECharacteristicD1Ev+0x36>
     cea:	8a 81       	ldd	r24, Y+2	; 0x02
     cec:	9b 81       	ldd	r25, Y+3	; 0x03
     cee:	00 97       	sbiw	r24, 0x00	; 0
     cf0:	39 f0       	breq	.+14     	; 0xd00 <_ZN17BLECharacteristicD1Ev+0x36>
     cf2:	dc 01       	movw	r26, r24
     cf4:	ed 91       	ld	r30, X+
     cf6:	fc 91       	ld	r31, X
     cf8:	02 80       	ldd	r0, Z+2	; 0x02
     cfa:	f3 81       	ldd	r31, Z+3	; 0x03
     cfc:	e0 2d       	mov	r30, r0
     cfe:	09 95       	icall
     d00:	df 91       	pop	r29
     d02:	cf 91       	pop	r28
     d04:	08 95       	ret

00000d06 <_ZN17BLECharacteristicD0Ev>:
     d06:	cf 93       	push	r28
     d08:	df 93       	push	r29
     d0a:	ec 01       	movw	r28, r24
     d0c:	de df       	rcall	.-68     	; 0xcca <_ZN17BLECharacteristicD1Ev>
     d0e:	ce 01       	movw	r24, r28
     d10:	0e 94 e6 21 	call	0x43cc	; 0x43cc <_ZdlPv>
     d14:	df 91       	pop	r29
     d16:	cf 91       	pop	r28
     d18:	08 95       	ret

00000d1a <_ZN17BLECharacteristicC1EP19LocalCharacteristic>:
     d1a:	21 e8       	ldi	r18, 0x81	; 129
     d1c:	31 e0       	ldi	r19, 0x01	; 1
     d1e:	fc 01       	movw	r30, r24
     d20:	31 83       	std	Z+1, r19	; 0x01
     d22:	20 83       	st	Z, r18
     d24:	73 83       	std	Z+3, r23	; 0x03
     d26:	62 83       	std	Z+2, r22	; 0x02
     d28:	61 15       	cp	r22, r1
     d2a:	71 05       	cpc	r23, r1
     d2c:	11 f0       	breq	.+4      	; 0xd32 <_ZN17BLECharacteristicC1EP19LocalCharacteristic+0x18>
     d2e:	cb 01       	movw	r24, r22
     d30:	bc cf       	rjmp	.-136    	; 0xcaa <_ZN12BLEAttribute6retainEv>
     d32:	08 95       	ret

00000d34 <_ZN17BLECharacteristicC1EPKchib>:
     d34:	af 92       	push	r10
     d36:	bf 92       	push	r11
     d38:	cf 92       	push	r12
     d3a:	df 92       	push	r13
     d3c:	ef 92       	push	r14
     d3e:	ff 92       	push	r15
     d40:	0f 93       	push	r16
     d42:	1f 93       	push	r17
     d44:	cf 93       	push	r28
     d46:	df 93       	push	r29
     d48:	7c 01       	movw	r14, r24
     d4a:	6b 01       	movw	r12, r22
     d4c:	14 2f       	mov	r17, r20
     d4e:	59 01       	movw	r10, r18
     d50:	82 e3       	ldi	r24, 0x32	; 50
     d52:	90 e0       	ldi	r25, 0x00	; 0
     d54:	0e 94 e4 21 	call	0x43c8	; 0x43c8 <_Znwj>
     d58:	ec 01       	movw	r28, r24
     d5a:	95 01       	movw	r18, r10
     d5c:	41 2f       	mov	r20, r17
     d5e:	b6 01       	movw	r22, r12
     d60:	cf db       	rcall	.-2146   	; 0x500 <_ZN19LocalCharacteristicC1EPKchib>
     d62:	be 01       	movw	r22, r28
     d64:	c7 01       	movw	r24, r14
     d66:	d9 df       	rcall	.-78     	; 0xd1a <_ZN17BLECharacteristicC1EP19LocalCharacteristic>
     d68:	df 91       	pop	r29
     d6a:	cf 91       	pop	r28
     d6c:	1f 91       	pop	r17
     d6e:	0f 91       	pop	r16
     d70:	ff 90       	pop	r15
     d72:	ef 90       	pop	r14
     d74:	df 90       	pop	r13
     d76:	cf 90       	pop	r12
     d78:	bf 90       	pop	r11
     d7a:	af 90       	pop	r10
     d7c:	08 95       	ret

00000d7e <_ZN17BLECharacteristic10writeValueEPKhi>:

int BLECharacteristic::writeValue(const uint8_t value[], int length)
{
    if (m_local) {
     d7e:	fc 01       	movw	r30, r24
     d80:	82 81       	ldd	r24, Z+2	; 0x02
     d82:	93 81       	ldd	r25, Z+3	; 0x03
     d84:	00 97       	sbiw	r24, 0x00	; 0
     d86:	11 f0       	breq	.+4      	; 0xd8c <_ZN17BLECharacteristic10writeValueEPKhi+0xe>
        return m_local->writeValue(value, length);
     d88:	fc ca       	rjmp	.-2568   	; 0x382 <_ZN19LocalCharacteristic10writeValueEPKhi>
     d8a:	08 95       	ret
    }
    return 0;
     d8c:	80 e0       	ldi	r24, 0x00	; 0
     d8e:	90 e0       	ldi	r25, 0x00	; 0
}
     d90:	08 95       	ret

00000d92 <_ZN9BLEDeviceD1Ev>:
BLEDevice::BLEDevice(uint16_t handle, uint8_t address[6]) : m_handle(handle)
{
    memcpy(m_address, address, sizeof(m_address));
}

BLEDevice::~BLEDevice()
     d92:	08 95       	ret

00000d94 <_ZN9BLEDevice4pollEv>:
    //
}

void BLEDevice::poll()
{
    g_hci.poll();
     d94:	87 e6       	ldi	r24, 0x67	; 103
     d96:	93 e0       	ldi	r25, 0x03	; 3
     d98:	0c 94 71 19 	jmp	0x32e2	; 0x32e2 <_ZN8HCIClass4pollEv>
     d9c:	08 95       	ret

00000d9e <_ZN9BLEDevice4pollEm>:
}

void BLEDevice::poll(unsigned long timeout)
{
    g_hci.poll(timeout);
     d9e:	87 e6       	ldi	r24, 0x67	; 103
     da0:	93 e0       	ldi	r25, 0x03	; 3
     da2:	0c 94 01 19 	jmp	0x3202	; 0x3202 <_ZN8HCIClass4pollEm>
     da6:	08 95       	ret

00000da8 <_ZN9BLEDevice9connectedEv>:
}

bool BLEDevice::connected()
{
     da8:	cf 93       	push	r28
     daa:	df 93       	push	r29
     dac:	ec 01       	movw	r28, r24
    g_hci.poll();
     dae:	87 e6       	ldi	r24, 0x67	; 103
     db0:	93 e0       	ldi	r25, 0x03	; 3
     db2:	0e 94 71 19 	call	0x32e2	; 0x32e2 <_ZN8HCIClass4pollEv>
    if (!(*this)) {
     db6:	e8 81       	ld	r30, Y
     db8:	f9 81       	ldd	r31, Y+1	; 0x01
     dba:	00 88       	ldd	r0, Z+16	; 0x10
     dbc:	f1 89       	ldd	r31, Z+17	; 0x11
     dbe:	e0 2d       	mov	r30, r0
     dc0:	ce 01       	movw	r24, r28
     dc2:	09 95       	icall
     dc4:	88 23       	and	r24, r24
     dc6:	41 f0       	breq	.+16     	; 0xdd8 <_ZN9BLEDevice9connectedEv+0x30>
        return false;
    }
    return g_att.connected(m_handle, m_address);
     dc8:	ae 01       	movw	r20, r28
     dca:	4a 5e       	subi	r20, 0xEA	; 234
     dcc:	5f 4f       	sbci	r21, 0xFF	; 255
     dce:	6c 89       	ldd	r22, Y+20	; 0x14
     dd0:	7d 89       	ldd	r23, Y+21	; 0x15
     dd2:	8a e5       	ldi	r24, 0x5A	; 90
     dd4:	92 e0       	ldi	r25, 0x02	; 2
     dd6:	00 d3       	rcall	.+1536   	; 0x13d8 <_ZN8ATTClass9connectedEjPKh>
}
     dd8:	df 91       	pop	r29
     dda:	cf 91       	pop	r28
     ddc:	08 95       	ret

00000dde <_ZN9BLEDevice10disconnectEv>:

bool BLEDevice::disconnect()
{
    if (m_handle != 0xffff) {
     dde:	fc 01       	movw	r30, r24
     de0:	64 89       	ldd	r22, Z+20	; 0x14
     de2:	75 89       	ldd	r23, Z+21	; 0x15
     de4:	6f 3f       	cpi	r22, 0xFF	; 255
     de6:	ff ef       	ldi	r31, 0xFF	; 255
     de8:	7f 07       	cpc	r23, r31
     dea:	49 f0       	breq	.+18     	; 0xdfe <_ZN9BLEDevice10disconnectEv+0x20>
        return g_hci.disconnect(m_handle);
     dec:	87 e6       	ldi	r24, 0x67	; 103
     dee:	93 e0       	ldi	r25, 0x03	; 3
     df0:	0e 94 04 1c 	call	0x3808	; 0x3808 <_ZN8HCIClass10disconnectEj>
     df4:	21 e0       	ldi	r18, 0x01	; 1
     df6:	89 2b       	or	r24, r25
     df8:	19 f4       	brne	.+6      	; 0xe00 <_ZN9BLEDevice10disconnectEv+0x22>
     dfa:	20 e0       	ldi	r18, 0x00	; 0
     dfc:	01 c0       	rjmp	.+2      	; 0xe00 <_ZN9BLEDevice10disconnectEv+0x22>
    }
    return false;
     dfe:	20 e0       	ldi	r18, 0x00	; 0
}
     e00:	82 2f       	mov	r24, r18
     e02:	08 95       	ret

00000e04 <_ZN9BLEDevice7addressEv>:

char* BLEDevice::address()
{
     e04:	cf 93       	push	r28
     e06:	df 93       	push	r29
     e08:	fc 01       	movw	r30, r24
    sprintf(m_addrString, "%02x:%02x:%02x:%02x:%02x:%02x", m_address[5], m_address[4], m_address[3], m_address[2], m_address[1], m_address[0]);
     e0a:	ec 01       	movw	r28, r24
     e0c:	22 96       	adiw	r28, 0x02	; 2
     e0e:	86 89       	ldd	r24, Z+22	; 0x16
     e10:	1f 92       	push	r1
     e12:	8f 93       	push	r24
     e14:	87 89       	ldd	r24, Z+23	; 0x17
     e16:	1f 92       	push	r1
     e18:	8f 93       	push	r24
     e1a:	80 8d       	ldd	r24, Z+24	; 0x18
     e1c:	1f 92       	push	r1
     e1e:	8f 93       	push	r24
     e20:	81 8d       	ldd	r24, Z+25	; 0x19
     e22:	1f 92       	push	r1
     e24:	8f 93       	push	r24
     e26:	82 8d       	ldd	r24, Z+26	; 0x1a
     e28:	1f 92       	push	r1
     e2a:	8f 93       	push	r24
     e2c:	83 8d       	ldd	r24, Z+27	; 0x1b
     e2e:	1f 92       	push	r1
     e30:	8f 93       	push	r24
     e32:	81 e3       	ldi	r24, 0x31	; 49
     e34:	91 e0       	ldi	r25, 0x01	; 1
     e36:	9f 93       	push	r25
     e38:	8f 93       	push	r24
     e3a:	df 93       	push	r29
     e3c:	cf 93       	push	r28
     e3e:	0e 94 f8 29 	call	0x53f0	; 0x53f0 <sprintf>
    return  m_addrString;
     e42:	8d b7       	in	r24, 0x3d	; 61
     e44:	9e b7       	in	r25, 0x3e	; 62
     e46:	40 96       	adiw	r24, 0x10	; 16
     e48:	0f b6       	in	r0, 0x3f	; 63
     e4a:	f8 94       	cli
     e4c:	9e bf       	out	0x3e, r25	; 62
     e4e:	0f be       	out	0x3f, r0	; 63
     e50:	8d bf       	out	0x3d, r24	; 61
}
     e52:	ce 01       	movw	r24, r28
     e54:	df 91       	pop	r29
     e56:	cf 91       	pop	r28
     e58:	08 95       	ret

00000e5a <_ZN9BLEDevice4rssiEv>:

int BLEDevice::rssi()
{
    if (m_handle != 0xffff) {
     e5a:	fc 01       	movw	r30, r24
     e5c:	64 89       	ldd	r22, Z+20	; 0x14
     e5e:	75 89       	ldd	r23, Z+21	; 0x15
     e60:	6f 3f       	cpi	r22, 0xFF	; 255
     e62:	ff ef       	ldi	r31, 0xFF	; 255
     e64:	7f 07       	cpc	r23, r31
     e66:	29 f0       	breq	.+10     	; 0xe72 <_ZN9BLEDevice4rssiEv+0x18>
        return g_hci.readRssi(m_handle);
     e68:	87 e6       	ldi	r24, 0x67	; 103
     e6a:	93 e0       	ldi	r25, 0x03	; 3
     e6c:	0c 94 f1 1a 	jmp	0x35e2	; 0x35e2 <_ZN8HCIClass8readRssiEj>
     e70:	08 95       	ret
    }
    return 127;
     e72:	8f e7       	ldi	r24, 0x7F	; 127
     e74:	90 e0       	ldi	r25, 0x00	; 0
}
     e76:	08 95       	ret

00000e78 <_ZN9BLEDevicecvbEv>:

BLEDevice::operator bool()
{
     e78:	cf 93       	push	r28
     e7a:	df 93       	push	r29
     e7c:	00 d0       	rcall	.+0      	; 0xe7e <_ZN9BLEDevicecvbEv+0x6>
     e7e:	00 d0       	rcall	.+0      	; 0xe80 <_ZN9BLEDevicecvbEv+0x8>
     e80:	00 d0       	rcall	.+0      	; 0xe82 <_ZN9BLEDevicecvbEv+0xa>
     e82:	cd b7       	in	r28, 0x3d	; 61
     e84:	de b7       	in	r29, 0x3e	; 62
    uint8_t zeros[6] = { 0x00, 0x00, 0x00, 0x00, 0x00, 0x00, };
     e86:	fe 01       	movw	r30, r28
     e88:	31 96       	adiw	r30, 0x01	; 1
     e8a:	26 e0       	ldi	r18, 0x06	; 6
     e8c:	df 01       	movw	r26, r30
     e8e:	1d 92       	st	X+, r1
     e90:	2a 95       	dec	r18
     e92:	e9 f7       	brne	.-6      	; 0xe8e <_ZN9BLEDevicecvbEv+0x16>
    return ((m_handle != 0xffff) && memcmp(m_address, zeros, sizeof(zeros)) != 0);
     e94:	fc 01       	movw	r30, r24
     e96:	24 89       	ldd	r18, Z+20	; 0x14
     e98:	35 89       	ldd	r19, Z+21	; 0x15
     e9a:	2f 3f       	cpi	r18, 0xFF	; 255
     e9c:	3f 4f       	sbci	r19, 0xFF	; 255
     e9e:	69 f0       	breq	.+26     	; 0xeba <_ZN9BLEDevicecvbEv+0x42>
     ea0:	46 e0       	ldi	r20, 0x06	; 6
     ea2:	50 e0       	ldi	r21, 0x00	; 0
     ea4:	be 01       	movw	r22, r28
     ea6:	6f 5f       	subi	r22, 0xFF	; 255
     ea8:	7f 4f       	sbci	r23, 0xFF	; 255
     eaa:	46 96       	adiw	r24, 0x16	; 22
     eac:	0e 94 94 29 	call	0x5328	; 0x5328 <memcmp>
     eb0:	21 e0       	ldi	r18, 0x01	; 1
     eb2:	89 2b       	or	r24, r25
     eb4:	19 f4       	brne	.+6      	; 0xebc <_ZN9BLEDevicecvbEv+0x44>
     eb6:	20 e0       	ldi	r18, 0x00	; 0
     eb8:	01 c0       	rjmp	.+2      	; 0xebc <_ZN9BLEDevicecvbEv+0x44>
     eba:	20 e0       	ldi	r18, 0x00	; 0
}
     ebc:	82 2f       	mov	r24, r18
     ebe:	26 96       	adiw	r28, 0x06	; 6
     ec0:	0f b6       	in	r0, 0x3f	; 63
     ec2:	f8 94       	cli
     ec4:	de bf       	out	0x3e, r29	; 62
     ec6:	0f be       	out	0x3f, r0	; 63
     ec8:	cd bf       	out	0x3d, r28	; 61
     eca:	df 91       	pop	r29
     ecc:	cf 91       	pop	r28
     ece:	08 95       	ret

00000ed0 <_ZN9BLEDeviceeqERS_>:

bool BLEDevice::operator==(BLEDevice& rhs)
{
    return ((m_handle == rhs.m_handle) && memcmp(m_address, rhs.m_address, sizeof(m_address)) == 0);
     ed0:	fc 01       	movw	r30, r24
     ed2:	44 89       	ldd	r20, Z+20	; 0x14
     ed4:	55 89       	ldd	r21, Z+21	; 0x15
     ed6:	fb 01       	movw	r30, r22
     ed8:	24 89       	ldd	r18, Z+20	; 0x14
     eda:	35 89       	ldd	r19, Z+21	; 0x15
     edc:	42 17       	cp	r20, r18
     ede:	53 07       	cpc	r21, r19
     ee0:	61 f4       	brne	.+24     	; 0xefa <_ZN9BLEDeviceeqERS_+0x2a>
     ee2:	6a 5e       	subi	r22, 0xEA	; 234
     ee4:	7f 4f       	sbci	r23, 0xFF	; 255
     ee6:	46 e0       	ldi	r20, 0x06	; 6
     ee8:	50 e0       	ldi	r21, 0x00	; 0
     eea:	46 96       	adiw	r24, 0x16	; 22
     eec:	0e 94 94 29 	call	0x5328	; 0x5328 <memcmp>
     ef0:	21 e0       	ldi	r18, 0x01	; 1
     ef2:	89 2b       	or	r24, r25
     ef4:	19 f0       	breq	.+6      	; 0xefc <_ZN9BLEDeviceeqERS_+0x2c>
     ef6:	20 e0       	ldi	r18, 0x00	; 0
     ef8:	01 c0       	rjmp	.+2      	; 0xefc <_ZN9BLEDeviceeqERS_+0x2c>
     efa:	20 e0       	ldi	r18, 0x00	; 0
}
     efc:	82 2f       	mov	r24, r18
     efe:	08 95       	ret

00000f00 <_ZN9BLEDeviceneERS_>:

bool BLEDevice::operator!=(BLEDevice& rhs)
{
    return ((m_handle != rhs.m_handle) || memcmp(m_address, rhs.m_address, sizeof(m_address)) != 0);
     f00:	fc 01       	movw	r30, r24
     f02:	44 89       	ldd	r20, Z+20	; 0x14
     f04:	55 89       	ldd	r21, Z+21	; 0x15
     f06:	fb 01       	movw	r30, r22
     f08:	24 89       	ldd	r18, Z+20	; 0x14
     f0a:	35 89       	ldd	r19, Z+21	; 0x15
     f0c:	42 17       	cp	r20, r18
     f0e:	53 07       	cpc	r21, r19
     f10:	61 f4       	brne	.+24     	; 0xf2a <_ZN9BLEDeviceneERS_+0x2a>
     f12:	6a 5e       	subi	r22, 0xEA	; 234
     f14:	7f 4f       	sbci	r23, 0xFF	; 255
     f16:	46 e0       	ldi	r20, 0x06	; 6
     f18:	50 e0       	ldi	r21, 0x00	; 0
     f1a:	46 96       	adiw	r24, 0x16	; 22
     f1c:	0e 94 94 29 	call	0x5328	; 0x5328 <memcmp>
     f20:	21 e0       	ldi	r18, 0x01	; 1
     f22:	89 2b       	or	r24, r25
     f24:	19 f4       	brne	.+6      	; 0xf2c <_ZN9BLEDeviceneERS_+0x2c>
     f26:	20 e0       	ldi	r18, 0x00	; 0
     f28:	01 c0       	rjmp	.+2      	; 0xf2c <_ZN9BLEDeviceneERS_+0x2c>
     f2a:	21 e0       	ldi	r18, 0x01	; 1
}
     f2c:	82 2f       	mov	r24, r18
     f2e:	08 95       	ret

00000f30 <_ZN9BLEDeviceD0Ev>:
}

BLEDevice::~BLEDevice()
{
    //
}
     f30:	0c 94 e6 21 	jmp	0x43cc	; 0x43cc <_ZdlPv>
     f34:	08 95       	ret

00000f36 <_ZN9BLEDeviceC1Ev>:
#include <string.h>
#include "protocol/HCI.h"
#include "protocol/ATT.h"
#include "profile/BLEDevice.h"

BLEDevice::BLEDevice() : m_handle(0xffff)
     f36:	29 e8       	ldi	r18, 0x89	; 137
     f38:	31 e0       	ldi	r19, 0x01	; 1
     f3a:	dc 01       	movw	r26, r24
     f3c:	11 96       	adiw	r26, 0x01	; 1
     f3e:	3c 93       	st	X, r19
     f40:	2e 93       	st	-X, r18
     f42:	2f ef       	ldi	r18, 0xFF	; 255
     f44:	3f ef       	ldi	r19, 0xFF	; 255
     f46:	55 96       	adiw	r26, 0x15	; 21
     f48:	3c 93       	st	X, r19
     f4a:	2e 93       	st	-X, r18
     f4c:	54 97       	sbiw	r26, 0x14	; 20
{
    memset(m_address, 0x00, sizeof(m_address));
     f4e:	fc 01       	movw	r30, r24
     f50:	76 96       	adiw	r30, 0x16	; 22
     f52:	26 e0       	ldi	r18, 0x06	; 6
     f54:	df 01       	movw	r26, r30
     f56:	1d 92       	st	X+, r1
     f58:	2a 95       	dec	r18
     f5a:	e9 f7       	brne	.-6      	; 0xf56 <_ZN9BLEDeviceC1Ev+0x20>
     f5c:	08 95       	ret

00000f5e <_ZN9BLEDeviceC1EjPh>:
}

BLEDevice::BLEDevice(uint16_t handle, uint8_t address[6]) : m_handle(handle)
     f5e:	dc 01       	movw	r26, r24
     f60:	89 e8       	ldi	r24, 0x89	; 137
     f62:	91 e0       	ldi	r25, 0x01	; 1
     f64:	11 96       	adiw	r26, 0x01	; 1
     f66:	9c 93       	st	X, r25
     f68:	8e 93       	st	-X, r24
     f6a:	55 96       	adiw	r26, 0x15	; 21
     f6c:	7c 93       	st	X, r23
     f6e:	6e 93       	st	-X, r22
     f70:	54 97       	sbiw	r26, 0x14	; 20
{
    memcpy(m_address, address, sizeof(m_address));
     f72:	56 96       	adiw	r26, 0x16	; 22
     f74:	86 e0       	ldi	r24, 0x06	; 6
     f76:	fa 01       	movw	r30, r20
     f78:	01 90       	ld	r0, Z+
     f7a:	0d 92       	st	X+, r0
     f7c:	8a 95       	dec	r24
     f7e:	e1 f7       	brne	.-8      	; 0xf78 <_ZN9BLEDeviceC1EjPh+0x1a>
     f80:	08 95       	ret

00000f82 <_ZN10BLEServiceD1Ev>:
}

BLEService::BLEService(LocalService* local) : m_local(local)
{
    if (m_local) {
        m_local->retain();
     f82:	cf 93       	push	r28
     f84:	df 93       	push	r29
     f86:	fc 01       	movw	r30, r24
     f88:	83 ea       	ldi	r24, 0xA3	; 163
     f8a:	91 e0       	ldi	r25, 0x01	; 1
     f8c:	91 83       	std	Z+1, r25	; 0x01
     f8e:	80 83       	st	Z, r24
     f90:	82 81       	ldd	r24, Z+2	; 0x02
     f92:	93 81       	ldd	r25, Z+3	; 0x03
     f94:	00 97       	sbiw	r24, 0x00	; 0
     f96:	81 f0       	breq	.+32     	; 0xfb8 <_ZN10BLEServiceD1Ev+0x36>
     f98:	ef 01       	movw	r28, r30
     f9a:	8f de       	rcall	.-738    	; 0xcba <_ZN12BLEAttribute7releaseEv>
     f9c:	18 16       	cp	r1, r24
     f9e:	19 06       	cpc	r1, r25
     fa0:	5c f0       	brlt	.+22     	; 0xfb8 <_ZN10BLEServiceD1Ev+0x36>
     fa2:	8a 81       	ldd	r24, Y+2	; 0x02
     fa4:	9b 81       	ldd	r25, Y+3	; 0x03
     fa6:	00 97       	sbiw	r24, 0x00	; 0
     fa8:	39 f0       	breq	.+14     	; 0xfb8 <_ZN10BLEServiceD1Ev+0x36>
     faa:	dc 01       	movw	r26, r24
     fac:	ed 91       	ld	r30, X+
     fae:	fc 91       	ld	r31, X
     fb0:	02 80       	ldd	r0, Z+2	; 0x02
     fb2:	f3 81       	ldd	r31, Z+3	; 0x03
     fb4:	e0 2d       	mov	r30, r0
     fb6:	09 95       	icall
     fb8:	df 91       	pop	r29
     fba:	cf 91       	pop	r28
     fbc:	08 95       	ret

00000fbe <_ZN10BLEServiceD0Ev>:
     fbe:	cf 93       	push	r28
     fc0:	df 93       	push	r29
     fc2:	ec 01       	movw	r28, r24
     fc4:	de df       	rcall	.-68     	; 0xf82 <_ZN10BLEServiceD1Ev>
     fc6:	ce 01       	movw	r24, r28
     fc8:	0e 94 e6 21 	call	0x43cc	; 0x43cc <_ZdlPv>
     fcc:	df 91       	pop	r29
     fce:	cf 91       	pop	r28
     fd0:	08 95       	ret

00000fd2 <_ZN10BLEServiceC1EPKc>:
    }
}

BLEService::BLEService(const char* uuid) : BLEService(new LocalService(uuid))
     fd2:	ef 92       	push	r14
     fd4:	ff 92       	push	r15
     fd6:	0f 93       	push	r16
     fd8:	1f 93       	push	r17
     fda:	cf 93       	push	r28
     fdc:	df 93       	push	r29
     fde:	8c 01       	movw	r16, r24
     fe0:	7b 01       	movw	r14, r22
     fe2:	81 e2       	ldi	r24, 0x21	; 33
     fe4:	90 e0       	ldi	r25, 0x00	; 0
     fe6:	0e 94 e4 21 	call	0x43c8	; 0x43c8 <_Znwj>
     fea:	ec 01       	movw	r28, r24
     fec:	b7 01       	movw	r22, r14
     fee:	6a dd       	rcall	.-1324   	; 0xac4 <_ZN12LocalServiceC1EPKc>
BLEService::BLEService() : BLEService((LocalService*)NULL)
{
    //
}

BLEService::BLEService(LocalService* local) : m_local(local)
     ff0:	83 ea       	ldi	r24, 0xA3	; 163
     ff2:	91 e0       	ldi	r25, 0x01	; 1
     ff4:	f8 01       	movw	r30, r16
     ff6:	91 83       	std	Z+1, r25	; 0x01
     ff8:	80 83       	st	Z, r24
     ffa:	d3 83       	std	Z+3, r29	; 0x03
     ffc:	c2 83       	std	Z+2, r28	; 0x02
{
    if (m_local) {
     ffe:	20 97       	sbiw	r28, 0x00	; 0
    1000:	11 f0       	breq	.+4      	; 0x1006 <_ZN10BLEServiceC1EPKc+0x34>
        m_local->retain();
    1002:	ce 01       	movw	r24, r28
    1004:	52 de       	rcall	.-860    	; 0xcaa <_ZN12BLEAttribute6retainEv>
}

BLEService::BLEService(const char* uuid) : BLEService(new LocalService(uuid))
{
    //
}
    1006:	df 91       	pop	r29
    1008:	cf 91       	pop	r28
    100a:	1f 91       	pop	r17
    100c:	0f 91       	pop	r16
    100e:	ff 90       	pop	r15
    1010:	ef 90       	pop	r14
    1012:	08 95       	ret

00001014 <_ZN22BLETypedCharacteristicIhEC1EPKch>:
    T   valueBE(void);
private:
    T   byteSwap(T value);
};

template<typename T> BLETypedCharacteristic<T>::BLETypedCharacteristic(const char* uuid, unsigned char properties) : BLECharacteristic(uuid, properties, sizeof(T), true)
    1014:	ef 92       	push	r14
    1016:	ff 92       	push	r15
    1018:	0f 93       	push	r16
    101a:	cf 93       	push	r28
    101c:	df 93       	push	r29
    101e:	1f 92       	push	r1
    1020:	cd b7       	in	r28, 0x3d	; 61
    1022:	de b7       	in	r29, 0x3e	; 62
    1024:	7c 01       	movw	r14, r24
    1026:	01 e0       	ldi	r16, 0x01	; 1
    1028:	21 e0       	ldi	r18, 0x01	; 1
    102a:	30 e0       	ldi	r19, 0x00	; 0
    102c:	83 de       	rcall	.-762    	; 0xd34 <_ZN17BLECharacteristicC1EPKchib>
    102e:	84 e1       	ldi	r24, 0x14	; 20
    1030:	91 e0       	ldi	r25, 0x01	; 1
    1032:	f7 01       	movw	r30, r14
    1034:	91 83       	std	Z+1, r25	; 0x01
    1036:	80 83       	st	Z, r24
    1038:	19 82       	std	Y+1, r1	; 0x01
    writeValue(value);
}

template<typename T> int BLETypedCharacteristic<T>::writeValue(T value)
{
    return BLECharacteristic::writeValue((uint8_t*)&value, sizeof(T));
    103a:	41 e0       	ldi	r20, 0x01	; 1
    103c:	50 e0       	ldi	r21, 0x00	; 0
    103e:	be 01       	movw	r22, r28
    1040:	6f 5f       	subi	r22, 0xFF	; 255
    1042:	7f 4f       	sbci	r23, 0xFF	; 255
    1044:	c7 01       	movw	r24, r14
    1046:	9b de       	rcall	.-714    	; 0xd7e <_ZN17BLECharacteristic10writeValueEPKhi>
template<typename T> BLETypedCharacteristic<T>::BLETypedCharacteristic(const char* uuid, unsigned char properties) : BLECharacteristic(uuid, properties, sizeof(T), true)
{
    T value;
    memset(&value, 0x00, sizeof(value));
    writeValue(value);
}
    1048:	0f 90       	pop	r0
    104a:	df 91       	pop	r29
    104c:	cf 91       	pop	r28
    104e:	0f 91       	pop	r16
    1050:	ff 90       	pop	r15
    1052:	ef 90       	pop	r14
    1054:	08 95       	ret

00001056 <_ZN29BLEUnsignedCharCharacteristicC1EPKch>:
#include "BLETypedCharacteristics.h"

BLEBoolCharacteristic::BLEBoolCharacteristic(const char* uuid, unsigned char properties) :       BLETypedCharacteristic<bool>(uuid, properties) { }
BLEBooleanCharacteristic::BLEBooleanCharacteristic(const char* uuid, unsigned char properties) : BLETypedCharacteristic<bool>(uuid, properties) { }
BLECharCharacteristic::BLECharCharacteristic(const char* uuid, unsigned char properties) :       BLETypedCharacteristic<char>(uuid, properties) { }
BLEUnsignedCharCharacteristic::BLEUnsignedCharCharacteristic(const char* uuid, unsigned char properties)   : BLETypedCharacteristic<unsigned char>(uuid, properties) { }
    1056:	cf 93       	push	r28
    1058:	df 93       	push	r29
    105a:	ec 01       	movw	r28, r24
    105c:	db df       	rcall	.-74     	; 0x1014 <_ZN22BLETypedCharacteristicIhEC1EPKch>
    105e:	8b ea       	ldi	r24, 0xAB	; 171
    1060:	91 e0       	ldi	r25, 0x01	; 1
    1062:	99 83       	std	Y+1, r25	; 0x01
    1064:	88 83       	st	Y, r24
    1066:	df 91       	pop	r29
    1068:	cf 91       	pop	r28
    106a:	08 95       	ret

0000106c <_ZN7BLEUUIDC1EPKc>:
}

const char* BLEUUID::str()
{
    return m_str;
}
    106c:	af 92       	push	r10
    106e:	bf 92       	push	r11
    1070:	df 92       	push	r13
    1072:	ef 92       	push	r14
    1074:	ff 92       	push	r15
    1076:	0f 93       	push	r16
    1078:	1f 93       	push	r17
    107a:	cf 93       	push	r28
    107c:	df 93       	push	r29
    107e:	00 d0       	rcall	.+0      	; 0x1080 <_ZN7BLEUUIDC1EPKc+0x14>
    1080:	1f 92       	push	r1
    1082:	cd b7       	in	r28, 0x3d	; 61
    1084:	de b7       	in	r29, 0x3e	; 62
    1086:	7c 01       	movw	r14, r24
    1088:	5b 01       	movw	r10, r22
    108a:	fc 01       	movw	r30, r24
    108c:	61 93       	st	Z+, r22
    108e:	71 93       	st	Z+, r23
    1090:	19 82       	std	Y+1, r1	; 0x01
    1092:	1a 82       	std	Y+2, r1	; 0x02
    1094:	1b 82       	std	Y+3, r1	; 0x03
    1096:	80 e1       	ldi	r24, 0x10	; 16
    1098:	df 01       	movw	r26, r30
    109a:	1d 92       	st	X+, r1
    109c:	8a 95       	dec	r24
    109e:	e9 f7       	brne	.-6      	; 0x109a <_ZN7BLEUUIDC1EPKc+0x2e>
    10a0:	f7 01       	movw	r30, r14
    10a2:	12 8a       	std	Z+18, r1	; 0x12
    10a4:	fb 01       	movw	r30, r22
    10a6:	01 90       	ld	r0, Z+
    10a8:	00 20       	and	r0, r0
    10aa:	e9 f7       	brne	.-6      	; 0x10a6 <_ZN7BLEUUIDC1EPKc+0x3a>
    10ac:	8f 01       	movw	r16, r30
    10ae:	06 1b       	sub	r16, r22
    10b0:	17 0b       	sbc	r17, r23
    10b2:	02 50       	subi	r16, 0x02	; 2
    10b4:	11 09       	sbc	r17, r1
    10b6:	82 f1       	brmi	.+96     	; 0x1118 <__stack+0x19>
    10b8:	d1 2c       	mov	r13, r1
    10ba:	06 c0       	rjmp	.+12     	; 0x10c8 <_ZN7BLEUUIDC1EPKc+0x5c>
    10bc:	d7 01       	movw	r26, r14
    10be:	52 96       	adiw	r26, 0x12	; 18
    10c0:	dc 90       	ld	r13, X
    10c2:	bf e0       	ldi	r27, 0x0F	; 15
    10c4:	bd 15       	cp	r27, r13
    10c6:	18 f1       	brcs	.+70     	; 0x110e <__stack+0xf>
    10c8:	f5 01       	movw	r30, r10
    10ca:	e0 0f       	add	r30, r16
    10cc:	f1 1f       	adc	r31, r17
    10ce:	80 81       	ld	r24, Z
    10d0:	8d 32       	cpi	r24, 0x2D	; 45
    10d2:	19 f4       	brne	.+6      	; 0x10da <_ZN7BLEUUIDC1EPKc+0x6e>
    10d4:	0f 5f       	subi	r16, 0xFF	; 255
    10d6:	1f 4f       	sbci	r17, 0xFF	; 255
    10d8:	17 c0       	rjmp	.+46     	; 0x1108 <__stack+0x9>
    10da:	f5 01       	movw	r30, r10
    10dc:	e0 0f       	add	r30, r16
    10de:	f1 1f       	adc	r31, r17
    10e0:	31 97       	sbiw	r30, 0x01	; 1
    10e2:	90 81       	ld	r25, Z
    10e4:	99 83       	std	Y+1, r25	; 0x01
    10e6:	8a 83       	std	Y+2, r24	; 0x02
    10e8:	40 e1       	ldi	r20, 0x10	; 16
    10ea:	50 e0       	ldi	r21, 0x00	; 0
    10ec:	60 e0       	ldi	r22, 0x00	; 0
    10ee:	70 e0       	ldi	r23, 0x00	; 0
    10f0:	ce 01       	movw	r24, r28
    10f2:	01 96       	adiw	r24, 0x01	; 1
    10f4:	0e 94 9f 27 	call	0x4f3e	; 0x4f3e <strtoul>
    10f8:	f7 01       	movw	r30, r14
    10fa:	ed 0d       	add	r30, r13
    10fc:	f1 1d       	adc	r31, r1
    10fe:	62 83       	std	Z+2, r22	; 0x02
    1100:	f7 01       	movw	r30, r14
    1102:	82 89       	ldd	r24, Z+18	; 0x12
    1104:	8f 5f       	subi	r24, 0xFF	; 255
    1106:	82 8b       	std	Z+18, r24	; 0x12
    1108:	02 50       	subi	r16, 0x02	; 2
    110a:	11 09       	sbc	r17, r1
    110c:	ba f6       	brpl	.-82     	; 0x10bc <_ZN7BLEUUIDC1EPKc+0x50>
    110e:	d7 01       	movw	r26, r14
    1110:	52 96       	adiw	r26, 0x12	; 18
    1112:	8c 91       	ld	r24, X
    1114:	83 30       	cpi	r24, 0x03	; 3
    1116:	20 f4       	brcc	.+8      	; 0x1120 <__stack+0x21>
    1118:	82 e0       	ldi	r24, 0x02	; 2
    111a:	f7 01       	movw	r30, r14
    111c:	82 8b       	std	Z+18, r24	; 0x12
    111e:	04 c0       	rjmp	.+8      	; 0x1128 <__stack+0x29>
    1120:	80 e1       	ldi	r24, 0x10	; 16
    1122:	d7 01       	movw	r26, r14
    1124:	52 96       	adiw	r26, 0x12	; 18
    1126:	8c 93       	st	X, r24
    1128:	0f 90       	pop	r0
    112a:	0f 90       	pop	r0
    112c:	0f 90       	pop	r0
    112e:	df 91       	pop	r29
    1130:	cf 91       	pop	r28
    1132:	1f 91       	pop	r17
    1134:	0f 91       	pop	r16
    1136:	ff 90       	pop	r15
    1138:	ef 90       	pop	r14
    113a:	df 90       	pop	r13
    113c:	bf 90       	pop	r11
    113e:	af 90       	pop	r10
    1140:	08 95       	ret

00001142 <_ZN7BLEUUID4dataEv>:

const uint8_t* BLEUUID::data()
{
    return m_data;
}
    1142:	02 96       	adiw	r24, 0x02	; 2
    1144:	08 95       	ret

00001146 <_ZN7BLEUUID6lengthEv>:

uint8_t BLEUUID::length()
{
    return m_length;
}
    1146:	fc 01       	movw	r30, r24
    1148:	82 89       	ldd	r24, Z+18	; 0x12
    114a:	08 95       	ret

0000114c <_ZN8ATTClassD1Ev>:
}

void ATTClass::setEventHandler(BLEDeviceEvent event, BLEDeviceEventHandler eventHandler)
{
    if (event < (sizeof(m_eventHandlers) / (sizeof(m_eventHandlers[0])))) {
        m_eventHandlers[event] = eventHandler;
    114c:	23 eb       	ldi	r18, 0xB3	; 179
    114e:	31 e0       	ldi	r19, 0x01	; 1
    1150:	fc 01       	movw	r30, r24
    1152:	31 83       	std	Z+1, r19	; 0x01
    1154:	20 83       	st	Z, r18
    1156:	82 85       	ldd	r24, Z+10	; 0x0a
    1158:	93 85       	ldd	r25, Z+11	; 0x0b
    115a:	00 97       	sbiw	r24, 0x00	; 0
    115c:	11 f0       	breq	.+4      	; 0x1162 <_ZN8ATTClassD1Ev+0x16>
    115e:	0c 94 36 26 	jmp	0x4c6c	; 0x4c6c <free>
    1162:	08 95       	ret

00001164 <_ZN8ATTClassD0Ev>:
    1164:	cf 93       	push	r28
    1166:	df 93       	push	r29
    1168:	ec 01       	movw	r28, r24
    116a:	f0 df       	rcall	.-32     	; 0x114c <_ZN8ATTClassD1Ev>
    116c:	ce 01       	movw	r24, r28
    116e:	0e 94 e6 21 	call	0x43cc	; 0x43cc <_ZdlPv>
    1172:	df 91       	pop	r29
    1174:	cf 91       	pop	r28
    1176:	08 95       	ret

00001178 <_ZN8ATTClassC1Ev>:
    1178:	cf 93       	push	r28
    117a:	df 93       	push	r29
    117c:	fc 01       	movw	r30, r24
    117e:	83 eb       	ldi	r24, 0xB3	; 179
    1180:	91 e0       	ldi	r25, 0x01	; 1
    1182:	91 83       	std	Z+1, r25	; 0x01
    1184:	80 83       	st	Z, r24
    1186:	87 e1       	ldi	r24, 0x17	; 23
    1188:	90 e0       	ldi	r25, 0x00	; 0
    118a:	93 83       	std	Z+3, r25	; 0x03
    118c:	82 83       	std	Z+2, r24	; 0x02
    118e:	2f ef       	ldi	r18, 0xFF	; 255
    1190:	3f ef       	ldi	r19, 0xFF	; 255
    1192:	35 83       	std	Z+5, r19	; 0x05
    1194:	24 83       	std	Z+4, r18	; 0x04
    1196:	97 83       	std	Z+7, r25	; 0x07
    1198:	86 83       	std	Z+6, r24	; 0x06
    119a:	11 86       	std	Z+9, r1	; 0x09
    119c:	10 86       	std	Z+8, r1	; 0x08
    119e:	13 86       	std	Z+11, r1	; 0x0b
    11a0:	12 86       	std	Z+10, r1	; 0x0a
    11a2:	15 86       	std	Z+13, r1	; 0x0d
    11a4:	14 86       	std	Z+12, r1	; 0x0c
    11a6:	df 01       	movw	r26, r30
    11a8:	1e 96       	adiw	r26, 0x0e	; 14
    11aa:	86 e0       	ldi	r24, 0x06	; 6
    11ac:	ed 01       	movw	r28, r26
    11ae:	19 92       	st	Y+, r1
    11b0:	8a 95       	dec	r24
    11b2:	e9 f7       	brne	.-6      	; 0x11ae <_ZN8ATTClassC1Ev+0x36>
    11b4:	75 96       	adiw	r30, 0x15	; 21
    11b6:	84 e0       	ldi	r24, 0x04	; 4
    11b8:	df 01       	movw	r26, r30
    11ba:	1d 92       	st	X+, r1
    11bc:	8a 95       	dec	r24
    11be:	e9 f7       	brne	.-6      	; 0x11ba <_ZN8ATTClassC1Ev+0x42>
    11c0:	df 91       	pop	r29
    11c2:	cf 91       	pop	r28
    11c4:	08 95       	ret

000011c6 <_ZN8ATTClass13addConnectionEjhhPhjjjh>:
    11c6:	0f 93       	push	r16
    11c8:	1f 93       	push	r17
    11ca:	cf 93       	push	r28
    11cc:	df 93       	push	r29
    11ce:	cd b7       	in	r28, 0x3d	; 61
    11d0:	de b7       	in	r29, 0x3e	; 62
    11d2:	6c 97       	sbiw	r28, 0x1c	; 28
    11d4:	0f b6       	in	r0, 0x3f	; 63
    11d6:	f8 94       	cli
    11d8:	de bf       	out	0x3e, r29	; 62
    11da:	0f be       	out	0x3f, r0	; 63
    11dc:	cd bf       	out	0x3d, r28	; 61
    11de:	41 30       	cpi	r20, 0x01	; 1
    11e0:	09 f5       	brne	.+66     	; 0x1224 <_ZN8ATTClass13addConnectionEjhhPhjjjh+0x5e>
    11e2:	fc 01       	movw	r30, r24
    11e4:	75 83       	std	Z+5, r23	; 0x05
    11e6:	64 83       	std	Z+4, r22	; 0x04
    11e8:	27 e1       	ldi	r18, 0x17	; 23
    11ea:	30 e0       	ldi	r19, 0x00	; 0
    11ec:	37 83       	std	Z+7, r19	; 0x07
    11ee:	26 83       	std	Z+6, r18	; 0x06
    11f0:	ac 01       	movw	r20, r24
    11f2:	42 5f       	subi	r20, 0xF2	; 242
    11f4:	5f 4f       	sbci	r21, 0xFF	; 255
    11f6:	26 e0       	ldi	r18, 0x06	; 6
    11f8:	f8 01       	movw	r30, r16
    11fa:	da 01       	movw	r26, r20
    11fc:	01 90       	ld	r0, Z+
    11fe:	0d 92       	st	X+, r0
    1200:	2a 95       	dec	r18
    1202:	e1 f7       	brne	.-8      	; 0x11fc <_ZN8ATTClass13addConnectionEjhhPhjjjh+0x36>
    1204:	fc 01       	movw	r30, r24
    1206:	05 89       	ldd	r16, Z+21	; 0x15
    1208:	16 89       	ldd	r17, Z+22	; 0x16
    120a:	01 15       	cp	r16, r1
    120c:	11 05       	cpc	r17, r1
    120e:	51 f0       	breq	.+20     	; 0x1224 <_ZN8ATTClass13addConnectionEjhhPhjjjh+0x5e>
    1210:	ce 01       	movw	r24, r28
    1212:	01 96       	adiw	r24, 0x01	; 1
    1214:	a4 de       	rcall	.-696    	; 0xf5e <_ZN9BLEDeviceC1EjPh>
    1216:	ce 01       	movw	r24, r28
    1218:	01 96       	adiw	r24, 0x01	; 1
    121a:	f8 01       	movw	r30, r16
    121c:	09 95       	icall
    121e:	ce 01       	movw	r24, r28
    1220:	01 96       	adiw	r24, 0x01	; 1
    1222:	b7 dd       	rcall	.-1170   	; 0xd92 <_ZN9BLEDeviceD1Ev>
    1224:	6c 96       	adiw	r28, 0x1c	; 28
    1226:	0f b6       	in	r0, 0x3f	; 63
    1228:	f8 94       	cli
    122a:	de bf       	out	0x3e, r29	; 62
    122c:	0f be       	out	0x3f, r0	; 63
    122e:	cd bf       	out	0x3d, r28	; 61
    1230:	df 91       	pop	r29
    1232:	cf 91       	pop	r28
    1234:	1f 91       	pop	r17
    1236:	0f 91       	pop	r16
    1238:	08 95       	ret

0000123a <_ZN8ATTClass16removeConnectionEhj>:
    123a:	8f 92       	push	r8
    123c:	9f 92       	push	r9
    123e:	af 92       	push	r10
    1240:	bf 92       	push	r11
    1242:	cf 92       	push	r12
    1244:	df 92       	push	r13
    1246:	ef 92       	push	r14
    1248:	ff 92       	push	r15
    124a:	0f 93       	push	r16
    124c:	1f 93       	push	r17
    124e:	cf 93       	push	r28
    1250:	df 93       	push	r29
    1252:	cd b7       	in	r28, 0x3d	; 61
    1254:	de b7       	in	r29, 0x3e	; 62
    1256:	c4 55       	subi	r28, 0x54	; 84
    1258:	d1 09       	sbc	r29, r1
    125a:	0f b6       	in	r0, 0x3f	; 63
    125c:	f8 94       	cli
    125e:	de bf       	out	0x3e, r29	; 62
    1260:	0f be       	out	0x3f, r0	; 63
    1262:	cd bf       	out	0x3d, r28	; 61
    1264:	dc 01       	movw	r26, r24
    1266:	14 96       	adiw	r26, 0x04	; 4
    1268:	ed 91       	ld	r30, X+
    126a:	fc 91       	ld	r31, X
    126c:	15 97       	sbiw	r26, 0x05	; 5
    126e:	26 2f       	mov	r18, r22
    1270:	30 e0       	ldi	r19, 0x00	; 0
    1272:	e2 17       	cp	r30, r18
    1274:	f3 07       	cpc	r31, r19
    1276:	09 f0       	breq	.+2      	; 0x127a <_ZN8ATTClass16removeConnectionEhj+0x40>
    1278:	92 c0       	rjmp	.+292    	; 0x139e <_ZN8ATTClass16removeConnectionEhj+0x164>
    127a:	6c 01       	movw	r12, r24
    127c:	5c 01       	movw	r10, r24
    127e:	be e0       	ldi	r27, 0x0E	; 14
    1280:	ab 0e       	add	r10, r27
    1282:	b1 1c       	adc	r11, r1
    1284:	a5 01       	movw	r20, r10
    1286:	bf 01       	movw	r22, r30
    1288:	ce 01       	movw	r24, r28
    128a:	c9 96       	adiw	r24, 0x39	; 57
    128c:	68 de       	rcall	.-816    	; 0xf5e <_ZN9BLEDeviceC1EjPh>
    128e:	00 e0       	ldi	r16, 0x00	; 0
    1290:	10 e0       	ldi	r17, 0x00	; 0
    1292:	0f 2e       	mov	r0, r31
    1294:	f9 e8       	ldi	r31, 0x89	; 137
    1296:	8f 2e       	mov	r8, r31
    1298:	f1 e0       	ldi	r31, 0x01	; 1
    129a:	9f 2e       	mov	r9, r31
    129c:	f0 2d       	mov	r31, r0
    129e:	87 e8       	ldi	r24, 0x87	; 135
    12a0:	92 e0       	ldi	r25, 0x02	; 2
    12a2:	0e 94 44 17 	call	0x2e88	; 0x2e88 <_ZN9GATTClass14attributeCountEv>
    12a6:	08 17       	cp	r16, r24
    12a8:	19 07       	cpc	r17, r25
    12aa:	c0 f5       	brcc	.+112    	; 0x131c <_ZN8ATTClass16removeConnectionEhj+0xe2>
    12ac:	b8 01       	movw	r22, r16
    12ae:	87 e8       	ldi	r24, 0x87	; 135
    12b0:	92 e0       	ldi	r25, 0x02	; 2
    12b2:	0e 94 4a 17 	call	0x2e94	; 0x2e94 <_ZN9GATTClass9attributeEj>
    12b6:	7c 01       	movw	r14, r24
    12b8:	dc 01       	movw	r26, r24
    12ba:	ed 91       	ld	r30, X+
    12bc:	fc 91       	ld	r31, X
    12be:	04 80       	ldd	r0, Z+4	; 0x04
    12c0:	f5 81       	ldd	r31, Z+5	; 0x05
    12c2:	e0 2d       	mov	r30, r0
    12c4:	09 95       	icall
    12c6:	83 30       	cpi	r24, 0x03	; 3
    12c8:	98 42       	sbci	r25, 0x28	; 40
    12ca:	29 f5       	brne	.+74     	; 0x1316 <_ZN8ATTClass16removeConnectionEhj+0xdc>
    12cc:	9e 8e       	std	Y+30, r9	; 0x1e
    12ce:	8d 8e       	std	Y+29, r8	; 0x1d
    12d0:	82 e1       	ldi	r24, 0x12	; 18
    12d2:	fe 01       	movw	r30, r28
    12d4:	fb 96       	adiw	r30, 0x3b	; 59
    12d6:	de 01       	movw	r26, r28
    12d8:	5f 96       	adiw	r26, 0x1f	; 31
    12da:	01 90       	ld	r0, Z+
    12dc:	0d 92       	st	X+, r0
    12de:	8a 95       	dec	r24
    12e0:	e1 f7       	brne	.-8      	; 0x12da <_ZN8ATTClass16removeConnectionEhj+0xa0>
    12e2:	2f 96       	adiw	r28, 0x0f	; 15
    12e4:	8e ad       	ldd	r24, Y+62	; 0x3e
    12e6:	9f ad       	ldd	r25, Y+63	; 0x3f
    12e8:	2f 97       	sbiw	r28, 0x0f	; 15
    12ea:	9a ab       	std	Y+50, r25	; 0x32
    12ec:	89 ab       	std	Y+49, r24	; 0x31
    12ee:	86 e0       	ldi	r24, 0x06	; 6
    12f0:	fe 01       	movw	r30, r28
    12f2:	e1 5b       	subi	r30, 0xB1	; 177
    12f4:	ff 4f       	sbci	r31, 0xFF	; 255
    12f6:	de 01       	movw	r26, r28
    12f8:	d3 96       	adiw	r26, 0x33	; 51
    12fa:	01 90       	ld	r0, Z+
    12fc:	0d 92       	st	X+, r0
    12fe:	8a 95       	dec	r24
    1300:	e1 f7       	brne	.-8      	; 0x12fa <_ZN8ATTClass16removeConnectionEhj+0xc0>
    1302:	40 e0       	ldi	r20, 0x00	; 0
    1304:	50 e0       	ldi	r21, 0x00	; 0
    1306:	be 01       	movw	r22, r28
    1308:	63 5e       	subi	r22, 0xE3	; 227
    130a:	7f 4f       	sbci	r23, 0xFF	; 255
    130c:	c7 01       	movw	r24, r14
    130e:	85 da       	rcall	.-2806   	; 0x81a <_ZN19LocalCharacteristic14writeCccdValueE9BLEDevicej>
    1310:	ce 01       	movw	r24, r28
    1312:	4d 96       	adiw	r24, 0x1d	; 29
    1314:	3e dd       	rcall	.-1412   	; 0xd92 <_ZN9BLEDeviceD1Ev>
    1316:	0f 5f       	subi	r16, 0xFF	; 255
    1318:	1f 4f       	sbci	r17, 0xFF	; 255
    131a:	c1 cf       	rjmp	.-126    	; 0x129e <_ZN8ATTClass16removeConnectionEhj+0x64>
    131c:	f6 01       	movw	r30, r12
    131e:	27 89       	ldd	r18, Z+23	; 0x17
    1320:	30 8d       	ldd	r19, Z+24	; 0x18
    1322:	21 15       	cp	r18, r1
    1324:	31 05       	cpc	r19, r1
    1326:	21 f1       	breq	.+72     	; 0x1370 <_ZN8ATTClass16removeConnectionEhj+0x136>
    1328:	89 e8       	ldi	r24, 0x89	; 137
    132a:	91 e0       	ldi	r25, 0x01	; 1
    132c:	9a 83       	std	Y+2, r25	; 0x02
    132e:	89 83       	std	Y+1, r24	; 0x01
    1330:	82 e1       	ldi	r24, 0x12	; 18
    1332:	fe 01       	movw	r30, r28
    1334:	fb 96       	adiw	r30, 0x3b	; 59
    1336:	de 01       	movw	r26, r28
    1338:	13 96       	adiw	r26, 0x03	; 3
    133a:	01 90       	ld	r0, Z+
    133c:	0d 92       	st	X+, r0
    133e:	8a 95       	dec	r24
    1340:	e1 f7       	brne	.-8      	; 0x133a <_ZN8ATTClass16removeConnectionEhj+0x100>
    1342:	2f 96       	adiw	r28, 0x0f	; 15
    1344:	8e ad       	ldd	r24, Y+62	; 0x3e
    1346:	9f ad       	ldd	r25, Y+63	; 0x3f
    1348:	2f 97       	sbiw	r28, 0x0f	; 15
    134a:	9e 8b       	std	Y+22, r25	; 0x16
    134c:	8d 8b       	std	Y+21, r24	; 0x15
    134e:	86 e0       	ldi	r24, 0x06	; 6
    1350:	fe 01       	movw	r30, r28
    1352:	e1 5b       	subi	r30, 0xB1	; 177
    1354:	ff 4f       	sbci	r31, 0xFF	; 255
    1356:	de 01       	movw	r26, r28
    1358:	57 96       	adiw	r26, 0x17	; 23
    135a:	01 90       	ld	r0, Z+
    135c:	0d 92       	st	X+, r0
    135e:	8a 95       	dec	r24
    1360:	e1 f7       	brne	.-8      	; 0x135a <_ZN8ATTClass16removeConnectionEhj+0x120>
    1362:	ce 01       	movw	r24, r28
    1364:	01 96       	adiw	r24, 0x01	; 1
    1366:	f9 01       	movw	r30, r18
    1368:	09 95       	icall
    136a:	ce 01       	movw	r24, r28
    136c:	01 96       	adiw	r24, 0x01	; 1
    136e:	11 dd       	rcall	.-1502   	; 0xd92 <_ZN9BLEDeviceD1Ev>
    1370:	8f ef       	ldi	r24, 0xFF	; 255
    1372:	9f ef       	ldi	r25, 0xFF	; 255
    1374:	d6 01       	movw	r26, r12
    1376:	15 96       	adiw	r26, 0x05	; 5
    1378:	9c 93       	st	X, r25
    137a:	8e 93       	st	-X, r24
    137c:	14 97       	sbiw	r26, 0x04	; 4
    137e:	86 e0       	ldi	r24, 0x06	; 6
    1380:	f5 01       	movw	r30, r10
    1382:	11 92       	st	Z+, r1
    1384:	8a 95       	dec	r24
    1386:	e9 f7       	brne	.-6      	; 0x1382 <_ZN8ATTClass16removeConnectionEhj+0x148>
    1388:	19 96       	adiw	r26, 0x09	; 9
    138a:	1c 92       	st	X, r1
    138c:	1e 92       	st	-X, r1
    138e:	18 97       	sbiw	r26, 0x08	; 8
    1390:	1d 96       	adiw	r26, 0x0d	; 13
    1392:	1c 92       	st	X, r1
    1394:	1e 92       	st	-X, r1
    1396:	1c 97       	sbiw	r26, 0x0c	; 12
    1398:	ce 01       	movw	r24, r28
    139a:	c9 96       	adiw	r24, 0x39	; 57
    139c:	fa dc       	rcall	.-1548   	; 0xd92 <_ZN9BLEDeviceD1Ev>
    139e:	cc 5a       	subi	r28, 0xAC	; 172
    13a0:	df 4f       	sbci	r29, 0xFF	; 255
    13a2:	0f b6       	in	r0, 0x3f	; 63
    13a4:	f8 94       	cli
    13a6:	de bf       	out	0x3e, r29	; 62
    13a8:	0f be       	out	0x3f, r0	; 63
    13aa:	cd bf       	out	0x3d, r28	; 61
    13ac:	df 91       	pop	r29
    13ae:	cf 91       	pop	r28
    13b0:	1f 91       	pop	r17
    13b2:	0f 91       	pop	r16
    13b4:	ff 90       	pop	r15
    13b6:	ef 90       	pop	r14
    13b8:	df 90       	pop	r13
    13ba:	cf 90       	pop	r12
    13bc:	bf 90       	pop	r11
    13be:	af 90       	pop	r10
    13c0:	9f 90       	pop	r9
    13c2:	8f 90       	pop	r8
    13c4:	08 95       	ret

000013c6 <_ZN8ATTClass9connectedEv>:
    13c6:	21 e0       	ldi	r18, 0x01	; 1
    13c8:	fc 01       	movw	r30, r24
    13ca:	84 81       	ldd	r24, Z+4	; 0x04
    13cc:	95 81       	ldd	r25, Z+5	; 0x05
    13ce:	01 96       	adiw	r24, 0x01	; 1
    13d0:	09 f4       	brne	.+2      	; 0x13d4 <_ZN8ATTClass9connectedEv+0xe>
    13d2:	20 e0       	ldi	r18, 0x00	; 0
    13d4:	82 2f       	mov	r24, r18
    13d6:	08 95       	ret

000013d8 <_ZN8ATTClass9connectedEjPKh>:
    13d8:	fc 01       	movw	r30, r24
    13da:	24 81       	ldd	r18, Z+4	; 0x04
    13dc:	35 81       	ldd	r19, Z+5	; 0x05
    13de:	26 17       	cp	r18, r22
    13e0:	37 07       	cpc	r19, r23
    13e2:	59 f4       	brne	.+22     	; 0x13fa <_ZN8ATTClass9connectedEjPKh+0x22>
    13e4:	ba 01       	movw	r22, r20
    13e6:	46 e0       	ldi	r20, 0x06	; 6
    13e8:	50 e0       	ldi	r21, 0x00	; 0
    13ea:	0e 96       	adiw	r24, 0x0e	; 14
    13ec:	0e 94 94 29 	call	0x5328	; 0x5328 <memcmp>
    13f0:	21 e0       	ldi	r18, 0x01	; 1
    13f2:	89 2b       	or	r24, r25
    13f4:	19 f0       	breq	.+6      	; 0x13fc <_ZN8ATTClass9connectedEjPKh+0x24>
    13f6:	20 e0       	ldi	r18, 0x00	; 0
    13f8:	01 c0       	rjmp	.+2      	; 0x13fc <_ZN8ATTClass9connectedEjPKh+0x24>
    13fa:	20 e0       	ldi	r18, 0x00	; 0
    13fc:	82 2f       	mov	r24, r18
    13fe:	08 95       	ret

00001400 <_ZN8ATTClass10disconnectEv>:
    1400:	cf 93       	push	r28
    1402:	df 93       	push	r29
    1404:	fc 01       	movw	r30, r24
    1406:	64 81       	ldd	r22, Z+4	; 0x04
    1408:	75 81       	ldd	r23, Z+5	; 0x05
    140a:	6f 3f       	cpi	r22, 0xFF	; 255
    140c:	ff ef       	ldi	r31, 0xFF	; 255
    140e:	7f 07       	cpc	r23, r31
    1410:	99 f0       	breq	.+38     	; 0x1438 <_ZN8ATTClass10disconnectEv+0x38>
    1412:	ec 01       	movw	r28, r24
    1414:	87 e6       	ldi	r24, 0x67	; 103
    1416:	93 e0       	ldi	r25, 0x03	; 3
    1418:	0e 94 04 1c 	call	0x3808	; 0x3808 <_ZN8HCIClass10disconnectEj>
    141c:	89 2b       	or	r24, r25
    141e:	71 f4       	brne	.+28     	; 0x143c <_ZN8ATTClass10disconnectEv+0x3c>
    1420:	8f ef       	ldi	r24, 0xFF	; 255
    1422:	9f ef       	ldi	r25, 0xFF	; 255
    1424:	9d 83       	std	Y+5, r25	; 0x05
    1426:	8c 83       	std	Y+4, r24	; 0x04
    1428:	2e 96       	adiw	r28, 0x0e	; 14
    142a:	86 e0       	ldi	r24, 0x06	; 6
    142c:	fe 01       	movw	r30, r28
    142e:	11 92       	st	Z+, r1
    1430:	8a 95       	dec	r24
    1432:	e9 f7       	brne	.-6      	; 0x142e <_ZN8ATTClass10disconnectEv+0x2e>
    1434:	81 e0       	ldi	r24, 0x01	; 1
    1436:	03 c0       	rjmp	.+6      	; 0x143e <_ZN8ATTClass10disconnectEv+0x3e>
    1438:	80 e0       	ldi	r24, 0x00	; 0
    143a:	01 c0       	rjmp	.+2      	; 0x143e <_ZN8ATTClass10disconnectEv+0x3e>
    143c:	80 e0       	ldi	r24, 0x00	; 0
    143e:	df 91       	pop	r29
    1440:	cf 91       	pop	r28
    1442:	08 95       	ret

00001444 <_ZN8ATTClass7centralEv>:
    1444:	cf 93       	push	r28
    1446:	df 93       	push	r29
    1448:	ec 01       	movw	r28, r24
    144a:	fb 01       	movw	r30, r22
    144c:	84 81       	ldd	r24, Z+4	; 0x04
    144e:	95 81       	ldd	r25, Z+5	; 0x05
    1450:	8f 3f       	cpi	r24, 0xFF	; 255
    1452:	ff ef       	ldi	r31, 0xFF	; 255
    1454:	9f 07       	cpc	r25, r31
    1456:	39 f0       	breq	.+14     	; 0x1466 <_ZN8ATTClass7centralEv+0x22>
    1458:	ab 01       	movw	r20, r22
    145a:	42 5f       	subi	r20, 0xF2	; 242
    145c:	5f 4f       	sbci	r21, 0xFF	; 255
    145e:	bc 01       	movw	r22, r24
    1460:	ce 01       	movw	r24, r28
    1462:	7d dd       	rcall	.-1286   	; 0xf5e <_ZN9BLEDeviceC1EjPh>
    1464:	02 c0       	rjmp	.+4      	; 0x146a <_ZN8ATTClass7centralEv+0x26>
    1466:	ce 01       	movw	r24, r28
    1468:	66 dd       	rcall	.-1332   	; 0xf36 <_ZN9BLEDeviceC1Ev>
    146a:	ce 01       	movw	r24, r28
    146c:	df 91       	pop	r29
    146e:	cf 91       	pop	r28
    1470:	08 95       	ret

00001472 <_ZN8ATTClass12handleNotifyEjPKhi>:
    1472:	8f 92       	push	r8
    1474:	9f 92       	push	r9
    1476:	af 92       	push	r10
    1478:	bf 92       	push	r11
    147a:	cf 92       	push	r12
    147c:	df 92       	push	r13
    147e:	ef 92       	push	r14
    1480:	ff 92       	push	r15
    1482:	0f 93       	push	r16
    1484:	1f 93       	push	r17
    1486:	cf 93       	push	r28
    1488:	df 93       	push	r29
    148a:	cd b7       	in	r28, 0x3d	; 61
    148c:	de b7       	in	r29, 0x3e	; 62
    148e:	fa 01       	movw	r30, r20
    1490:	ad b6       	in	r10, 0x3d	; 61
    1492:	be b6       	in	r11, 0x3e	; 62
    1494:	dc 01       	movw	r26, r24
    1496:	14 96       	adiw	r26, 0x04	; 4
    1498:	cd 90       	ld	r12, X+
    149a:	dc 90       	ld	r13, X
    149c:	15 97       	sbiw	r26, 0x05	; 5
    149e:	bf ef       	ldi	r27, 0xFF	; 255
    14a0:	cb 16       	cp	r12, r27
    14a2:	db 06       	cpc	r13, r27
    14a4:	d9 f1       	breq	.+118    	; 0x151c <_ZN8ATTClass12handleNotifyEjPKhi+0xaa>
    14a6:	8d b6       	in	r8, 0x3d	; 61
    14a8:	9e b6       	in	r9, 0x3e	; 62
    14aa:	dc 01       	movw	r26, r24
    14ac:	16 96       	adiw	r26, 0x06	; 6
    14ae:	ed 90       	ld	r14, X+
    14b0:	fc 90       	ld	r15, X
    14b2:	17 97       	sbiw	r26, 0x07	; 7
    14b4:	8d b7       	in	r24, 0x3d	; 61
    14b6:	9e b7       	in	r25, 0x3e	; 62
    14b8:	8e 19       	sub	r24, r14
    14ba:	9f 09       	sbc	r25, r15
    14bc:	0f b6       	in	r0, 0x3f	; 63
    14be:	f8 94       	cli
    14c0:	9e bf       	out	0x3e, r25	; 62
    14c2:	0f be       	out	0x3f, r0	; 63
    14c4:	8d bf       	out	0x3d, r24	; 61
    14c6:	0d b7       	in	r16, 0x3d	; 61
    14c8:	1e b7       	in	r17, 0x3e	; 62
    14ca:	0f 5f       	subi	r16, 0xFF	; 255
    14cc:	1f 4f       	sbci	r17, 0xFF	; 255
    14ce:	8b e1       	ldi	r24, 0x1B	; 27
    14d0:	ad b7       	in	r26, 0x3d	; 61
    14d2:	be b7       	in	r27, 0x3e	; 62
    14d4:	11 96       	adiw	r26, 0x01	; 1
    14d6:	8c 93       	st	X, r24
    14d8:	d8 01       	movw	r26, r16
    14da:	12 96       	adiw	r26, 0x02	; 2
    14dc:	7c 93       	st	X, r23
    14de:	6e 93       	st	-X, r22
    14e0:	11 97       	sbiw	r26, 0x01	; 1
    14e2:	b3 e0       	ldi	r27, 0x03	; 3
    14e4:	eb 1a       	sub	r14, r27
    14e6:	f1 08       	sbc	r15, r1
    14e8:	2e 15       	cp	r18, r14
    14ea:	3f 05       	cpc	r19, r15
    14ec:	08 f4       	brcc	.+2      	; 0x14f0 <_ZN8ATTClass12handleNotifyEjPKhi+0x7e>
    14ee:	79 01       	movw	r14, r18
    14f0:	a7 01       	movw	r20, r14
    14f2:	bf 01       	movw	r22, r30
    14f4:	c8 01       	movw	r24, r16
    14f6:	03 96       	adiw	r24, 0x03	; 3
    14f8:	0e 94 a1 29 	call	0x5342	; 0x5342 <memcpy>
    14fc:	97 01       	movw	r18, r14
    14fe:	2d 5f       	subi	r18, 0xFD	; 253
    1500:	3f 4f       	sbci	r19, 0xFF	; 255
    1502:	44 e0       	ldi	r20, 0x04	; 4
    1504:	b6 01       	movw	r22, r12
    1506:	87 e6       	ldi	r24, 0x67	; 103
    1508:	93 e0       	ldi	r25, 0x03	; 3
    150a:	0e 94 76 19 	call	0x32ec	; 0x32ec <_ZN8HCIClass13sendAclPacketEjhhPv>
    150e:	0f b6       	in	r0, 0x3f	; 63
    1510:	f8 94       	cli
    1512:	9e be       	out	0x3e, r9	; 62
    1514:	0f be       	out	0x3f, r0	; 63
    1516:	8d be       	out	0x3d, r8	; 61
    1518:	81 e0       	ldi	r24, 0x01	; 1
    151a:	01 c0       	rjmp	.+2      	; 0x151e <_ZN8ATTClass12handleNotifyEjPKhi+0xac>
    151c:	80 e0       	ldi	r24, 0x00	; 0
    151e:	0f b6       	in	r0, 0x3f	; 63
    1520:	f8 94       	cli
    1522:	be be       	out	0x3e, r11	; 62
    1524:	0f be       	out	0x3f, r0	; 63
    1526:	ad be       	out	0x3d, r10	; 61
    1528:	df 91       	pop	r29
    152a:	cf 91       	pop	r28
    152c:	1f 91       	pop	r17
    152e:	0f 91       	pop	r16
    1530:	ff 90       	pop	r15
    1532:	ef 90       	pop	r14
    1534:	df 90       	pop	r13
    1536:	cf 90       	pop	r12
    1538:	bf 90       	pop	r11
    153a:	af 90       	pop	r10
    153c:	9f 90       	pop	r9
    153e:	8f 90       	pop	r8
    1540:	08 95       	ret

00001542 <_ZN8ATTClass9handleIndEjPKhi>:
    1542:	6f 92       	push	r6
    1544:	7f 92       	push	r7
    1546:	8f 92       	push	r8
    1548:	9f 92       	push	r9
    154a:	af 92       	push	r10
    154c:	bf 92       	push	r11
    154e:	cf 92       	push	r12
    1550:	df 92       	push	r13
    1552:	ef 92       	push	r14
    1554:	ff 92       	push	r15
    1556:	0f 93       	push	r16
    1558:	1f 93       	push	r17
    155a:	cf 93       	push	r28
    155c:	df 93       	push	r29
    155e:	cd b7       	in	r28, 0x3d	; 61
    1560:	de b7       	in	r29, 0x3e	; 62
    1562:	7c 01       	movw	r14, r24
    1564:	ca 01       	movw	r24, r20
    1566:	8d b6       	in	r8, 0x3d	; 61
    1568:	9e b6       	in	r9, 0x3e	; 62
    156a:	f7 01       	movw	r30, r14
    156c:	a4 80       	ldd	r10, Z+4	; 0x04
    156e:	b5 80       	ldd	r11, Z+5	; 0x05
    1570:	ff ef       	ldi	r31, 0xFF	; 255
    1572:	af 16       	cp	r10, r31
    1574:	bf 06       	cpc	r11, r31
    1576:	09 f4       	brne	.+2      	; 0x157a <_ZN8ATTClass9handleIndEjPKhi+0x38>
    1578:	44 c0       	rjmp	.+136    	; 0x1602 <_ZN8ATTClass9handleIndEjPKhi+0xc0>
    157a:	6d b6       	in	r6, 0x3d	; 61
    157c:	7e b6       	in	r7, 0x3e	; 62
    157e:	f7 01       	movw	r30, r14
    1580:	c6 80       	ldd	r12, Z+6	; 0x06
    1582:	d7 80       	ldd	r13, Z+7	; 0x07
    1584:	4d b7       	in	r20, 0x3d	; 61
    1586:	5e b7       	in	r21, 0x3e	; 62
    1588:	4c 19       	sub	r20, r12
    158a:	5d 09       	sbc	r21, r13
    158c:	0f b6       	in	r0, 0x3f	; 63
    158e:	f8 94       	cli
    1590:	5e bf       	out	0x3e, r21	; 62
    1592:	0f be       	out	0x3f, r0	; 63
    1594:	4d bf       	out	0x3d, r20	; 61
    1596:	0d b7       	in	r16, 0x3d	; 61
    1598:	1e b7       	in	r17, 0x3e	; 62
    159a:	0f 5f       	subi	r16, 0xFF	; 255
    159c:	1f 4f       	sbci	r17, 0xFF	; 255
    159e:	4d e1       	ldi	r20, 0x1D	; 29
    15a0:	ed b7       	in	r30, 0x3d	; 61
    15a2:	fe b7       	in	r31, 0x3e	; 62
    15a4:	41 83       	std	Z+1, r20	; 0x01
    15a6:	f8 01       	movw	r30, r16
    15a8:	72 83       	std	Z+2, r23	; 0x02
    15aa:	61 83       	std	Z+1, r22	; 0x01
    15ac:	f3 e0       	ldi	r31, 0x03	; 3
    15ae:	cf 1a       	sub	r12, r31
    15b0:	d1 08       	sbc	r13, r1
    15b2:	2c 15       	cp	r18, r12
    15b4:	3d 05       	cpc	r19, r13
    15b6:	08 f4       	brcc	.+2      	; 0x15ba <_ZN8ATTClass9handleIndEjPKhi+0x78>
    15b8:	69 01       	movw	r12, r18
    15ba:	a6 01       	movw	r20, r12
    15bc:	bc 01       	movw	r22, r24
    15be:	c8 01       	movw	r24, r16
    15c0:	03 96       	adiw	r24, 0x03	; 3
    15c2:	0e 94 a1 29 	call	0x5342	; 0x5342 <memcpy>
    15c6:	f7 01       	movw	r30, r14
    15c8:	14 8a       	std	Z+20, r1	; 0x14
    15ca:	96 01       	movw	r18, r12
    15cc:	2d 5f       	subi	r18, 0xFD	; 253
    15ce:	3f 4f       	sbci	r19, 0xFF	; 255
    15d0:	44 e0       	ldi	r20, 0x04	; 4
    15d2:	b5 01       	movw	r22, r10
    15d4:	87 e6       	ldi	r24, 0x67	; 103
    15d6:	93 e0       	ldi	r25, 0x03	; 3
    15d8:	0e 94 76 19 	call	0x32ec	; 0x32ec <_ZN8HCIClass13sendAclPacketEjhhPv>
    15dc:	f7 01       	movw	r30, r14
    15de:	14 89       	ldd	r17, Z+20	; 0x14
    15e0:	11 11       	cpse	r17, r1
    15e2:	09 c0       	rjmp	.+18     	; 0x15f6 <_ZN8ATTClass9handleIndEjPKhi+0xb4>
    15e4:	87 e6       	ldi	r24, 0x67	; 103
    15e6:	93 e0       	ldi	r25, 0x03	; 3
    15e8:	0e 94 71 19 	call	0x32e2	; 0x32e2 <_ZN8HCIClass4pollEv>
    15ec:	f7 01       	movw	r30, r14
    15ee:	84 81       	ldd	r24, Z+4	; 0x04
    15f0:	95 81       	ldd	r25, Z+5	; 0x05
    15f2:	01 96       	adiw	r24, 0x01	; 1
    15f4:	99 f7       	brne	.-26     	; 0x15dc <_ZN8ATTClass9handleIndEjPKhi+0x9a>
    15f6:	0f b6       	in	r0, 0x3f	; 63
    15f8:	f8 94       	cli
    15fa:	7e be       	out	0x3e, r7	; 62
    15fc:	0f be       	out	0x3f, r0	; 63
    15fe:	6d be       	out	0x3d, r6	; 61
    1600:	01 c0       	rjmp	.+2      	; 0x1604 <_ZN8ATTClass9handleIndEjPKhi+0xc2>
    1602:	10 e0       	ldi	r17, 0x00	; 0
    1604:	81 2f       	mov	r24, r17
    1606:	0f b6       	in	r0, 0x3f	; 63
    1608:	f8 94       	cli
    160a:	9e be       	out	0x3e, r9	; 62
    160c:	0f be       	out	0x3f, r0	; 63
    160e:	8d be       	out	0x3d, r8	; 61
    1610:	df 91       	pop	r29
    1612:	cf 91       	pop	r28
    1614:	1f 91       	pop	r17
    1616:	0f 91       	pop	r16
    1618:	ff 90       	pop	r15
    161a:	ef 90       	pop	r14
    161c:	df 90       	pop	r13
    161e:	cf 90       	pop	r12
    1620:	bf 90       	pop	r11
    1622:	af 90       	pop	r10
    1624:	9f 90       	pop	r9
    1626:	8f 90       	pop	r8
    1628:	7f 90       	pop	r7
    162a:	6f 90       	pop	r6
    162c:	08 95       	ret

0000162e <_ZN8ATTClass9sendErrorEjhjh>:
    162e:	0f 93       	push	r16
    1630:	1f 93       	push	r17
    1632:	cf 93       	push	r28
    1634:	df 93       	push	r29
    1636:	00 d0       	rcall	.+0      	; 0x1638 <_ZN8ATTClass9sendErrorEjhjh+0xa>
    1638:	00 d0       	rcall	.+0      	; 0x163a <_ZN8ATTClass9sendErrorEjhjh+0xc>
    163a:	1f 92       	push	r1
    163c:	cd b7       	in	r28, 0x3d	; 61
    163e:	de b7       	in	r29, 0x3e	; 62
    1640:	fe 01       	movw	r30, r28
    1642:	31 96       	adiw	r30, 0x01	; 1
    1644:	85 e0       	ldi	r24, 0x05	; 5
    1646:	df 01       	movw	r26, r30
    1648:	1d 92       	st	X+, r1
    164a:	8a 95       	dec	r24
    164c:	e9 f7       	brne	.-6      	; 0x1648 <_ZN8ATTClass9sendErrorEjhjh+0x1a>
    164e:	81 e0       	ldi	r24, 0x01	; 1
    1650:	89 83       	std	Y+1, r24	; 0x01
    1652:	4a 83       	std	Y+2, r20	; 0x02
    1654:	3c 83       	std	Y+4, r19	; 0x04
    1656:	2b 83       	std	Y+3, r18	; 0x03
    1658:	0d 83       	std	Y+5, r16	; 0x05
    165a:	8f 01       	movw	r16, r30
    165c:	25 e0       	ldi	r18, 0x05	; 5
    165e:	44 e0       	ldi	r20, 0x04	; 4
    1660:	87 e6       	ldi	r24, 0x67	; 103
    1662:	93 e0       	ldi	r25, 0x03	; 3
    1664:	0e 94 76 19 	call	0x32ec	; 0x32ec <_ZN8HCIClass13sendAclPacketEjhhPv>
    1668:	0f 90       	pop	r0
    166a:	0f 90       	pop	r0
    166c:	0f 90       	pop	r0
    166e:	0f 90       	pop	r0
    1670:	0f 90       	pop	r0
    1672:	df 91       	pop	r29
    1674:	cf 91       	pop	r28
    1676:	1f 91       	pop	r17
    1678:	0f 91       	pop	r16
    167a:	08 95       	ret

0000167c <_ZN8ATTClass6mtuReqEjhPh>:
    167c:	0f 93       	push	r16
    167e:	1f 93       	push	r17
    1680:	cf 93       	push	r28
    1682:	df 93       	push	r29
    1684:	00 d0       	rcall	.+0      	; 0x1686 <_ZN8ATTClass6mtuReqEjhPh+0xa>
    1686:	1f 92       	push	r1
    1688:	cd b7       	in	r28, 0x3d	; 61
    168a:	de b7       	in	r29, 0x3e	; 62
    168c:	42 30       	cpi	r20, 0x02	; 2
    168e:	31 f0       	breq	.+12     	; 0x169c <_ZN8ATTClass6mtuReqEjhPh+0x20>
    1690:	04 e0       	ldi	r16, 0x04	; 4
    1692:	20 e0       	ldi	r18, 0x00	; 0
    1694:	30 e0       	ldi	r19, 0x00	; 0
    1696:	42 e0       	ldi	r20, 0x02	; 2
    1698:	ca df       	rcall	.-108    	; 0x162e <_ZN8ATTClass9sendErrorEjhjh>
    169a:	1a c0       	rjmp	.+52     	; 0x16d0 <_ZN8ATTClass6mtuReqEjhPh+0x54>
    169c:	fc 01       	movw	r30, r24
    169e:	42 81       	ldd	r20, Z+2	; 0x02
    16a0:	53 81       	ldd	r21, Z+3	; 0x03
    16a2:	f9 01       	movw	r30, r18
    16a4:	20 81       	ld	r18, Z
    16a6:	31 81       	ldd	r19, Z+1	; 0x01
    16a8:	42 17       	cp	r20, r18
    16aa:	53 07       	cpc	r21, r19
    16ac:	08 f4       	brcc	.+2      	; 0x16b0 <_ZN8ATTClass6mtuReqEjhPh+0x34>
    16ae:	9a 01       	movw	r18, r20
    16b0:	fc 01       	movw	r30, r24
    16b2:	37 83       	std	Z+7, r19	; 0x07
    16b4:	26 83       	std	Z+6, r18	; 0x06
    16b6:	83 e0       	ldi	r24, 0x03	; 3
    16b8:	89 83       	std	Y+1, r24	; 0x01
    16ba:	3b 83       	std	Y+3, r19	; 0x03
    16bc:	2a 83       	std	Y+2, r18	; 0x02
    16be:	8e 01       	movw	r16, r28
    16c0:	0f 5f       	subi	r16, 0xFF	; 255
    16c2:	1f 4f       	sbci	r17, 0xFF	; 255
    16c4:	23 e0       	ldi	r18, 0x03	; 3
    16c6:	44 e0       	ldi	r20, 0x04	; 4
    16c8:	87 e6       	ldi	r24, 0x67	; 103
    16ca:	93 e0       	ldi	r25, 0x03	; 3
    16cc:	0e 94 76 19 	call	0x32ec	; 0x32ec <_ZN8HCIClass13sendAclPacketEjhhPv>
    16d0:	0f 90       	pop	r0
    16d2:	0f 90       	pop	r0
    16d4:	0f 90       	pop	r0
    16d6:	df 91       	pop	r29
    16d8:	cf 91       	pop	r28
    16da:	1f 91       	pop	r17
    16dc:	0f 91       	pop	r16
    16de:	08 95       	ret

000016e0 <_ZN8ATTClass11findInfoReqEjhPh>:
    16e0:	2f 92       	push	r2
    16e2:	3f 92       	push	r3
    16e4:	4f 92       	push	r4
    16e6:	5f 92       	push	r5
    16e8:	6f 92       	push	r6
    16ea:	7f 92       	push	r7
    16ec:	8f 92       	push	r8
    16ee:	9f 92       	push	r9
    16f0:	af 92       	push	r10
    16f2:	bf 92       	push	r11
    16f4:	cf 92       	push	r12
    16f6:	df 92       	push	r13
    16f8:	ef 92       	push	r14
    16fa:	ff 92       	push	r15
    16fc:	0f 93       	push	r16
    16fe:	1f 93       	push	r17
    1700:	cf 93       	push	r28
    1702:	df 93       	push	r29
    1704:	cd b7       	in	r28, 0x3d	; 61
    1706:	de b7       	in	r29, 0x3e	; 62
    1708:	2a 97       	sbiw	r28, 0x0a	; 10
    170a:	0f b6       	in	r0, 0x3f	; 63
    170c:	f8 94       	cli
    170e:	de bf       	out	0x3e, r29	; 62
    1710:	0f be       	out	0x3f, r0	; 63
    1712:	cd bf       	out	0x3d, r28	; 61
    1714:	1c 01       	movw	r2, r24
    1716:	78 87       	std	Y+8, r23	; 0x08
    1718:	6f 83       	std	Y+7, r22	; 0x07
    171a:	3a 83       	std	Y+2, r19	; 0x02
    171c:	29 83       	std	Y+1, r18	; 0x01
    171e:	2d b7       	in	r18, 0x3d	; 61
    1720:	3e b7       	in	r19, 0x3e	; 62
    1722:	3e 83       	std	Y+6, r19	; 0x06
    1724:	2d 83       	std	Y+5, r18	; 0x05
    1726:	3c 83       	std	Y+4, r19	; 0x04
    1728:	2b 83       	std	Y+3, r18	; 0x03
    172a:	44 30       	cpi	r20, 0x04	; 4
    172c:	81 f0       	breq	.+32     	; 0x174e <_ZN8ATTClass11findInfoReqEjhPh+0x6e>
    172e:	a9 81       	ldd	r26, Y+1	; 0x01
    1730:	ba 81       	ldd	r27, Y+2	; 0x02
    1732:	2d 91       	ld	r18, X+
    1734:	3c 91       	ld	r19, X
    1736:	04 e0       	ldi	r16, 0x04	; 4
    1738:	44 e0       	ldi	r20, 0x04	; 4
    173a:	c1 01       	movw	r24, r2
    173c:	78 df       	rcall	.-272    	; 0x162e <_ZN8ATTClass9sendErrorEjhjh>
    173e:	eb 81       	ldd	r30, Y+3	; 0x03
    1740:	fc 81       	ldd	r31, Y+4	; 0x04
    1742:	0f b6       	in	r0, 0x3f	; 63
    1744:	f8 94       	cli
    1746:	fe bf       	out	0x3e, r31	; 62
    1748:	0f be       	out	0x3f, r0	; 63
    174a:	ed bf       	out	0x3d, r30	; 61
    174c:	dc c0       	rjmp	.+440    	; 0x1906 <_ZN8ATTClass11findInfoReqEjhPh+0x226>
    174e:	d1 01       	movw	r26, r2
    1750:	16 96       	adiw	r26, 0x06	; 6
    1752:	8d 91       	ld	r24, X+
    1754:	9c 91       	ld	r25, X
    1756:	17 97       	sbiw	r26, 0x07	; 7
    1758:	ed b7       	in	r30, 0x3d	; 61
    175a:	fe b7       	in	r31, 0x3e	; 62
    175c:	e8 1b       	sub	r30, r24
    175e:	f9 0b       	sbc	r31, r25
    1760:	0f b6       	in	r0, 0x3f	; 63
    1762:	f8 94       	cli
    1764:	fe bf       	out	0x3e, r31	; 62
    1766:	0f be       	out	0x3f, r0	; 63
    1768:	ed bf       	out	0x3d, r30	; 61
    176a:	2d b7       	in	r18, 0x3d	; 61
    176c:	3e b7       	in	r19, 0x3e	; 62
    176e:	2f 5f       	subi	r18, 0xFF	; 255
    1770:	3f 4f       	sbci	r19, 0xFF	; 255
    1772:	3a 87       	std	Y+10, r19	; 0x0a
    1774:	29 87       	std	Y+9, r18	; 0x09
    1776:	39 01       	movw	r6, r18
    1778:	85 e0       	ldi	r24, 0x05	; 5
    177a:	81 83       	std	Z+1, r24	; 0x01
    177c:	d9 01       	movw	r26, r18
    177e:	11 96       	adiw	r26, 0x01	; 1
    1780:	1c 92       	st	X, r1
    1782:	e9 81       	ldd	r30, Y+1	; 0x01
    1784:	fa 81       	ldd	r31, Y+2	; 0x02
    1786:	c0 80       	ld	r12, Z
    1788:	d1 80       	ldd	r13, Z+1	; 0x01
    178a:	f1 e0       	ldi	r31, 0x01	; 1
    178c:	cf 1a       	sub	r12, r31
    178e:	d1 08       	sbc	r13, r1
    1790:	68 94       	set
    1792:	aa 24       	eor	r10, r10
    1794:	a1 f8       	bld	r10, 1
    1796:	b1 2c       	mov	r11, r1
    1798:	51 2c       	mov	r5, r1
    179a:	41 2c       	mov	r4, r1
    179c:	87 e8       	ldi	r24, 0x87	; 135
    179e:	92 e0       	ldi	r25, 0x02	; 2
    17a0:	0e 94 44 17 	call	0x2e88	; 0x2e88 <_ZN9GATTClass14attributeCountEv>
    17a4:	c8 16       	cp	r12, r24
    17a6:	d9 06       	cpc	r13, r25
    17a8:	08 f0       	brcs	.+2      	; 0x17ac <_ZN8ATTClass11findInfoReqEjhPh+0xcc>
    17aa:	77 c0       	rjmp	.+238    	; 0x189a <_ZN8ATTClass11findInfoReqEjhPh+0x1ba>
    17ac:	a9 81       	ldd	r26, Y+1	; 0x01
    17ae:	ba 81       	ldd	r27, Y+2	; 0x02
    17b0:	12 96       	adiw	r26, 0x02	; 2
    17b2:	8d 91       	ld	r24, X+
    17b4:	9c 91       	ld	r25, X
    17b6:	13 97       	sbiw	r26, 0x03	; 3
    17b8:	01 97       	sbiw	r24, 0x01	; 1
    17ba:	8c 15       	cp	r24, r12
    17bc:	9d 05       	cpc	r25, r13
    17be:	08 f0       	brcs	.+2      	; 0x17c2 <_ZN8ATTClass11findInfoReqEjhPh+0xe2>
    17c0:	8d c0       	rjmp	.+282    	; 0x18dc <_ZN8ATTClass11findInfoReqEjhPh+0x1fc>
    17c2:	6b c0       	rjmp	.+214    	; 0x189a <_ZN8ATTClass11findInfoReqEjhPh+0x1ba>
    17c4:	c8 01       	movw	r24, r16
    17c6:	0e 94 37 02 	call	0x46e	; 0x46e <_ZN19LocalCharacteristic11valueHandleEv>
    17ca:	c8 16       	cp	r12, r24
    17cc:	d9 06       	cpc	r13, r25
    17ce:	61 f0       	breq	.+24     	; 0x17e8 <_ZN8ATTClass11findInfoReqEjhPh+0x108>
    17d0:	c8 01       	movw	r24, r16
    17d2:	68 da       	rcall	.-2864   	; 0xca4 <_ZN12BLEAttribute10uuidLengthEv>
    17d4:	88 2e       	mov	r8, r24
    17d6:	91 2c       	mov	r9, r1
    17d8:	b2 e0       	ldi	r27, 0x02	; 2
    17da:	8b 16       	cp	r8, r27
    17dc:	91 04       	cpc	r9, r1
    17de:	61 f0       	breq	.+24     	; 0x17f8 <_ZN8ATTClass11findInfoReqEjhPh+0x118>
    17e0:	45 2d       	mov	r20, r5
    17e2:	82 e0       	ldi	r24, 0x02	; 2
    17e4:	94 2d       	mov	r25, r4
    17e6:	0b c0       	rjmp	.+22     	; 0x17fe <_ZN8ATTClass11findInfoReqEjhPh+0x11e>
    17e8:	68 94       	set
    17ea:	88 24       	eor	r8, r8
    17ec:	81 f8       	bld	r8, 1
    17ee:	94 2c       	mov	r9, r4
    17f0:	41 e0       	ldi	r20, 0x01	; 1
    17f2:	81 e0       	ldi	r24, 0x01	; 1
    17f4:	90 e0       	ldi	r25, 0x00	; 0
    17f6:	03 c0       	rjmp	.+6      	; 0x17fe <_ZN8ATTClass11findInfoReqEjhPh+0x11e>
    17f8:	45 2d       	mov	r20, r5
    17fa:	81 e0       	ldi	r24, 0x01	; 1
    17fc:	90 e0       	ldi	r25, 0x00	; 0
    17fe:	f3 01       	movw	r30, r6
    1800:	21 81       	ldd	r18, Z+1	; 0x01
    1802:	21 11       	cpse	r18, r1
    1804:	01 c0       	rjmp	.+2      	; 0x1808 <_ZN8ATTClass11findInfoReqEjhPh+0x128>
    1806:	81 83       	std	Z+1, r24	; 0x01
    1808:	d3 01       	movw	r26, r6
    180a:	11 96       	adiw	r26, 0x01	; 1
    180c:	2c 91       	ld	r18, X
    180e:	30 e0       	ldi	r19, 0x00	; 0
    1810:	82 17       	cp	r24, r18
    1812:	93 07       	cpc	r25, r19
    1814:	09 f0       	breq	.+2      	; 0x1818 <_ZN8ATTClass11findInfoReqEjhPh+0x138>
    1816:	41 c0       	rjmp	.+130    	; 0x189a <_ZN8ATTClass11findInfoReqEjhPh+0x1ba>
    1818:	f3 01       	movw	r30, r6
    181a:	ea 0d       	add	r30, r10
    181c:	fb 1d       	adc	r31, r11
    181e:	d1 82       	std	Z+1, r13	; 0x01
    1820:	c0 82       	st	Z, r12
    1822:	75 01       	movw	r14, r10
    1824:	b2 e0       	ldi	r27, 0x02	; 2
    1826:	eb 0e       	add	r14, r27
    1828:	f1 1c       	adc	r15, r1
    182a:	41 11       	cpse	r20, r1
    182c:	0b c0       	rjmp	.+22     	; 0x1844 <_ZN8ATTClass11findInfoReqEjhPh+0x164>
    182e:	d8 01       	movw	r26, r16
    1830:	ed 91       	ld	r30, X+
    1832:	fc 91       	ld	r31, X
    1834:	04 80       	ldd	r0, Z+4	; 0x04
    1836:	f5 81       	ldd	r31, Z+5	; 0x05
    1838:	e0 2d       	mov	r30, r0
    183a:	c8 01       	movw	r24, r16
    183c:	09 95       	icall
    183e:	81 15       	cp	r24, r1
    1840:	99 42       	sbci	r25, 0x29	; 41
    1842:	69 f4       	brne	.+26     	; 0x185e <_ZN8ATTClass11findInfoReqEjhPh+0x17e>
    1844:	c8 01       	movw	r24, r16
    1846:	2b da       	rcall	.-2986   	; 0xc9e <_ZN12BLEAttribute8uuidDataEv>
    1848:	a4 01       	movw	r20, r8
    184a:	bc 01       	movw	r22, r24
    184c:	c3 01       	movw	r24, r6
    184e:	8e 0d       	add	r24, r14
    1850:	9f 1d       	adc	r25, r15
    1852:	0e 94 a1 29 	call	0x5342	; 0x5342 <memcpy>
    1856:	57 01       	movw	r10, r14
    1858:	a8 0c       	add	r10, r8
    185a:	b9 1c       	adc	r11, r9
    185c:	10 c0       	rjmp	.+32     	; 0x187e <_ZN8ATTClass11findInfoReqEjhPh+0x19e>
    185e:	d8 01       	movw	r26, r16
    1860:	ed 91       	ld	r30, X+
    1862:	fc 91       	ld	r31, X
    1864:	04 80       	ldd	r0, Z+4	; 0x04
    1866:	f5 81       	ldd	r31, Z+5	; 0x05
    1868:	e0 2d       	mov	r30, r0
    186a:	c8 01       	movw	r24, r16
    186c:	09 95       	icall
    186e:	f3 01       	movw	r30, r6
    1870:	ee 0d       	add	r30, r14
    1872:	ff 1d       	adc	r31, r15
    1874:	91 83       	std	Z+1, r25	; 0x01
    1876:	80 83       	st	Z, r24
    1878:	b4 e0       	ldi	r27, 0x04	; 4
    187a:	ab 0e       	add	r10, r27
    187c:	b1 1c       	adc	r11, r1
    187e:	e2 e0       	ldi	r30, 0x02	; 2
    1880:	8e 0e       	add	r8, r30
    1882:	91 1c       	adc	r9, r1
    1884:	8a 0c       	add	r8, r10
    1886:	9b 1c       	adc	r9, r11
    1888:	d1 01       	movw	r26, r2
    188a:	16 96       	adiw	r26, 0x06	; 6
    188c:	8d 91       	ld	r24, X+
    188e:	9c 91       	ld	r25, X
    1890:	17 97       	sbiw	r26, 0x07	; 7
    1892:	88 15       	cp	r24, r8
    1894:	99 05       	cpc	r25, r9
    1896:	08 f0       	brcs	.+2      	; 0x189a <_ZN8ATTClass11findInfoReqEjhPh+0x1ba>
    1898:	81 cf       	rjmp	.-254    	; 0x179c <_ZN8ATTClass11findInfoReqEjhPh+0xbc>
    189a:	b2 e0       	ldi	r27, 0x02	; 2
    189c:	ab 16       	cp	r10, r27
    189e:	b1 04       	cpc	r11, r1
    18a0:	59 f4       	brne	.+22     	; 0x18b8 <_ZN8ATTClass11findInfoReqEjhPh+0x1d8>
    18a2:	e9 81       	ldd	r30, Y+1	; 0x01
    18a4:	fa 81       	ldd	r31, Y+2	; 0x02
    18a6:	20 81       	ld	r18, Z
    18a8:	31 81       	ldd	r19, Z+1	; 0x01
    18aa:	0a e0       	ldi	r16, 0x0A	; 10
    18ac:	44 e0       	ldi	r20, 0x04	; 4
    18ae:	6f 81       	ldd	r22, Y+7	; 0x07
    18b0:	78 85       	ldd	r23, Y+8	; 0x08
    18b2:	c1 01       	movw	r24, r2
    18b4:	bc de       	rcall	.-648    	; 0x162e <_ZN8ATTClass9sendErrorEjhjh>
    18b6:	0a c0       	rjmp	.+20     	; 0x18cc <_ZN8ATTClass11findInfoReqEjhPh+0x1ec>
    18b8:	09 85       	ldd	r16, Y+9	; 0x09
    18ba:	1a 85       	ldd	r17, Y+10	; 0x0a
    18bc:	2a 2d       	mov	r18, r10
    18be:	44 e0       	ldi	r20, 0x04	; 4
    18c0:	6f 81       	ldd	r22, Y+7	; 0x07
    18c2:	78 85       	ldd	r23, Y+8	; 0x08
    18c4:	87 e6       	ldi	r24, 0x67	; 103
    18c6:	93 e0       	ldi	r25, 0x03	; 3
    18c8:	0e 94 76 19 	call	0x32ec	; 0x32ec <_ZN8HCIClass13sendAclPacketEjhhPv>
    18cc:	2b 81       	ldd	r18, Y+3	; 0x03
    18ce:	3c 81       	ldd	r19, Y+4	; 0x04
    18d0:	0f b6       	in	r0, 0x3f	; 63
    18d2:	f8 94       	cli
    18d4:	3e bf       	out	0x3e, r19	; 62
    18d6:	0f be       	out	0x3f, r0	; 63
    18d8:	2d bf       	out	0x3d, r18	; 61
    18da:	15 c0       	rjmp	.+42     	; 0x1906 <_ZN8ATTClass11findInfoReqEjhPh+0x226>
    18dc:	b6 01       	movw	r22, r12
    18de:	87 e8       	ldi	r24, 0x87	; 135
    18e0:	92 e0       	ldi	r25, 0x02	; 2
    18e2:	0e 94 4a 17 	call	0x2e94	; 0x2e94 <_ZN9GATTClass9attributeEj>
    18e6:	8c 01       	movw	r16, r24
    18e8:	3f ef       	ldi	r19, 0xFF	; 255
    18ea:	c3 1a       	sub	r12, r19
    18ec:	d3 0a       	sbc	r13, r19
    18ee:	dc 01       	movw	r26, r24
    18f0:	ed 91       	ld	r30, X+
    18f2:	fc 91       	ld	r31, X
    18f4:	04 80       	ldd	r0, Z+4	; 0x04
    18f6:	f5 81       	ldd	r31, Z+5	; 0x05
    18f8:	e0 2d       	mov	r30, r0
    18fa:	09 95       	icall
    18fc:	83 30       	cpi	r24, 0x03	; 3
    18fe:	98 42       	sbci	r25, 0x28	; 40
    1900:	09 f0       	breq	.+2      	; 0x1904 <_ZN8ATTClass11findInfoReqEjhPh+0x224>
    1902:	66 cf       	rjmp	.-308    	; 0x17d0 <_ZN8ATTClass11findInfoReqEjhPh+0xf0>
    1904:	5f cf       	rjmp	.-322    	; 0x17c4 <_ZN8ATTClass11findInfoReqEjhPh+0xe4>
    1906:	ed 81       	ldd	r30, Y+5	; 0x05
    1908:	fe 81       	ldd	r31, Y+6	; 0x06
    190a:	0f b6       	in	r0, 0x3f	; 63
    190c:	f8 94       	cli
    190e:	fe bf       	out	0x3e, r31	; 62
    1910:	0f be       	out	0x3f, r0	; 63
    1912:	ed bf       	out	0x3d, r30	; 61
    1914:	2a 96       	adiw	r28, 0x0a	; 10
    1916:	0f b6       	in	r0, 0x3f	; 63
    1918:	f8 94       	cli
    191a:	de bf       	out	0x3e, r29	; 62
    191c:	0f be       	out	0x3f, r0	; 63
    191e:	cd bf       	out	0x3d, r28	; 61
    1920:	df 91       	pop	r29
    1922:	cf 91       	pop	r28
    1924:	1f 91       	pop	r17
    1926:	0f 91       	pop	r16
    1928:	ff 90       	pop	r15
    192a:	ef 90       	pop	r14
    192c:	df 90       	pop	r13
    192e:	cf 90       	pop	r12
    1930:	bf 90       	pop	r11
    1932:	af 90       	pop	r10
    1934:	9f 90       	pop	r9
    1936:	8f 90       	pop	r8
    1938:	7f 90       	pop	r7
    193a:	6f 90       	pop	r6
    193c:	5f 90       	pop	r5
    193e:	4f 90       	pop	r4
    1940:	3f 90       	pop	r3
    1942:	2f 90       	pop	r2
    1944:	08 95       	ret

00001946 <_ZN8ATTClass13findByTypeReqEjhPh>:
    1946:	2f 92       	push	r2
    1948:	3f 92       	push	r3
    194a:	4f 92       	push	r4
    194c:	5f 92       	push	r5
    194e:	6f 92       	push	r6
    1950:	7f 92       	push	r7
    1952:	8f 92       	push	r8
    1954:	9f 92       	push	r9
    1956:	af 92       	push	r10
    1958:	bf 92       	push	r11
    195a:	cf 92       	push	r12
    195c:	df 92       	push	r13
    195e:	ef 92       	push	r14
    1960:	ff 92       	push	r15
    1962:	0f 93       	push	r16
    1964:	1f 93       	push	r17
    1966:	cf 93       	push	r28
    1968:	df 93       	push	r29
    196a:	cd b7       	in	r28, 0x3d	; 61
    196c:	de b7       	in	r29, 0x3e	; 62
    196e:	28 97       	sbiw	r28, 0x08	; 8
    1970:	0f b6       	in	r0, 0x3f	; 63
    1972:	f8 94       	cli
    1974:	de bf       	out	0x3e, r29	; 62
    1976:	0f be       	out	0x3f, r0	; 63
    1978:	cd bf       	out	0x3d, r28	; 61
    197a:	4c 01       	movw	r8, r24
    197c:	7a 83       	std	Y+2, r23	; 0x02
    197e:	69 83       	std	Y+1, r22	; 0x01
    1980:	69 01       	movw	r12, r18
    1982:	4d b6       	in	r4, 0x3d	; 61
    1984:	5e b6       	in	r5, 0x3e	; 62
    1986:	2d b6       	in	r2, 0x3d	; 61
    1988:	3e b6       	in	r3, 0x3e	; 62
    198a:	46 30       	cpi	r20, 0x06	; 6
    198c:	60 f4       	brcc	.+24     	; 0x19a6 <_ZN8ATTClass13findByTypeReqEjhPh+0x60>
    198e:	d9 01       	movw	r26, r18
    1990:	2d 91       	ld	r18, X+
    1992:	3c 91       	ld	r19, X
    1994:	04 e0       	ldi	r16, 0x04	; 4
    1996:	47 e0       	ldi	r20, 0x07	; 7
    1998:	4a de       	rcall	.-876    	; 0x162e <_ZN8ATTClass9sendErrorEjhjh>
    199a:	0f b6       	in	r0, 0x3f	; 63
    199c:	f8 94       	cli
    199e:	5e be       	out	0x3e, r5	; 62
    19a0:	0f be       	out	0x3f, r0	; 63
    19a2:	4d be       	out	0x3d, r4	; 61
    19a4:	a5 c0       	rjmp	.+330    	; 0x1af0 <_ZN8ATTClass13findByTypeReqEjhPh+0x1aa>
    19a6:	fc 01       	movw	r30, r24
    19a8:	86 81       	ldd	r24, Z+6	; 0x06
    19aa:	97 81       	ldd	r25, Z+7	; 0x07
    19ac:	2d b7       	in	r18, 0x3d	; 61
    19ae:	3e b7       	in	r19, 0x3e	; 62
    19b0:	28 1b       	sub	r18, r24
    19b2:	39 0b       	sbc	r19, r25
    19b4:	0f b6       	in	r0, 0x3f	; 63
    19b6:	f8 94       	cli
    19b8:	3e bf       	out	0x3e, r19	; 62
    19ba:	0f be       	out	0x3f, r0	; 63
    19bc:	2d bf       	out	0x3d, r18	; 61
    19be:	8d b7       	in	r24, 0x3d	; 61
    19c0:	9e b7       	in	r25, 0x3e	; 62
    19c2:	01 96       	adiw	r24, 0x01	; 1
    19c4:	9c 83       	std	Y+4, r25	; 0x04
    19c6:	8b 83       	std	Y+3, r24	; 0x03
    19c8:	3c 01       	movw	r6, r24
    19ca:	87 e0       	ldi	r24, 0x07	; 7
    19cc:	ad b7       	in	r26, 0x3d	; 61
    19ce:	be b7       	in	r27, 0x3e	; 62
    19d0:	11 96       	adiw	r26, 0x01	; 1
    19d2:	8c 93       	st	X, r24
    19d4:	f6 01       	movw	r30, r12
    19d6:	84 81       	ldd	r24, Z+4	; 0x04
    19d8:	95 81       	ldd	r25, Z+5	; 0x05
    19da:	81 15       	cp	r24, r1
    19dc:	98 42       	sbci	r25, 0x28	; 40
    19de:	09 f0       	breq	.+2      	; 0x19e2 <_ZN8ATTClass13findByTypeReqEjhPh+0x9c>
    19e0:	59 c0       	rjmp	.+178    	; 0x1a94 <_ZN8ATTClass13findByTypeReqEjhPh+0x14e>
    19e2:	50 e0       	ldi	r21, 0x00	; 0
    19e4:	9a 01       	movw	r18, r20
    19e6:	26 50       	subi	r18, 0x06	; 6
    19e8:	31 09       	sbc	r19, r1
    19ea:	3e 83       	std	Y+6, r19	; 0x06
    19ec:	2d 83       	std	Y+5, r18	; 0x05
    19ee:	d6 01       	movw	r26, r12
    19f0:	0d 91       	ld	r16, X+
    19f2:	1c 91       	ld	r17, X
    19f4:	01 50       	subi	r16, 0x01	; 1
    19f6:	11 09       	sbc	r17, r1
    19f8:	aa 24       	eor	r10, r10
    19fa:	a3 94       	inc	r10
    19fc:	b1 2c       	mov	r11, r1
    19fe:	f6 01       	movw	r30, r12
    1a00:	36 96       	adiw	r30, 0x06	; 6
    1a02:	f8 87       	std	Y+8, r31	; 0x08
    1a04:	ef 83       	std	Y+7, r30	; 0x07
    1a06:	87 e8       	ldi	r24, 0x87	; 135
    1a08:	92 e0       	ldi	r25, 0x02	; 2
    1a0a:	0e 94 44 17 	call	0x2e88	; 0x2e88 <_ZN9GATTClass14attributeCountEv>
    1a0e:	08 17       	cp	r16, r24
    1a10:	19 07       	cpc	r17, r25
    1a12:	08 f0       	brcs	.+2      	; 0x1a16 <_ZN8ATTClass13findByTypeReqEjhPh+0xd0>
    1a14:	3b c0       	rjmp	.+118    	; 0x1a8c <_ZN8ATTClass13findByTypeReqEjhPh+0x146>
    1a16:	d6 01       	movw	r26, r12
    1a18:	12 96       	adiw	r26, 0x02	; 2
    1a1a:	8d 91       	ld	r24, X+
    1a1c:	9c 91       	ld	r25, X
    1a1e:	13 97       	sbiw	r26, 0x03	; 3
    1a20:	01 97       	sbiw	r24, 0x01	; 1
    1a22:	80 17       	cp	r24, r16
    1a24:	91 07       	cpc	r25, r17
    1a26:	08 f0       	brcs	.+2      	; 0x1a2a <_ZN8ATTClass13findByTypeReqEjhPh+0xe4>
    1a28:	4f c0       	rjmp	.+158    	; 0x1ac8 <_ZN8ATTClass13findByTypeReqEjhPh+0x182>
    1a2a:	30 c0       	rjmp	.+96     	; 0x1a8c <_ZN8ATTClass13findByTypeReqEjhPh+0x146>
    1a2c:	c7 01       	movw	r24, r14
    1a2e:	3a d9       	rcall	.-3468   	; 0xca4 <_ZN12BLEAttribute10uuidLengthEv>
    1a30:	90 e0       	ldi	r25, 0x00	; 0
    1a32:	ed 81       	ldd	r30, Y+5	; 0x05
    1a34:	fe 81       	ldd	r31, Y+6	; 0x06
    1a36:	e8 17       	cp	r30, r24
    1a38:	f9 07       	cpc	r31, r25
    1a3a:	d9 f4       	brne	.+54     	; 0x1a72 <_ZN8ATTClass13findByTypeReqEjhPh+0x12c>
    1a3c:	c7 01       	movw	r24, r14
    1a3e:	2f d9       	rcall	.-3490   	; 0xc9e <_ZN12BLEAttribute8uuidDataEv>
    1a40:	4d 81       	ldd	r20, Y+5	; 0x05
    1a42:	5e 81       	ldd	r21, Y+6	; 0x06
    1a44:	6f 81       	ldd	r22, Y+7	; 0x07
    1a46:	78 85       	ldd	r23, Y+8	; 0x08
    1a48:	0e 94 94 29 	call	0x5328	; 0x5328 <memcmp>
    1a4c:	89 2b       	or	r24, r25
    1a4e:	89 f4       	brne	.+34     	; 0x1a72 <_ZN8ATTClass13findByTypeReqEjhPh+0x12c>
    1a50:	c7 01       	movw	r24, r14
    1a52:	4d d8       	rcall	.-3942   	; 0xaee <_ZN12LocalService11startHandleEv>
    1a54:	f3 01       	movw	r30, r6
    1a56:	ea 0d       	add	r30, r10
    1a58:	fb 1d       	adc	r31, r11
    1a5a:	91 83       	std	Z+1, r25	; 0x01
    1a5c:	80 83       	st	Z, r24
    1a5e:	c7 01       	movw	r24, r14
    1a60:	4a d8       	rcall	.-3948   	; 0xaf6 <_ZN12LocalService9endHandleEv>
    1a62:	f3 01       	movw	r30, r6
    1a64:	ea 0d       	add	r30, r10
    1a66:	fb 1d       	adc	r31, r11
    1a68:	93 83       	std	Z+3, r25	; 0x03
    1a6a:	82 83       	std	Z+2, r24	; 0x02
    1a6c:	f4 e0       	ldi	r31, 0x04	; 4
    1a6e:	af 0e       	add	r10, r31
    1a70:	b1 1c       	adc	r11, r1
    1a72:	d4 01       	movw	r26, r8
    1a74:	16 96       	adiw	r26, 0x06	; 6
    1a76:	2d 91       	ld	r18, X+
    1a78:	3c 91       	ld	r19, X
    1a7a:	17 97       	sbiw	r26, 0x07	; 7
    1a7c:	c5 01       	movw	r24, r10
    1a7e:	04 96       	adiw	r24, 0x04	; 4
    1a80:	28 17       	cp	r18, r24
    1a82:	39 07       	cpc	r19, r25
    1a84:	18 f0       	brcs	.+6      	; 0x1a8c <_ZN8ATTClass13findByTypeReqEjhPh+0x146>
    1a86:	0f 5f       	subi	r16, 0xFF	; 255
    1a88:	1f 4f       	sbci	r17, 0xFF	; 255
    1a8a:	bd cf       	rjmp	.-134    	; 0x1a06 <_ZN8ATTClass13findByTypeReqEjhPh+0xc0>
    1a8c:	b1 e0       	ldi	r27, 0x01	; 1
    1a8e:	ab 16       	cp	r10, r27
    1a90:	b1 04       	cpc	r11, r1
    1a92:	51 f4       	brne	.+20     	; 0x1aa8 <_ZN8ATTClass13findByTypeReqEjhPh+0x162>
    1a94:	f6 01       	movw	r30, r12
    1a96:	20 81       	ld	r18, Z
    1a98:	31 81       	ldd	r19, Z+1	; 0x01
    1a9a:	0a e0       	ldi	r16, 0x0A	; 10
    1a9c:	47 e0       	ldi	r20, 0x07	; 7
    1a9e:	69 81       	ldd	r22, Y+1	; 0x01
    1aa0:	7a 81       	ldd	r23, Y+2	; 0x02
    1aa2:	c4 01       	movw	r24, r8
    1aa4:	c4 dd       	rcall	.-1144   	; 0x162e <_ZN8ATTClass9sendErrorEjhjh>
    1aa6:	0a c0       	rjmp	.+20     	; 0x1abc <_ZN8ATTClass13findByTypeReqEjhPh+0x176>
    1aa8:	0b 81       	ldd	r16, Y+3	; 0x03
    1aaa:	1c 81       	ldd	r17, Y+4	; 0x04
    1aac:	2a 2d       	mov	r18, r10
    1aae:	44 e0       	ldi	r20, 0x04	; 4
    1ab0:	69 81       	ldd	r22, Y+1	; 0x01
    1ab2:	7a 81       	ldd	r23, Y+2	; 0x02
    1ab4:	87 e6       	ldi	r24, 0x67	; 103
    1ab6:	93 e0       	ldi	r25, 0x03	; 3
    1ab8:	0e 94 76 19 	call	0x32ec	; 0x32ec <_ZN8HCIClass13sendAclPacketEjhhPv>
    1abc:	0f b6       	in	r0, 0x3f	; 63
    1abe:	f8 94       	cli
    1ac0:	3e be       	out	0x3e, r3	; 62
    1ac2:	0f be       	out	0x3f, r0	; 63
    1ac4:	2d be       	out	0x3d, r2	; 61
    1ac6:	14 c0       	rjmp	.+40     	; 0x1af0 <_ZN8ATTClass13findByTypeReqEjhPh+0x1aa>
    1ac8:	b8 01       	movw	r22, r16
    1aca:	87 e8       	ldi	r24, 0x87	; 135
    1acc:	92 e0       	ldi	r25, 0x02	; 2
    1ace:	0e 94 4a 17 	call	0x2e94	; 0x2e94 <_ZN9GATTClass9attributeEj>
    1ad2:	7c 01       	movw	r14, r24
    1ad4:	dc 01       	movw	r26, r24
    1ad6:	ed 91       	ld	r30, X+
    1ad8:	fc 91       	ld	r31, X
    1ada:	04 80       	ldd	r0, Z+4	; 0x04
    1adc:	f5 81       	ldd	r31, Z+5	; 0x05
    1ade:	e0 2d       	mov	r30, r0
    1ae0:	09 95       	icall
    1ae2:	f6 01       	movw	r30, r12
    1ae4:	24 81       	ldd	r18, Z+4	; 0x04
    1ae6:	35 81       	ldd	r19, Z+5	; 0x05
    1ae8:	82 17       	cp	r24, r18
    1aea:	93 07       	cpc	r25, r19
    1aec:	11 f6       	brne	.-124    	; 0x1a72 <_ZN8ATTClass13findByTypeReqEjhPh+0x12c>
    1aee:	9e cf       	rjmp	.-196    	; 0x1a2c <_ZN8ATTClass13findByTypeReqEjhPh+0xe6>
    1af0:	0f b6       	in	r0, 0x3f	; 63
    1af2:	f8 94       	cli
    1af4:	5e be       	out	0x3e, r5	; 62
    1af6:	0f be       	out	0x3f, r0	; 63
    1af8:	4d be       	out	0x3d, r4	; 61
    1afa:	28 96       	adiw	r28, 0x08	; 8
    1afc:	0f b6       	in	r0, 0x3f	; 63
    1afe:	f8 94       	cli
    1b00:	de bf       	out	0x3e, r29	; 62
    1b02:	0f be       	out	0x3f, r0	; 63
    1b04:	cd bf       	out	0x3d, r28	; 61
    1b06:	df 91       	pop	r29
    1b08:	cf 91       	pop	r28
    1b0a:	1f 91       	pop	r17
    1b0c:	0f 91       	pop	r16
    1b0e:	ff 90       	pop	r15
    1b10:	ef 90       	pop	r14
    1b12:	df 90       	pop	r13
    1b14:	cf 90       	pop	r12
    1b16:	bf 90       	pop	r11
    1b18:	af 90       	pop	r10
    1b1a:	9f 90       	pop	r9
    1b1c:	8f 90       	pop	r8
    1b1e:	7f 90       	pop	r7
    1b20:	6f 90       	pop	r6
    1b22:	5f 90       	pop	r5
    1b24:	4f 90       	pop	r4
    1b26:	3f 90       	pop	r3
    1b28:	2f 90       	pop	r2
    1b2a:	08 95       	ret

00001b2c <_ZN8ATTClass14readByGroupReqEjhPh>:
    1b2c:	2f 92       	push	r2
    1b2e:	3f 92       	push	r3
    1b30:	4f 92       	push	r4
    1b32:	5f 92       	push	r5
    1b34:	6f 92       	push	r6
    1b36:	7f 92       	push	r7
    1b38:	8f 92       	push	r8
    1b3a:	9f 92       	push	r9
    1b3c:	af 92       	push	r10
    1b3e:	bf 92       	push	r11
    1b40:	cf 92       	push	r12
    1b42:	df 92       	push	r13
    1b44:	ef 92       	push	r14
    1b46:	ff 92       	push	r15
    1b48:	0f 93       	push	r16
    1b4a:	1f 93       	push	r17
    1b4c:	cf 93       	push	r28
    1b4e:	df 93       	push	r29
    1b50:	cd b7       	in	r28, 0x3d	; 61
    1b52:	de b7       	in	r29, 0x3e	; 62
    1b54:	28 97       	sbiw	r28, 0x08	; 8
    1b56:	0f b6       	in	r0, 0x3f	; 63
    1b58:	f8 94       	cli
    1b5a:	de bf       	out	0x3e, r29	; 62
    1b5c:	0f be       	out	0x3f, r0	; 63
    1b5e:	cd bf       	out	0x3d, r28	; 61
    1b60:	9a 83       	std	Y+2, r25	; 0x02
    1b62:	89 83       	std	Y+1, r24	; 0x01
    1b64:	7e 83       	std	Y+6, r23	; 0x06
    1b66:	6d 83       	std	Y+5, r22	; 0x05
    1b68:	39 01       	movw	r6, r18
    1b6a:	4d b6       	in	r4, 0x3d	; 61
    1b6c:	5e b6       	in	r5, 0x3e	; 62
    1b6e:	2d b6       	in	r2, 0x3d	; 61
    1b70:	3e b6       	in	r3, 0x3e	; 62
    1b72:	46 30       	cpi	r20, 0x06	; 6
    1b74:	41 f4       	brne	.+16     	; 0x1b86 <_ZN8ATTClass14readByGroupReqEjhPh+0x5a>
    1b76:	d9 01       	movw	r26, r18
    1b78:	14 96       	adiw	r26, 0x04	; 4
    1b7a:	8d 91       	ld	r24, X+
    1b7c:	9c 91       	ld	r25, X
    1b7e:	15 97       	sbiw	r26, 0x05	; 5
    1b80:	98 52       	subi	r25, 0x28	; 40
    1b82:	02 97       	sbiw	r24, 0x02	; 2
    1b84:	80 f0       	brcs	.+32     	; 0x1ba6 <_ZN8ATTClass14readByGroupReqEjhPh+0x7a>
    1b86:	f3 01       	movw	r30, r6
    1b88:	20 81       	ld	r18, Z
    1b8a:	31 81       	ldd	r19, Z+1	; 0x01
    1b8c:	00 e1       	ldi	r16, 0x10	; 16
    1b8e:	40 e1       	ldi	r20, 0x10	; 16
    1b90:	6d 81       	ldd	r22, Y+5	; 0x05
    1b92:	7e 81       	ldd	r23, Y+6	; 0x06
    1b94:	89 81       	ldd	r24, Y+1	; 0x01
    1b96:	9a 81       	ldd	r25, Y+2	; 0x02
    1b98:	4a dd       	rcall	.-1388   	; 0x162e <_ZN8ATTClass9sendErrorEjhjh>
    1b9a:	0f b6       	in	r0, 0x3f	; 63
    1b9c:	f8 94       	cli
    1b9e:	3e be       	out	0x3e, r3	; 62
    1ba0:	0f be       	out	0x3f, r0	; 63
    1ba2:	2d be       	out	0x3d, r2	; 61
    1ba4:	ba c0       	rjmp	.+372    	; 0x1d1a <_ZN8ATTClass14readByGroupReqEjhPh+0x1ee>
    1ba6:	a9 81       	ldd	r26, Y+1	; 0x01
    1ba8:	ba 81       	ldd	r27, Y+2	; 0x02
    1baa:	16 96       	adiw	r26, 0x06	; 6
    1bac:	8d 91       	ld	r24, X+
    1bae:	9c 91       	ld	r25, X
    1bb0:	17 97       	sbiw	r26, 0x07	; 7
    1bb2:	ed b7       	in	r30, 0x3d	; 61
    1bb4:	fe b7       	in	r31, 0x3e	; 62
    1bb6:	e8 1b       	sub	r30, r24
    1bb8:	f9 0b       	sbc	r31, r25
    1bba:	0f b6       	in	r0, 0x3f	; 63
    1bbc:	f8 94       	cli
    1bbe:	fe bf       	out	0x3e, r31	; 62
    1bc0:	0f be       	out	0x3f, r0	; 63
    1bc2:	ed bf       	out	0x3d, r30	; 61
    1bc4:	2d b7       	in	r18, 0x3d	; 61
    1bc6:	3e b7       	in	r19, 0x3e	; 62
    1bc8:	2f 5f       	subi	r18, 0xFF	; 255
    1bca:	3f 4f       	sbci	r19, 0xFF	; 255
    1bcc:	38 87       	std	Y+8, r19	; 0x08
    1bce:	2f 83       	std	Y+7, r18	; 0x07
    1bd0:	49 01       	movw	r8, r18
    1bd2:	81 e1       	ldi	r24, 0x11	; 17
    1bd4:	81 83       	std	Z+1, r24	; 0x01
    1bd6:	d9 01       	movw	r26, r18
    1bd8:	11 96       	adiw	r26, 0x01	; 1
    1bda:	1c 92       	st	X, r1
    1bdc:	f3 01       	movw	r30, r6
    1bde:	00 81       	ld	r16, Z
    1be0:	11 81       	ldd	r17, Z+1	; 0x01
    1be2:	01 50       	subi	r16, 0x01	; 1
    1be4:	11 09       	sbc	r17, r1
    1be6:	68 94       	set
    1be8:	aa 24       	eor	r10, r10
    1bea:	a1 f8       	bld	r10, 1
    1bec:	b1 2c       	mov	r11, r1
    1bee:	87 e8       	ldi	r24, 0x87	; 135
    1bf0:	92 e0       	ldi	r25, 0x02	; 2
    1bf2:	0e 94 44 17 	call	0x2e88	; 0x2e88 <_ZN9GATTClass14attributeCountEv>
    1bf6:	08 17       	cp	r16, r24
    1bf8:	19 07       	cpc	r17, r25
    1bfa:	08 f0       	brcs	.+2      	; 0x1bfe <_ZN8ATTClass14readByGroupReqEjhPh+0xd2>
    1bfc:	59 c0       	rjmp	.+178    	; 0x1cb0 <_ZN8ATTClass14readByGroupReqEjhPh+0x184>
    1bfe:	d3 01       	movw	r26, r6
    1c00:	12 96       	adiw	r26, 0x02	; 2
    1c02:	8d 91       	ld	r24, X+
    1c04:	9c 91       	ld	r25, X
    1c06:	13 97       	sbiw	r26, 0x03	; 3
    1c08:	01 97       	sbiw	r24, 0x01	; 1
    1c0a:	80 17       	cp	r24, r16
    1c0c:	91 07       	cpc	r25, r17
    1c0e:	08 f0       	brcs	.+2      	; 0x1c12 <_ZN8ATTClass14readByGroupReqEjhPh+0xe6>
    1c10:	6e c0       	rjmp	.+220    	; 0x1cee <_ZN8ATTClass14readByGroupReqEjhPh+0x1c2>
    1c12:	4e c0       	rjmp	.+156    	; 0x1cb0 <_ZN8ATTClass14readByGroupReqEjhPh+0x184>
    1c14:	c7 01       	movw	r24, r14
    1c16:	46 d8       	rcall	.-3956   	; 0xca4 <_ZN12BLEAttribute10uuidLengthEv>
    1c18:	c8 2e       	mov	r12, r24
    1c1a:	b2 e0       	ldi	r27, 0x02	; 2
    1c1c:	8b 17       	cp	r24, r27
    1c1e:	21 f0       	breq	.+8      	; 0x1c28 <_ZN8ATTClass14readByGroupReqEjhPh+0xfc>
    1c20:	e4 e1       	ldi	r30, 0x14	; 20
    1c22:	eb 83       	std	Y+3, r30	; 0x03
    1c24:	1c 82       	std	Y+4, r1	; 0x04
    1c26:	03 c0       	rjmp	.+6      	; 0x1c2e <_ZN8ATTClass14readByGroupReqEjhPh+0x102>
    1c28:	f6 e0       	ldi	r31, 0x06	; 6
    1c2a:	fb 83       	std	Y+3, r31	; 0x03
    1c2c:	1c 82       	std	Y+4, r1	; 0x04
    1c2e:	d4 01       	movw	r26, r8
    1c30:	11 96       	adiw	r26, 0x01	; 1
    1c32:	8c 91       	ld	r24, X
    1c34:	11 97       	sbiw	r26, 0x01	; 1
    1c36:	81 11       	cpse	r24, r1
    1c38:	03 c0       	rjmp	.+6      	; 0x1c40 <_ZN8ATTClass14readByGroupReqEjhPh+0x114>
    1c3a:	eb 81       	ldd	r30, Y+3	; 0x03
    1c3c:	11 96       	adiw	r26, 0x01	; 1
    1c3e:	ec 93       	st	X, r30
    1c40:	d4 01       	movw	r26, r8
    1c42:	11 96       	adiw	r26, 0x01	; 1
    1c44:	8c 91       	ld	r24, X
    1c46:	90 e0       	ldi	r25, 0x00	; 0
    1c48:	eb 81       	ldd	r30, Y+3	; 0x03
    1c4a:	fc 81       	ldd	r31, Y+4	; 0x04
    1c4c:	e8 17       	cp	r30, r24
    1c4e:	f9 07       	cpc	r31, r25
    1c50:	79 f5       	brne	.+94     	; 0x1cb0 <_ZN8ATTClass14readByGroupReqEjhPh+0x184>
    1c52:	c7 01       	movw	r24, r14
    1c54:	0e 94 77 05 	call	0xaee	; 0xaee <_ZN12LocalService11startHandleEv>
    1c58:	f4 01       	movw	r30, r8
    1c5a:	ea 0d       	add	r30, r10
    1c5c:	fb 1d       	adc	r31, r11
    1c5e:	91 83       	std	Z+1, r25	; 0x01
    1c60:	80 83       	st	Z, r24
    1c62:	c7 01       	movw	r24, r14
    1c64:	0e 94 7b 05 	call	0xaf6	; 0xaf6 <_ZN12LocalService9endHandleEv>
    1c68:	f4 01       	movw	r30, r8
    1c6a:	ea 0d       	add	r30, r10
    1c6c:	fb 1d       	adc	r31, r11
    1c6e:	93 83       	std	Z+3, r25	; 0x03
    1c70:	82 83       	std	Z+2, r24	; 0x02
    1c72:	f4 e0       	ldi	r31, 0x04	; 4
    1c74:	af 0e       	add	r10, r31
    1c76:	b1 1c       	adc	r11, r1
    1c78:	d1 2c       	mov	r13, r1
    1c7a:	c7 01       	movw	r24, r14
    1c7c:	10 d8       	rcall	.-4064   	; 0xc9e <_ZN12BLEAttribute8uuidDataEv>
    1c7e:	a6 01       	movw	r20, r12
    1c80:	bc 01       	movw	r22, r24
    1c82:	c4 01       	movw	r24, r8
    1c84:	8a 0d       	add	r24, r10
    1c86:	9b 1d       	adc	r25, r11
    1c88:	0e 94 a1 29 	call	0x5342	; 0x5342 <memcpy>
    1c8c:	ac 0c       	add	r10, r12
    1c8e:	bd 1c       	adc	r11, r13
    1c90:	8b 81       	ldd	r24, Y+3	; 0x03
    1c92:	9c 81       	ldd	r25, Y+4	; 0x04
    1c94:	8a 0d       	add	r24, r10
    1c96:	9b 1d       	adc	r25, r11
    1c98:	a9 81       	ldd	r26, Y+1	; 0x01
    1c9a:	ba 81       	ldd	r27, Y+2	; 0x02
    1c9c:	16 96       	adiw	r26, 0x06	; 6
    1c9e:	2d 91       	ld	r18, X+
    1ca0:	3c 91       	ld	r19, X
    1ca2:	17 97       	sbiw	r26, 0x07	; 7
    1ca4:	28 17       	cp	r18, r24
    1ca6:	39 07       	cpc	r19, r25
    1ca8:	18 f0       	brcs	.+6      	; 0x1cb0 <_ZN8ATTClass14readByGroupReqEjhPh+0x184>
    1caa:	0f 5f       	subi	r16, 0xFF	; 255
    1cac:	1f 4f       	sbci	r17, 0xFF	; 255
    1cae:	9f cf       	rjmp	.-194    	; 0x1bee <_ZN8ATTClass14readByGroupReqEjhPh+0xc2>
    1cb0:	b2 e0       	ldi	r27, 0x02	; 2
    1cb2:	ab 16       	cp	r10, r27
    1cb4:	b1 04       	cpc	r11, r1
    1cb6:	59 f4       	brne	.+22     	; 0x1cce <_ZN8ATTClass14readByGroupReqEjhPh+0x1a2>
    1cb8:	f3 01       	movw	r30, r6
    1cba:	20 81       	ld	r18, Z
    1cbc:	31 81       	ldd	r19, Z+1	; 0x01
    1cbe:	0a e0       	ldi	r16, 0x0A	; 10
    1cc0:	40 e1       	ldi	r20, 0x10	; 16
    1cc2:	6d 81       	ldd	r22, Y+5	; 0x05
    1cc4:	7e 81       	ldd	r23, Y+6	; 0x06
    1cc6:	89 81       	ldd	r24, Y+1	; 0x01
    1cc8:	9a 81       	ldd	r25, Y+2	; 0x02
    1cca:	b1 dc       	rcall	.-1694   	; 0x162e <_ZN8ATTClass9sendErrorEjhjh>
    1ccc:	0a c0       	rjmp	.+20     	; 0x1ce2 <_ZN8ATTClass14readByGroupReqEjhPh+0x1b6>
    1cce:	0f 81       	ldd	r16, Y+7	; 0x07
    1cd0:	18 85       	ldd	r17, Y+8	; 0x08
    1cd2:	2a 2d       	mov	r18, r10
    1cd4:	44 e0       	ldi	r20, 0x04	; 4
    1cd6:	6d 81       	ldd	r22, Y+5	; 0x05
    1cd8:	7e 81       	ldd	r23, Y+6	; 0x06
    1cda:	87 e6       	ldi	r24, 0x67	; 103
    1cdc:	93 e0       	ldi	r25, 0x03	; 3
    1cde:	0e 94 76 19 	call	0x32ec	; 0x32ec <_ZN8HCIClass13sendAclPacketEjhhPv>
    1ce2:	0f b6       	in	r0, 0x3f	; 63
    1ce4:	f8 94       	cli
    1ce6:	3e be       	out	0x3e, r3	; 62
    1ce8:	0f be       	out	0x3f, r0	; 63
    1cea:	2d be       	out	0x3d, r2	; 61
    1cec:	16 c0       	rjmp	.+44     	; 0x1d1a <_ZN8ATTClass14readByGroupReqEjhPh+0x1ee>
    1cee:	b8 01       	movw	r22, r16
    1cf0:	87 e8       	ldi	r24, 0x87	; 135
    1cf2:	92 e0       	ldi	r25, 0x02	; 2
    1cf4:	0e 94 4a 17 	call	0x2e94	; 0x2e94 <_ZN9GATTClass9attributeEj>
    1cf8:	7c 01       	movw	r14, r24
    1cfa:	d3 01       	movw	r26, r6
    1cfc:	14 96       	adiw	r26, 0x04	; 4
    1cfe:	cd 90       	ld	r12, X+
    1d00:	dc 90       	ld	r13, X
    1d02:	15 97       	sbiw	r26, 0x05	; 5
    1d04:	dc 01       	movw	r26, r24
    1d06:	ed 91       	ld	r30, X+
    1d08:	fc 91       	ld	r31, X
    1d0a:	04 80       	ldd	r0, Z+4	; 0x04
    1d0c:	f5 81       	ldd	r31, Z+5	; 0x05
    1d0e:	e0 2d       	mov	r30, r0
    1d10:	09 95       	icall
    1d12:	c8 16       	cp	r12, r24
    1d14:	d9 06       	cpc	r13, r25
    1d16:	49 f6       	brne	.-110    	; 0x1caa <_ZN8ATTClass14readByGroupReqEjhPh+0x17e>
    1d18:	7d cf       	rjmp	.-262    	; 0x1c14 <_ZN8ATTClass14readByGroupReqEjhPh+0xe8>
    1d1a:	0f b6       	in	r0, 0x3f	; 63
    1d1c:	f8 94       	cli
    1d1e:	5e be       	out	0x3e, r5	; 62
    1d20:	0f be       	out	0x3f, r0	; 63
    1d22:	4d be       	out	0x3d, r4	; 61
    1d24:	28 96       	adiw	r28, 0x08	; 8
    1d26:	0f b6       	in	r0, 0x3f	; 63
    1d28:	f8 94       	cli
    1d2a:	de bf       	out	0x3e, r29	; 62
    1d2c:	0f be       	out	0x3f, r0	; 63
    1d2e:	cd bf       	out	0x3d, r28	; 61
    1d30:	df 91       	pop	r29
    1d32:	cf 91       	pop	r28
    1d34:	1f 91       	pop	r17
    1d36:	0f 91       	pop	r16
    1d38:	ff 90       	pop	r15
    1d3a:	ef 90       	pop	r14
    1d3c:	df 90       	pop	r13
    1d3e:	cf 90       	pop	r12
    1d40:	bf 90       	pop	r11
    1d42:	af 90       	pop	r10
    1d44:	9f 90       	pop	r9
    1d46:	8f 90       	pop	r8
    1d48:	7f 90       	pop	r7
    1d4a:	6f 90       	pop	r6
    1d4c:	5f 90       	pop	r5
    1d4e:	4f 90       	pop	r4
    1d50:	3f 90       	pop	r3
    1d52:	2f 90       	pop	r2
    1d54:	08 95       	ret

00001d56 <_ZN8ATTClass17readOrReadBlobReqEjhhPh>:
    1d56:	2f 92       	push	r2
    1d58:	3f 92       	push	r3
    1d5a:	4f 92       	push	r4
    1d5c:	5f 92       	push	r5
    1d5e:	6f 92       	push	r6
    1d60:	7f 92       	push	r7
    1d62:	8f 92       	push	r8
    1d64:	9f 92       	push	r9
    1d66:	af 92       	push	r10
    1d68:	bf 92       	push	r11
    1d6a:	cf 92       	push	r12
    1d6c:	df 92       	push	r13
    1d6e:	ef 92       	push	r14
    1d70:	ff 92       	push	r15
    1d72:	0f 93       	push	r16
    1d74:	1f 93       	push	r17
    1d76:	cf 93       	push	r28
    1d78:	df 93       	push	r29
    1d7a:	cd b7       	in	r28, 0x3d	; 61
    1d7c:	de b7       	in	r29, 0x3e	; 62
    1d7e:	6f 97       	sbiw	r28, 0x1f	; 31
    1d80:	0f b6       	in	r0, 0x3f	; 63
    1d82:	f8 94       	cli
    1d84:	de bf       	out	0x3e, r29	; 62
    1d86:	0f be       	out	0x3f, r0	; 63
    1d88:	cd bf       	out	0x3d, r28	; 61
    1d8a:	7c 01       	movw	r14, r24
    1d8c:	4b 01       	movw	r8, r22
    1d8e:	4d 8f       	std	Y+29, r20	; 0x1d
    1d90:	cd b6       	in	r12, 0x3d	; 61
    1d92:	de b6       	in	r13, 0x3e	; 62
    1d94:	ad b6       	in	r10, 0x3d	; 61
    1d96:	be b6       	in	r11, 0x3e	; 62
    1d98:	4a 30       	cpi	r20, 0x0A	; 10
    1d9a:	41 f4       	brne	.+16     	; 0x1dac <_ZN8ATTClass17readOrReadBlobReqEjhhPh+0x56>
    1d9c:	22 30       	cpi	r18, 0x02	; 2
    1d9e:	09 f4       	brne	.+2      	; 0x1da2 <_ZN8ATTClass17readOrReadBlobReqEjhhPh+0x4c>
    1da0:	27 c1       	rjmp	.+590    	; 0x1ff0 <_ZN8ATTClass17readOrReadBlobReqEjhhPh+0x29a>
    1da2:	04 e0       	ldi	r16, 0x04	; 4
    1da4:	20 e0       	ldi	r18, 0x00	; 0
    1da6:	30 e0       	ldi	r19, 0x00	; 0
    1da8:	42 dc       	rcall	.-1916   	; 0x162e <_ZN8ATTClass9sendErrorEjhjh>
    1daa:	0b c1       	rjmp	.+534    	; 0x1fc2 <_ZN8ATTClass17readOrReadBlobReqEjhhPh+0x26c>
    1dac:	24 30       	cpi	r18, 0x04	; 4
    1dae:	09 f4       	brne	.+2      	; 0x1db2 <_ZN8ATTClass17readOrReadBlobReqEjhhPh+0x5c>
    1db0:	0e c1       	rjmp	.+540    	; 0x1fce <_ZN8ATTClass17readOrReadBlobReqEjhhPh+0x278>
    1db2:	04 e0       	ldi	r16, 0x04	; 4
    1db4:	20 e0       	ldi	r18, 0x00	; 0
    1db6:	30 e0       	ldi	r19, 0x00	; 0
    1db8:	4c e0       	ldi	r20, 0x0C	; 12
    1dba:	39 dc       	rcall	.-1934   	; 0x162e <_ZN8ATTClass9sendErrorEjhjh>
    1dbc:	02 c1       	rjmp	.+516    	; 0x1fc2 <_ZN8ATTClass17readOrReadBlobReqEjhhPh+0x26c>
    1dbe:	0a e0       	ldi	r16, 0x0A	; 10
    1dc0:	93 01       	movw	r18, r6
    1dc2:	4d 8d       	ldd	r20, Y+29	; 0x1d
    1dc4:	b4 01       	movw	r22, r8
    1dc6:	c7 01       	movw	r24, r14
    1dc8:	32 dc       	rcall	.-1948   	; 0x162e <_ZN8ATTClass9sendErrorEjhjh>
    1dca:	fb c0       	rjmp	.+502    	; 0x1fc2 <_ZN8ATTClass17readOrReadBlobReqEjhhPh+0x26c>
    1dcc:	d7 01       	movw	r26, r14
    1dce:	16 96       	adiw	r26, 0x06	; 6
    1dd0:	8d 91       	ld	r24, X+
    1dd2:	9c 91       	ld	r25, X
    1dd4:	17 97       	sbiw	r26, 0x07	; 7
    1dd6:	ed b7       	in	r30, 0x3d	; 61
    1dd8:	fe b7       	in	r31, 0x3e	; 62
    1dda:	e8 1b       	sub	r30, r24
    1ddc:	f9 0b       	sbc	r31, r25
    1dde:	0f b6       	in	r0, 0x3f	; 63
    1de0:	f8 94       	cli
    1de2:	fe bf       	out	0x3e, r31	; 62
    1de4:	0f be       	out	0x3f, r0	; 63
    1de6:	ed bf       	out	0x3d, r30	; 61
    1de8:	2d b7       	in	r18, 0x3d	; 61
    1dea:	3e b7       	in	r19, 0x3e	; 62
    1dec:	2f 5f       	subi	r18, 0xFF	; 255
    1dee:	3f 4f       	sbci	r19, 0xFF	; 255
    1df0:	3f 8f       	std	Y+31, r19	; 0x1f
    1df2:	2e 8f       	std	Y+30, r18	; 0x1e
    1df4:	8b e0       	ldi	r24, 0x0B	; 11
    1df6:	81 83       	std	Z+1, r24	; 0x01
    1df8:	b2 01       	movw	r22, r4
    1dfa:	87 e8       	ldi	r24, 0x87	; 135
    1dfc:	92 e0       	ldi	r25, 0x02	; 2
    1dfe:	0e 94 4a 17 	call	0x2e94	; 0x2e94 <_ZN9GATTClass9attributeEj>
    1e02:	2c 01       	movw	r4, r24
    1e04:	dc 01       	movw	r26, r24
    1e06:	ed 91       	ld	r30, X+
    1e08:	fc 91       	ld	r31, X
    1e0a:	04 80       	ldd	r0, Z+4	; 0x04
    1e0c:	f5 81       	ldd	r31, Z+5	; 0x05
    1e0e:	e0 2d       	mov	r30, r0
    1e10:	09 95       	icall
    1e12:	81 15       	cp	r24, r1
    1e14:	b8 e2       	ldi	r27, 0x28	; 40
    1e16:	9b 07       	cpc	r25, r27
    1e18:	61 f0       	breq	.+24     	; 0x1e32 <_ZN8ATTClass17readOrReadBlobReqEjhhPh+0xdc>
    1e1a:	21 2c       	mov	r2, r1
    1e1c:	31 2c       	mov	r3, r1
    1e1e:	1c c0       	rjmp	.+56     	; 0x1e58 <_ZN8ATTClass17readOrReadBlobReqEjhhPh+0x102>
    1e20:	23 28       	or	r2, r3
    1e22:	39 f0       	breq	.+14     	; 0x1e32 <_ZN8ATTClass17readOrReadBlobReqEjhhPh+0xdc>
    1e24:	04 e0       	ldi	r16, 0x04	; 4
    1e26:	93 01       	movw	r18, r6
    1e28:	4b e0       	ldi	r20, 0x0B	; 11
    1e2a:	b4 01       	movw	r22, r8
    1e2c:	c7 01       	movw	r24, r14
    1e2e:	ff db       	rcall	.-2050   	; 0x162e <_ZN8ATTClass9sendErrorEjhjh>
    1e30:	c8 c0       	rjmp	.+400    	; 0x1fc2 <_ZN8ATTClass17readOrReadBlobReqEjhhPh+0x26c>
    1e32:	c2 01       	movw	r24, r4
    1e34:	0e 94 52 06 	call	0xca4	; 0xca4 <_ZN12BLEAttribute10uuidLengthEv>
    1e38:	e8 2e       	mov	r14, r24
    1e3a:	f1 2c       	mov	r15, r1
    1e3c:	c2 01       	movw	r24, r4
    1e3e:	0e 94 4f 06 	call	0xc9e	; 0xc9e <_ZN12BLEAttribute8uuidDataEv>
    1e42:	a7 01       	movw	r20, r14
    1e44:	bc 01       	movw	r22, r24
    1e46:	8e 8d       	ldd	r24, Y+30	; 0x1e
    1e48:	9f 8d       	ldd	r25, Y+31	; 0x1f
    1e4a:	01 96       	adiw	r24, 0x01	; 1
    1e4c:	0e 94 a1 29 	call	0x5342	; 0x5342 <memcpy>
    1e50:	97 01       	movw	r18, r14
    1e52:	2f 5f       	subi	r18, 0xFF	; 255
    1e54:	3f 4f       	sbci	r19, 0xFF	; 255
    1e56:	a7 c0       	rjmp	.+334    	; 0x1fa6 <_ZN8ATTClass17readOrReadBlobReqEjhhPh+0x250>
    1e58:	83 30       	cpi	r24, 0x03	; 3
    1e5a:	e8 e2       	ldi	r30, 0x28	; 40
    1e5c:	9e 07       	cpc	r25, r30
    1e5e:	09 f0       	breq	.+2      	; 0x1e62 <_ZN8ATTClass17readOrReadBlobReqEjhhPh+0x10c>
    1e60:	72 c0       	rjmp	.+228    	; 0x1f46 <_ZN8ATTClass17readOrReadBlobReqEjhhPh+0x1f0>
    1e62:	c2 01       	movw	r24, r4
    1e64:	0e 94 33 02 	call	0x466	; 0x466 <_ZN19LocalCharacteristic6handleEv>
    1e68:	86 15       	cp	r24, r6
    1e6a:	97 05       	cpc	r25, r7
    1e6c:	51 f5       	brne	.+84     	; 0x1ec2 <_ZN8ATTClass17readOrReadBlobReqEjhhPh+0x16c>
    1e6e:	23 28       	or	r2, r3
    1e70:	39 f0       	breq	.+14     	; 0x1e80 <_ZN8ATTClass17readOrReadBlobReqEjhhPh+0x12a>
    1e72:	0b e0       	ldi	r16, 0x0B	; 11
    1e74:	9c 01       	movw	r18, r24
    1e76:	4d 8d       	ldd	r20, Y+29	; 0x1d
    1e78:	b4 01       	movw	r22, r8
    1e7a:	c7 01       	movw	r24, r14
    1e7c:	d8 db       	rcall	.-2128   	; 0x162e <_ZN8ATTClass9sendErrorEjhjh>
    1e7e:	a1 c0       	rjmp	.+322    	; 0x1fc2 <_ZN8ATTClass17readOrReadBlobReqEjhhPh+0x26c>
    1e80:	c2 01       	movw	r24, r4
    1e82:	0e 94 b2 01 	call	0x364	; 0x364 <_ZN19LocalCharacteristic10propertiesEv>
    1e86:	ae 8d       	ldd	r26, Y+30	; 0x1e
    1e88:	bf 8d       	ldd	r27, Y+31	; 0x1f
    1e8a:	11 96       	adiw	r26, 0x01	; 1
    1e8c:	8c 93       	st	X, r24
    1e8e:	c2 01       	movw	r24, r4
    1e90:	0e 94 37 02 	call	0x46e	; 0x46e <_ZN19LocalCharacteristic11valueHandleEv>
    1e94:	ee 8d       	ldd	r30, Y+30	; 0x1e
    1e96:	ff 8d       	ldd	r31, Y+31	; 0x1f
    1e98:	93 83       	std	Z+3, r25	; 0x03
    1e9a:	82 83       	std	Z+2, r24	; 0x02
    1e9c:	c2 01       	movw	r24, r4
    1e9e:	0e 94 52 06 	call	0xca4	; 0xca4 <_ZN12BLEAttribute10uuidLengthEv>
    1ea2:	e8 2e       	mov	r14, r24
    1ea4:	f1 2c       	mov	r15, r1
    1ea6:	c2 01       	movw	r24, r4
    1ea8:	0e 94 4f 06 	call	0xc9e	; 0xc9e <_ZN12BLEAttribute8uuidDataEv>
    1eac:	a7 01       	movw	r20, r14
    1eae:	bc 01       	movw	r22, r24
    1eb0:	8e 8d       	ldd	r24, Y+30	; 0x1e
    1eb2:	9f 8d       	ldd	r25, Y+31	; 0x1f
    1eb4:	04 96       	adiw	r24, 0x04	; 4
    1eb6:	0e 94 a1 29 	call	0x5342	; 0x5342 <memcpy>
    1eba:	97 01       	movw	r18, r14
    1ebc:	2c 5f       	subi	r18, 0xFC	; 252
    1ebe:	3f 4f       	sbci	r19, 0xFF	; 255
    1ec0:	72 c0       	rjmp	.+228    	; 0x1fa6 <_ZN8ATTClass17readOrReadBlobReqEjhhPh+0x250>
    1ec2:	c2 01       	movw	r24, r4
    1ec4:	0e 94 b2 01 	call	0x364	; 0x364 <_ZN19LocalCharacteristic10propertiesEv>
    1ec8:	81 fd       	sbrc	r24, 1
    1eca:	07 c0       	rjmp	.+14     	; 0x1eda <_ZN8ATTClass17readOrReadBlobReqEjhhPh+0x184>
    1ecc:	02 e0       	ldi	r16, 0x02	; 2
    1ece:	93 01       	movw	r18, r6
    1ed0:	4d 8d       	ldd	r20, Y+29	; 0x1d
    1ed2:	b4 01       	movw	r22, r8
    1ed4:	c7 01       	movw	r24, r14
    1ed6:	ab db       	rcall	.-2218   	; 0x162e <_ZN8ATTClass9sendErrorEjhjh>
    1ed8:	74 c0       	rjmp	.+232    	; 0x1fc2 <_ZN8ATTClass17readOrReadBlobReqEjhhPh+0x26c>
    1eda:	c2 01       	movw	r24, r4
    1edc:	0e 94 bd 01 	call	0x37a	; 0x37a <_ZN19LocalCharacteristic11valueLengthEv>
    1ee0:	28 16       	cp	r2, r24
    1ee2:	39 06       	cpc	r3, r25
    1ee4:	38 f0       	brcs	.+14     	; 0x1ef4 <_ZN8ATTClass17readOrReadBlobReqEjhhPh+0x19e>
    1ee6:	07 e0       	ldi	r16, 0x07	; 7
    1ee8:	93 01       	movw	r18, r6
    1eea:	4d 8d       	ldd	r20, Y+29	; 0x1d
    1eec:	b4 01       	movw	r22, r8
    1eee:	c7 01       	movw	r24, r14
    1ef0:	9e db       	rcall	.-2244   	; 0x162e <_ZN8ATTClass9sendErrorEjhjh>
    1ef2:	67 c0       	rjmp	.+206    	; 0x1fc2 <_ZN8ATTClass17readOrReadBlobReqEjhhPh+0x26c>
    1ef4:	82 19       	sub	r24, r2
    1ef6:	93 09       	sbc	r25, r3
    1ef8:	d7 01       	movw	r26, r14
    1efa:	16 96       	adiw	r26, 0x06	; 6
    1efc:	6d 90       	ld	r6, X+
    1efe:	7c 90       	ld	r7, X
    1f00:	17 97       	sbiw	r26, 0x07	; 7
    1f02:	b1 e0       	ldi	r27, 0x01	; 1
    1f04:	6b 1a       	sub	r6, r27
    1f06:	71 08       	sbc	r7, r1
    1f08:	86 15       	cp	r24, r6
    1f0a:	97 05       	cpc	r25, r7
    1f0c:	08 f4       	brcc	.+2      	; 0x1f10 <_ZN8ATTClass17readOrReadBlobReqEjhhPh+0x1ba>
    1f0e:	3c 01       	movw	r6, r24
    1f10:	a7 01       	movw	r20, r14
    1f12:	42 5f       	subi	r20, 0xF2	; 242
    1f14:	5f 4f       	sbci	r21, 0xFF	; 255
    1f16:	b4 01       	movw	r22, r8
    1f18:	ce 01       	movw	r24, r28
    1f1a:	01 96       	adiw	r24, 0x01	; 1
    1f1c:	20 d8       	rcall	.-4032   	; 0xf5e <_ZN9BLEDeviceC1EjPh>
    1f1e:	83 01       	movw	r16, r6
    1f20:	2e 8d       	ldd	r18, Y+30	; 0x1e
    1f22:	3f 8d       	ldd	r19, Y+31	; 0x1f
    1f24:	2f 5f       	subi	r18, 0xFF	; 255
    1f26:	3f 4f       	sbci	r19, 0xFF	; 255
    1f28:	a1 01       	movw	r20, r2
    1f2a:	be 01       	movw	r22, r28
    1f2c:	6f 5f       	subi	r22, 0xFF	; 255
    1f2e:	7f 4f       	sbci	r23, 0xFF	; 255
    1f30:	c2 01       	movw	r24, r4
    1f32:	0e 94 4b 03 	call	0x696	; 0x696 <_ZN19LocalCharacteristic9readValueE9BLEDevicejPhi>
    1f36:	ce 01       	movw	r24, r28
    1f38:	01 96       	adiw	r24, 0x01	; 1
    1f3a:	0e 94 c9 06 	call	0xd92	; 0xd92 <_ZN9BLEDeviceD1Ev>
    1f3e:	93 01       	movw	r18, r6
    1f40:	2f 5f       	subi	r18, 0xFF	; 255
    1f42:	3f 4f       	sbci	r19, 0xFF	; 255
    1f44:	30 c0       	rjmp	.+96     	; 0x1fa6 <_ZN8ATTClass17readOrReadBlobReqEjhhPh+0x250>
    1f46:	81 15       	cp	r24, r1
    1f48:	99 42       	sbci	r25, 0x29	; 41
    1f4a:	59 f5       	brne	.+86     	; 0x1fa2 <_ZN8ATTClass17readOrReadBlobReqEjhhPh+0x24c>
    1f4c:	c2 01       	movw	r24, r4
    1f4e:	0e 94 a8 04 	call	0x950	; 0x950 <_ZN15LocalDescriptor9valueSizeEv>
    1f52:	28 16       	cp	r2, r24
    1f54:	39 06       	cpc	r3, r25
    1f56:	38 f0       	brcs	.+14     	; 0x1f66 <_ZN8ATTClass17readOrReadBlobReqEjhhPh+0x210>
    1f58:	07 e0       	ldi	r16, 0x07	; 7
    1f5a:	93 01       	movw	r18, r6
    1f5c:	4d 8d       	ldd	r20, Y+29	; 0x1d
    1f5e:	b4 01       	movw	r22, r8
    1f60:	c7 01       	movw	r24, r14
    1f62:	65 db       	rcall	.-2358   	; 0x162e <_ZN8ATTClass9sendErrorEjhjh>
    1f64:	2e c0       	rjmp	.+92     	; 0x1fc2 <_ZN8ATTClass17readOrReadBlobReqEjhhPh+0x26c>
    1f66:	82 19       	sub	r24, r2
    1f68:	93 09       	sbc	r25, r3
    1f6a:	d7 01       	movw	r26, r14
    1f6c:	16 96       	adiw	r26, 0x06	; 6
    1f6e:	ed 90       	ld	r14, X+
    1f70:	fc 90       	ld	r15, X
    1f72:	17 97       	sbiw	r26, 0x07	; 7
    1f74:	b1 e0       	ldi	r27, 0x01	; 1
    1f76:	eb 1a       	sub	r14, r27
    1f78:	f1 08       	sbc	r15, r1
    1f7a:	8e 15       	cp	r24, r14
    1f7c:	9f 05       	cpc	r25, r15
    1f7e:	08 f4       	brcc	.+2      	; 0x1f82 <_ZN8ATTClass17readOrReadBlobReqEjhhPh+0x22c>
    1f80:	7c 01       	movw	r14, r24
    1f82:	c2 01       	movw	r24, r4
    1f84:	0e 94 ac 04 	call	0x958	; 0x958 <_ZN15LocalDescriptor5valueEv>
    1f88:	bc 01       	movw	r22, r24
    1f8a:	62 0d       	add	r22, r2
    1f8c:	73 1d       	adc	r23, r3
    1f8e:	a7 01       	movw	r20, r14
    1f90:	8e 8d       	ldd	r24, Y+30	; 0x1e
    1f92:	9f 8d       	ldd	r25, Y+31	; 0x1f
    1f94:	01 96       	adiw	r24, 0x01	; 1
    1f96:	0e 94 a1 29 	call	0x5342	; 0x5342 <memcpy>
    1f9a:	97 01       	movw	r18, r14
    1f9c:	2f 5f       	subi	r18, 0xFF	; 255
    1f9e:	3f 4f       	sbci	r19, 0xFF	; 255
    1fa0:	02 c0       	rjmp	.+4      	; 0x1fa6 <_ZN8ATTClass17readOrReadBlobReqEjhhPh+0x250>
    1fa2:	21 e0       	ldi	r18, 0x01	; 1
    1fa4:	30 e0       	ldi	r19, 0x00	; 0
    1fa6:	0e 8d       	ldd	r16, Y+30	; 0x1e
    1fa8:	1f 8d       	ldd	r17, Y+31	; 0x1f
    1faa:	44 e0       	ldi	r20, 0x04	; 4
    1fac:	b4 01       	movw	r22, r8
    1fae:	87 e6       	ldi	r24, 0x67	; 103
    1fb0:	93 e0       	ldi	r25, 0x03	; 3
    1fb2:	0e 94 76 19 	call	0x32ec	; 0x32ec <_ZN8HCIClass13sendAclPacketEjhhPv>
    1fb6:	0f b6       	in	r0, 0x3f	; 63
    1fb8:	f8 94       	cli
    1fba:	be be       	out	0x3e, r11	; 62
    1fbc:	0f be       	out	0x3f, r0	; 63
    1fbe:	ad be       	out	0x3d, r10	; 61
    1fc0:	4e c0       	rjmp	.+156    	; 0x205e <_ZN8ATTClass17readOrReadBlobReqEjhhPh+0x308>
    1fc2:	0f b6       	in	r0, 0x3f	; 63
    1fc4:	f8 94       	cli
    1fc6:	be be       	out	0x3e, r11	; 62
    1fc8:	0f be       	out	0x3f, r0	; 63
    1fca:	ad be       	out	0x3d, r10	; 61
    1fcc:	48 c0       	rjmp	.+144    	; 0x205e <_ZN8ATTClass17readOrReadBlobReqEjhhPh+0x308>
    1fce:	f8 01       	movw	r30, r16
    1fd0:	60 80       	ld	r6, Z
    1fd2:	71 80       	ldd	r7, Z+1	; 0x01
    1fd4:	22 80       	ldd	r2, Z+2	; 0x02
    1fd6:	33 80       	ldd	r3, Z+3	; 0x03
    1fd8:	23 01       	movw	r4, r6
    1fda:	f1 e0       	ldi	r31, 0x01	; 1
    1fdc:	4f 1a       	sub	r4, r31
    1fde:	51 08       	sbc	r5, r1
    1fe0:	87 e8       	ldi	r24, 0x87	; 135
    1fe2:	92 e0       	ldi	r25, 0x02	; 2
    1fe4:	51 d7       	rcall	.+3746   	; 0x2e88 <_ZN9GATTClass14attributeCountEv>
    1fe6:	84 15       	cp	r24, r4
    1fe8:	95 05       	cpc	r25, r5
    1fea:	08 f4       	brcc	.+2      	; 0x1fee <_ZN8ATTClass17readOrReadBlobReqEjhhPh+0x298>
    1fec:	e8 ce       	rjmp	.-560    	; 0x1dbe <_ZN8ATTClass17readOrReadBlobReqEjhhPh+0x68>
    1fee:	0f c0       	rjmp	.+30     	; 0x200e <_ZN8ATTClass17readOrReadBlobReqEjhhPh+0x2b8>
    1ff0:	d8 01       	movw	r26, r16
    1ff2:	6d 90       	ld	r6, X+
    1ff4:	7c 90       	ld	r7, X
    1ff6:	23 01       	movw	r4, r6
    1ff8:	b1 e0       	ldi	r27, 0x01	; 1
    1ffa:	4b 1a       	sub	r4, r27
    1ffc:	51 08       	sbc	r5, r1
    1ffe:	87 e8       	ldi	r24, 0x87	; 135
    2000:	92 e0       	ldi	r25, 0x02	; 2
    2002:	42 d7       	rcall	.+3716   	; 0x2e88 <_ZN9GATTClass14attributeCountEv>
    2004:	84 15       	cp	r24, r4
    2006:	95 05       	cpc	r25, r5
    2008:	08 f4       	brcc	.+2      	; 0x200c <_ZN8ATTClass17readOrReadBlobReqEjhhPh+0x2b6>
    200a:	d9 ce       	rjmp	.-590    	; 0x1dbe <_ZN8ATTClass17readOrReadBlobReqEjhhPh+0x68>
    200c:	df ce       	rjmp	.-578    	; 0x1dcc <_ZN8ATTClass17readOrReadBlobReqEjhhPh+0x76>
    200e:	f7 01       	movw	r30, r14
    2010:	86 81       	ldd	r24, Z+6	; 0x06
    2012:	97 81       	ldd	r25, Z+7	; 0x07
    2014:	2d b7       	in	r18, 0x3d	; 61
    2016:	3e b7       	in	r19, 0x3e	; 62
    2018:	28 1b       	sub	r18, r24
    201a:	39 0b       	sbc	r19, r25
    201c:	0f b6       	in	r0, 0x3f	; 63
    201e:	f8 94       	cli
    2020:	3e bf       	out	0x3e, r19	; 62
    2022:	0f be       	out	0x3f, r0	; 63
    2024:	2d bf       	out	0x3d, r18	; 61
    2026:	8d b7       	in	r24, 0x3d	; 61
    2028:	9e b7       	in	r25, 0x3e	; 62
    202a:	01 96       	adiw	r24, 0x01	; 1
    202c:	9f 8f       	std	Y+31, r25	; 0x1f
    202e:	8e 8f       	std	Y+30, r24	; 0x1e
    2030:	8d e0       	ldi	r24, 0x0D	; 13
    2032:	ad b7       	in	r26, 0x3d	; 61
    2034:	be b7       	in	r27, 0x3e	; 62
    2036:	11 96       	adiw	r26, 0x01	; 1
    2038:	8c 93       	st	X, r24
    203a:	b2 01       	movw	r22, r4
    203c:	87 e8       	ldi	r24, 0x87	; 135
    203e:	92 e0       	ldi	r25, 0x02	; 2
    2040:	29 d7       	rcall	.+3666   	; 0x2e94 <_ZN9GATTClass9attributeEj>
    2042:	2c 01       	movw	r4, r24
    2044:	dc 01       	movw	r26, r24
    2046:	ed 91       	ld	r30, X+
    2048:	fc 91       	ld	r31, X
    204a:	04 80       	ldd	r0, Z+4	; 0x04
    204c:	f5 81       	ldd	r31, Z+5	; 0x05
    204e:	e0 2d       	mov	r30, r0
    2050:	09 95       	icall
    2052:	81 15       	cp	r24, r1
    2054:	b8 e2       	ldi	r27, 0x28	; 40
    2056:	9b 07       	cpc	r25, r27
    2058:	09 f0       	breq	.+2      	; 0x205c <_ZN8ATTClass17readOrReadBlobReqEjhhPh+0x306>
    205a:	fe ce       	rjmp	.-516    	; 0x1e58 <_ZN8ATTClass17readOrReadBlobReqEjhhPh+0x102>
    205c:	e1 ce       	rjmp	.-574    	; 0x1e20 <_ZN8ATTClass17readOrReadBlobReqEjhhPh+0xca>
    205e:	0f b6       	in	r0, 0x3f	; 63
    2060:	f8 94       	cli
    2062:	de be       	out	0x3e, r13	; 62
    2064:	0f be       	out	0x3f, r0	; 63
    2066:	cd be       	out	0x3d, r12	; 61
    2068:	6f 96       	adiw	r28, 0x1f	; 31
    206a:	0f b6       	in	r0, 0x3f	; 63
    206c:	f8 94       	cli
    206e:	de bf       	out	0x3e, r29	; 62
    2070:	0f be       	out	0x3f, r0	; 63
    2072:	cd bf       	out	0x3d, r28	; 61
    2074:	df 91       	pop	r29
    2076:	cf 91       	pop	r28
    2078:	1f 91       	pop	r17
    207a:	0f 91       	pop	r16
    207c:	ff 90       	pop	r15
    207e:	ef 90       	pop	r14
    2080:	df 90       	pop	r13
    2082:	cf 90       	pop	r12
    2084:	bf 90       	pop	r11
    2086:	af 90       	pop	r10
    2088:	9f 90       	pop	r9
    208a:	8f 90       	pop	r8
    208c:	7f 90       	pop	r7
    208e:	6f 90       	pop	r6
    2090:	5f 90       	pop	r5
    2092:	4f 90       	pop	r4
    2094:	3f 90       	pop	r3
    2096:	2f 90       	pop	r2
    2098:	08 95       	ret

0000209a <_ZN8ATTClass13readByTypeReqEjhPh>:
    209a:	2f 92       	push	r2
    209c:	3f 92       	push	r3
    209e:	4f 92       	push	r4
    20a0:	5f 92       	push	r5
    20a2:	6f 92       	push	r6
    20a4:	7f 92       	push	r7
    20a6:	8f 92       	push	r8
    20a8:	9f 92       	push	r9
    20aa:	af 92       	push	r10
    20ac:	bf 92       	push	r11
    20ae:	cf 92       	push	r12
    20b0:	df 92       	push	r13
    20b2:	ef 92       	push	r14
    20b4:	ff 92       	push	r15
    20b6:	0f 93       	push	r16
    20b8:	1f 93       	push	r17
    20ba:	cf 93       	push	r28
    20bc:	df 93       	push	r29
    20be:	cd b7       	in	r28, 0x3d	; 61
    20c0:	de b7       	in	r29, 0x3e	; 62
    20c2:	2e 97       	sbiw	r28, 0x0e	; 14
    20c4:	0f b6       	in	r0, 0x3f	; 63
    20c6:	f8 94       	cli
    20c8:	de bf       	out	0x3e, r29	; 62
    20ca:	0f be       	out	0x3f, r0	; 63
    20cc:	cd bf       	out	0x3d, r28	; 61
    20ce:	9c 83       	std	Y+4, r25	; 0x04
    20d0:	8b 83       	std	Y+3, r24	; 0x03
    20d2:	78 87       	std	Y+8, r23	; 0x08
    20d4:	6f 83       	std	Y+7, r22	; 0x07
    20d6:	39 01       	movw	r6, r18
    20d8:	2d b6       	in	r2, 0x3d	; 61
    20da:	3e b6       	in	r3, 0x3e	; 62
    20dc:	46 30       	cpi	r20, 0x06	; 6
    20de:	61 f0       	breq	.+24     	; 0x20f8 <_ZN8ATTClass13readByTypeReqEjhPh+0x5e>
    20e0:	d9 01       	movw	r26, r18
    20e2:	2d 91       	ld	r18, X+
    20e4:	3c 91       	ld	r19, X
    20e6:	04 e0       	ldi	r16, 0x04	; 4
    20e8:	48 e0       	ldi	r20, 0x08	; 8
    20ea:	a1 da       	rcall	.-2750   	; 0x162e <_ZN8ATTClass9sendErrorEjhjh>
    20ec:	0f b6       	in	r0, 0x3f	; 63
    20ee:	f8 94       	cli
    20f0:	3e be       	out	0x3e, r3	; 62
    20f2:	0f be       	out	0x3f, r0	; 63
    20f4:	2d be       	out	0x3d, r2	; 61
    20f6:	82 c1       	rjmp	.+772    	; 0x23fc <_ZN8ATTClass13readByTypeReqEjhPh+0x362>
    20f8:	eb 81       	ldd	r30, Y+3	; 0x03
    20fa:	fc 81       	ldd	r31, Y+4	; 0x04
    20fc:	86 81       	ldd	r24, Z+6	; 0x06
    20fe:	97 81       	ldd	r25, Z+7	; 0x07
    2100:	2d b7       	in	r18, 0x3d	; 61
    2102:	3e b7       	in	r19, 0x3e	; 62
    2104:	28 1b       	sub	r18, r24
    2106:	39 0b       	sbc	r19, r25
    2108:	0f b6       	in	r0, 0x3f	; 63
    210a:	f8 94       	cli
    210c:	3e bf       	out	0x3e, r19	; 62
    210e:	0f be       	out	0x3f, r0	; 63
    2110:	2d bf       	out	0x3d, r18	; 61
    2112:	8d b7       	in	r24, 0x3d	; 61
    2114:	9e b7       	in	r25, 0x3e	; 62
    2116:	01 96       	adiw	r24, 0x01	; 1
    2118:	9a 87       	std	Y+10, r25	; 0x0a
    211a:	89 87       	std	Y+9, r24	; 0x09
    211c:	4c 01       	movw	r8, r24
    211e:	89 e0       	ldi	r24, 0x09	; 9
    2120:	ad b7       	in	r26, 0x3d	; 61
    2122:	be b7       	in	r27, 0x3e	; 62
    2124:	11 96       	adiw	r26, 0x01	; 1
    2126:	8c 93       	st	X, r24
    2128:	f4 01       	movw	r30, r8
    212a:	11 82       	std	Z+1, r1	; 0x01
    212c:	d3 01       	movw	r26, r6
    212e:	0d 91       	ld	r16, X+
    2130:	1c 91       	ld	r17, X
    2132:	01 50       	subi	r16, 0x01	; 1
    2134:	11 09       	sbc	r17, r1
    2136:	68 94       	set
    2138:	44 24       	eor	r4, r4
    213a:	41 f8       	bld	r4, 1
    213c:	51 2c       	mov	r5, r1
    213e:	f3 01       	movw	r30, r6
    2140:	34 96       	adiw	r30, 0x04	; 4
    2142:	fe 87       	std	Y+14, r31	; 0x0e
    2144:	ed 87       	std	Y+13, r30	; 0x0d
    2146:	3a 82       	std	Y+2, r3	; 0x02
    2148:	29 82       	std	Y+1, r2	; 0x01
    214a:	87 e8       	ldi	r24, 0x87	; 135
    214c:	92 e0       	ldi	r25, 0x02	; 2
    214e:	9c d6       	rcall	.+3384   	; 0x2e88 <_ZN9GATTClass14attributeCountEv>
    2150:	08 17       	cp	r16, r24
    2152:	19 07       	cpc	r17, r25
    2154:	08 f0       	brcs	.+2      	; 0x2158 <_ZN8ATTClass13readByTypeReqEjhPh+0xbe>
    2156:	14 c1       	rjmp	.+552    	; 0x2380 <_ZN8ATTClass13readByTypeReqEjhPh+0x2e6>
    2158:	d3 01       	movw	r26, r6
    215a:	12 96       	adiw	r26, 0x02	; 2
    215c:	8d 91       	ld	r24, X+
    215e:	9c 91       	ld	r25, X
    2160:	13 97       	sbiw	r26, 0x03	; 3
    2162:	01 97       	sbiw	r24, 0x01	; 1
    2164:	80 17       	cp	r24, r16
    2166:	91 07       	cpc	r25, r17
    2168:	08 f0       	brcs	.+2      	; 0x216c <_ZN8ATTClass13readByTypeReqEjhPh+0xd2>
    216a:	30 c1       	rjmp	.+608    	; 0x23cc <_ZN8ATTClass13readByTypeReqEjhPh+0x332>
    216c:	a9 80       	ldd	r10, Y+1	; 0x01
    216e:	ba 80       	ldd	r11, Y+2	; 0x02
    2170:	0f c1       	rjmp	.+542    	; 0x2390 <_ZN8ATTClass13readByTypeReqEjhPh+0x2f6>
    2172:	d7 01       	movw	r26, r14
    2174:	ed 91       	ld	r30, X+
    2176:	fc 91       	ld	r31, X
    2178:	04 80       	ldd	r0, Z+4	; 0x04
    217a:	f5 81       	ldd	r31, Z+5	; 0x05
    217c:	e0 2d       	mov	r30, r0
    217e:	c7 01       	movw	r24, r14
    2180:	09 95       	icall
    2182:	83 30       	cpi	r24, 0x03	; 3
    2184:	98 42       	sbci	r25, 0x28	; 40
    2186:	09 f0       	breq	.+2      	; 0x218a <_ZN8ATTClass13readByTypeReqEjhPh+0xf0>
    2188:	5e c0       	rjmp	.+188    	; 0x2246 <_ZN8ATTClass13readByTypeReqEjhPh+0x1ac>
    218a:	c7 01       	movw	r24, r14
    218c:	0e 94 37 02 	call	0x46e	; 0x46e <_ZN19LocalCharacteristic11valueHandleEv>
    2190:	c8 16       	cp	r12, r24
    2192:	d9 06       	cpc	r13, r25
    2194:	09 f4       	brne	.+2      	; 0x2198 <_ZN8ATTClass13readByTypeReqEjhPh+0xfe>
    2196:	f1 c0       	rjmp	.+482    	; 0x237a <_ZN8ATTClass13readByTypeReqEjhPh+0x2e0>
    2198:	c7 01       	movw	r24, r14
    219a:	0e 94 52 06 	call	0xca4	; 0xca4 <_ZN12BLEAttribute10uuidLengthEv>
    219e:	b8 2e       	mov	r11, r24
    21a0:	e2 e0       	ldi	r30, 0x02	; 2
    21a2:	8e 17       	cp	r24, r30
    21a4:	21 f0       	breq	.+8      	; 0x21ae <_ZN8ATTClass13readByTypeReqEjhPh+0x114>
    21a6:	f5 e1       	ldi	r31, 0x15	; 21
    21a8:	fd 83       	std	Y+5, r31	; 0x05
    21aa:	1e 82       	std	Y+6, r1	; 0x06
    21ac:	03 c0       	rjmp	.+6      	; 0x21b4 <_ZN8ATTClass13readByTypeReqEjhPh+0x11a>
    21ae:	27 e0       	ldi	r18, 0x07	; 7
    21b0:	2d 83       	std	Y+5, r18	; 0x05
    21b2:	1e 82       	std	Y+6, r1	; 0x06
    21b4:	d4 01       	movw	r26, r8
    21b6:	11 96       	adiw	r26, 0x01	; 1
    21b8:	8c 91       	ld	r24, X
    21ba:	11 97       	sbiw	r26, 0x01	; 1
    21bc:	81 11       	cpse	r24, r1
    21be:	03 c0       	rjmp	.+6      	; 0x21c6 <_ZN8ATTClass13readByTypeReqEjhPh+0x12c>
    21c0:	ed 81       	ldd	r30, Y+5	; 0x05
    21c2:	11 96       	adiw	r26, 0x01	; 1
    21c4:	ec 93       	st	X, r30
    21c6:	d4 01       	movw	r26, r8
    21c8:	11 96       	adiw	r26, 0x01	; 1
    21ca:	8c 91       	ld	r24, X
    21cc:	90 e0       	ldi	r25, 0x00	; 0
    21ce:	ed 81       	ldd	r30, Y+5	; 0x05
    21d0:	fe 81       	ldd	r31, Y+6	; 0x06
    21d2:	e8 17       	cp	r30, r24
    21d4:	f9 07       	cpc	r31, r25
    21d6:	09 f0       	breq	.+2      	; 0x21da <_ZN8ATTClass13readByTypeReqEjhPh+0x140>
    21d8:	d6 c0       	rjmp	.+428    	; 0x2386 <_ZN8ATTClass13readByTypeReqEjhPh+0x2ec>
    21da:	94 01       	movw	r18, r8
    21dc:	24 0d       	add	r18, r4
    21de:	35 1d       	adc	r19, r5
    21e0:	3c 87       	std	Y+12, r19	; 0x0c
    21e2:	2b 87       	std	Y+11, r18	; 0x0b
    21e4:	d9 01       	movw	r26, r18
    21e6:	cd 92       	st	X+, r12
    21e8:	dc 92       	st	X, r13
    21ea:	c7 01       	movw	r24, r14
    21ec:	0e 94 b2 01 	call	0x364	; 0x364 <_ZN19LocalCharacteristic10propertiesEv>
    21f0:	eb 85       	ldd	r30, Y+11	; 0x0b
    21f2:	fc 85       	ldd	r31, Y+12	; 0x0c
    21f4:	82 83       	std	Z+2, r24	; 0x02
    21f6:	f4 01       	movw	r30, r8
    21f8:	e4 0d       	add	r30, r4
    21fa:	f5 1d       	adc	r31, r5
    21fc:	0e 5f       	subi	r16, 0xFE	; 254
    21fe:	1f 4f       	sbci	r17, 0xFF	; 255
    2200:	14 83       	std	Z+4, r17	; 0x04
    2202:	03 83       	std	Z+3, r16	; 0x03
    2204:	f5 e0       	ldi	r31, 0x05	; 5
    2206:	4f 0e       	add	r4, r31
    2208:	51 1c       	adc	r5, r1
    220a:	0b 2d       	mov	r16, r11
    220c:	10 e0       	ldi	r17, 0x00	; 0
    220e:	c7 01       	movw	r24, r14
    2210:	0e 94 4f 06 	call	0xc9e	; 0xc9e <_ZN12BLEAttribute8uuidDataEv>
    2214:	a8 01       	movw	r20, r16
    2216:	bc 01       	movw	r22, r24
    2218:	c4 01       	movw	r24, r8
    221a:	84 0d       	add	r24, r4
    221c:	95 1d       	adc	r25, r5
    221e:	0e 94 a1 29 	call	0x5342	; 0x5342 <memcpy>
    2222:	40 0e       	add	r4, r16
    2224:	51 1e       	adc	r5, r17
    2226:	8d 81       	ldd	r24, Y+5	; 0x05
    2228:	9e 81       	ldd	r25, Y+6	; 0x06
    222a:	84 0d       	add	r24, r4
    222c:	95 1d       	adc	r25, r5
    222e:	ab 81       	ldd	r26, Y+3	; 0x03
    2230:	bc 81       	ldd	r27, Y+4	; 0x04
    2232:	16 96       	adiw	r26, 0x06	; 6
    2234:	2d 91       	ld	r18, X+
    2236:	3c 91       	ld	r19, X
    2238:	17 97       	sbiw	r26, 0x07	; 7
    223a:	28 17       	cp	r18, r24
    223c:	39 07       	cpc	r19, r25
    223e:	08 f4       	brcc	.+2      	; 0x2242 <_ZN8ATTClass13readByTypeReqEjhPh+0x1a8>
    2240:	a5 c0       	rjmp	.+330    	; 0x238c <_ZN8ATTClass13readByTypeReqEjhPh+0x2f2>
    2242:	86 01       	movw	r16, r12
    2244:	9a c0       	rjmp	.+308    	; 0x237a <_ZN8ATTClass13readByTypeReqEjhPh+0x2e0>
    2246:	d7 01       	movw	r26, r14
    2248:	ed 91       	ld	r30, X+
    224a:	fc 91       	ld	r31, X
    224c:	04 80       	ldd	r0, Z+4	; 0x04
    224e:	f5 81       	ldd	r31, Z+5	; 0x05
    2250:	e0 2d       	mov	r30, r0
    2252:	c7 01       	movw	r24, r14
    2254:	09 95       	icall
    2256:	82 30       	cpi	r24, 0x02	; 2
    2258:	99 42       	sbci	r25, 0x29	; 41
    225a:	09 f0       	breq	.+2      	; 0x225e <_ZN8ATTClass13readByTypeReqEjhPh+0x1c4>
    225c:	8e c0       	rjmp	.+284    	; 0x237a <_ZN8ATTClass13readByTypeReqEjhPh+0x2e0>
    225e:	a9 80       	ldd	r10, Y+1	; 0x01
    2260:	ba 80       	ldd	r11, Y+2	; 0x02
    2262:	e9 85       	ldd	r30, Y+9	; 0x09
    2264:	fa 85       	ldd	r31, Y+10	; 0x0a
    2266:	e4 0d       	add	r30, r4
    2268:	f5 1d       	adc	r31, r5
    226a:	d1 82       	std	Z+1, r13	; 0x01
    226c:	c0 82       	st	Z, r12
    226e:	82 01       	movw	r16, r4
    2270:	0e 5f       	subi	r16, 0xFE	; 254
    2272:	1f 4f       	sbci	r17, 0xFF	; 255
    2274:	eb 81       	ldd	r30, Y+3	; 0x03
    2276:	fc 81       	ldd	r31, Y+4	; 0x04
    2278:	c6 80       	ldd	r12, Z+6	; 0x06
    227a:	d7 80       	ldd	r13, Z+7	; 0x07
    227c:	c0 1a       	sub	r12, r16
    227e:	d1 0a       	sbc	r13, r17
    2280:	c7 01       	movw	r24, r14
    2282:	0e 94 a8 04 	call	0x950	; 0x950 <_ZN15LocalDescriptor9valueSizeEv>
    2286:	c8 16       	cp	r12, r24
    2288:	d9 06       	cpc	r13, r25
    228a:	48 f4       	brcc	.+18     	; 0x229e <_ZN8ATTClass13readByTypeReqEjhPh+0x204>
    228c:	ab 81       	ldd	r26, Y+3	; 0x03
    228e:	bc 81       	ldd	r27, Y+4	; 0x04
    2290:	16 96       	adiw	r26, 0x06	; 6
    2292:	cd 90       	ld	r12, X+
    2294:	dc 90       	ld	r13, X
    2296:	17 97       	sbiw	r26, 0x07	; 7
    2298:	c0 1a       	sub	r12, r16
    229a:	d1 0a       	sbc	r13, r17
    229c:	04 c0       	rjmp	.+8      	; 0x22a6 <_ZN8ATTClass13readByTypeReqEjhPh+0x20c>
    229e:	c7 01       	movw	r24, r14
    22a0:	0e 94 a8 04 	call	0x950	; 0x950 <_ZN15LocalDescriptor9valueSizeEv>
    22a4:	6c 01       	movw	r12, r24
    22a6:	c7 01       	movw	r24, r14
    22a8:	0e 94 ac 04 	call	0x958	; 0x958 <_ZN15LocalDescriptor5valueEv>
    22ac:	a6 01       	movw	r20, r12
    22ae:	bc 01       	movw	r22, r24
    22b0:	89 85       	ldd	r24, Y+9	; 0x09
    22b2:	9a 85       	ldd	r25, Y+10	; 0x0a
    22b4:	80 0f       	add	r24, r16
    22b6:	91 1f       	adc	r25, r17
    22b8:	0e 94 a1 29 	call	0x5342	; 0x5342 <memcpy>
    22bc:	28 01       	movw	r4, r16
    22be:	4c 0c       	add	r4, r12
    22c0:	5d 1c       	adc	r5, r13
    22c2:	c3 94       	inc	r12
    22c4:	c3 94       	inc	r12
    22c6:	e9 85       	ldd	r30, Y+9	; 0x09
    22c8:	fa 85       	ldd	r31, Y+10	; 0x0a
    22ca:	c1 82       	std	Z+1, r12	; 0x01
    22cc:	61 c0       	rjmp	.+194    	; 0x2390 <_ZN8ATTClass13readByTypeReqEjhPh+0x2f6>
    22ce:	d7 01       	movw	r26, r14
    22d0:	ed 91       	ld	r30, X+
    22d2:	fc 91       	ld	r31, X
    22d4:	04 80       	ldd	r0, Z+4	; 0x04
    22d6:	f5 81       	ldd	r31, Z+5	; 0x05
    22d8:	e0 2d       	mov	r30, r0
    22da:	c7 01       	movw	r24, r14
    22dc:	09 95       	icall
    22de:	83 30       	cpi	r24, 0x03	; 3
    22e0:	98 42       	sbci	r25, 0x28	; 40
    22e2:	09 f0       	breq	.+2      	; 0x22e6 <_ZN8ATTClass13readByTypeReqEjhPh+0x24c>
    22e4:	4a c0       	rjmp	.+148    	; 0x237a <_ZN8ATTClass13readByTypeReqEjhPh+0x2e0>
    22e6:	c7 01       	movw	r24, r14
    22e8:	0e 94 52 06 	call	0xca4	; 0xca4 <_ZN12BLEAttribute10uuidLengthEv>
    22ec:	82 30       	cpi	r24, 0x02	; 2
    22ee:	09 f0       	breq	.+2      	; 0x22f2 <_ZN8ATTClass13readByTypeReqEjhPh+0x258>
    22f0:	44 c0       	rjmp	.+136    	; 0x237a <_ZN8ATTClass13readByTypeReqEjhPh+0x2e0>
    22f2:	c7 01       	movw	r24, r14
    22f4:	0e 94 4f 06 	call	0xc9e	; 0xc9e <_ZN12BLEAttribute8uuidDataEv>
    22f8:	42 e0       	ldi	r20, 0x02	; 2
    22fa:	50 e0       	ldi	r21, 0x00	; 0
    22fc:	bc 01       	movw	r22, r24
    22fe:	8d 85       	ldd	r24, Y+13	; 0x0d
    2300:	9e 85       	ldd	r25, Y+14	; 0x0e
    2302:	0e 94 94 29 	call	0x5328	; 0x5328 <memcmp>
    2306:	89 2b       	or	r24, r25
    2308:	c1 f5       	brne	.+112    	; 0x237a <_ZN8ATTClass13readByTypeReqEjhPh+0x2e0>
    230a:	a9 80       	ldd	r10, Y+1	; 0x01
    230c:	ba 80       	ldd	r11, Y+2	; 0x02
    230e:	e9 85       	ldd	r30, Y+9	; 0x09
    2310:	fa 85       	ldd	r31, Y+10	; 0x0a
    2312:	e4 0d       	add	r30, r4
    2314:	f5 1d       	adc	r31, r5
    2316:	d1 82       	std	Z+1, r13	; 0x01
    2318:	c0 82       	st	Z, r12
    231a:	82 01       	movw	r16, r4
    231c:	0e 5f       	subi	r16, 0xFE	; 254
    231e:	1f 4f       	sbci	r17, 0xFF	; 255
    2320:	eb 81       	ldd	r30, Y+3	; 0x03
    2322:	fc 81       	ldd	r31, Y+4	; 0x04
    2324:	c6 80       	ldd	r12, Z+6	; 0x06
    2326:	d7 80       	ldd	r13, Z+7	; 0x07
    2328:	c0 1a       	sub	r12, r16
    232a:	d1 0a       	sbc	r13, r17
    232c:	c7 01       	movw	r24, r14
    232e:	0e 94 bd 01 	call	0x37a	; 0x37a <_ZN19LocalCharacteristic11valueLengthEv>
    2332:	c8 16       	cp	r12, r24
    2334:	d9 06       	cpc	r13, r25
    2336:	48 f4       	brcc	.+18     	; 0x234a <_ZN8ATTClass13readByTypeReqEjhPh+0x2b0>
    2338:	ab 81       	ldd	r26, Y+3	; 0x03
    233a:	bc 81       	ldd	r27, Y+4	; 0x04
    233c:	16 96       	adiw	r26, 0x06	; 6
    233e:	cd 90       	ld	r12, X+
    2340:	dc 90       	ld	r13, X
    2342:	17 97       	sbiw	r26, 0x07	; 7
    2344:	c0 1a       	sub	r12, r16
    2346:	d1 0a       	sbc	r13, r17
    2348:	04 c0       	rjmp	.+8      	; 0x2352 <_ZN8ATTClass13readByTypeReqEjhPh+0x2b8>
    234a:	c7 01       	movw	r24, r14
    234c:	0e 94 bd 01 	call	0x37a	; 0x37a <_ZN19LocalCharacteristic11valueLengthEv>
    2350:	6c 01       	movw	r12, r24
    2352:	c7 01       	movw	r24, r14
    2354:	0e 94 b9 01 	call	0x372	; 0x372 <_ZN19LocalCharacteristic5valueEv>
    2358:	a6 01       	movw	r20, r12
    235a:	bc 01       	movw	r22, r24
    235c:	89 85       	ldd	r24, Y+9	; 0x09
    235e:	9a 85       	ldd	r25, Y+10	; 0x0a
    2360:	80 0f       	add	r24, r16
    2362:	91 1f       	adc	r25, r17
    2364:	0e 94 a1 29 	call	0x5342	; 0x5342 <memcpy>
    2368:	28 01       	movw	r4, r16
    236a:	4c 0c       	add	r4, r12
    236c:	5d 1c       	adc	r5, r13
    236e:	c3 94       	inc	r12
    2370:	c3 94       	inc	r12
    2372:	e9 85       	ldd	r30, Y+9	; 0x09
    2374:	fa 85       	ldd	r31, Y+10	; 0x0a
    2376:	c1 82       	std	Z+1, r12	; 0x01
    2378:	0b c0       	rjmp	.+22     	; 0x2390 <_ZN8ATTClass13readByTypeReqEjhPh+0x2f6>
    237a:	0f 5f       	subi	r16, 0xFF	; 255
    237c:	1f 4f       	sbci	r17, 0xFF	; 255
    237e:	e5 ce       	rjmp	.-566    	; 0x214a <_ZN8ATTClass13readByTypeReqEjhPh+0xb0>
    2380:	a9 80       	ldd	r10, Y+1	; 0x01
    2382:	ba 80       	ldd	r11, Y+2	; 0x02
    2384:	05 c0       	rjmp	.+10     	; 0x2390 <_ZN8ATTClass13readByTypeReqEjhPh+0x2f6>
    2386:	a9 80       	ldd	r10, Y+1	; 0x01
    2388:	ba 80       	ldd	r11, Y+2	; 0x02
    238a:	02 c0       	rjmp	.+4      	; 0x2390 <_ZN8ATTClass13readByTypeReqEjhPh+0x2f6>
    238c:	a9 80       	ldd	r10, Y+1	; 0x01
    238e:	ba 80       	ldd	r11, Y+2	; 0x02
    2390:	f2 e0       	ldi	r31, 0x02	; 2
    2392:	4f 16       	cp	r4, r31
    2394:	51 04       	cpc	r5, r1
    2396:	59 f4       	brne	.+22     	; 0x23ae <_ZN8ATTClass13readByTypeReqEjhPh+0x314>
    2398:	d3 01       	movw	r26, r6
    239a:	2d 91       	ld	r18, X+
    239c:	3c 91       	ld	r19, X
    239e:	0a e0       	ldi	r16, 0x0A	; 10
    23a0:	48 e0       	ldi	r20, 0x08	; 8
    23a2:	6f 81       	ldd	r22, Y+7	; 0x07
    23a4:	78 85       	ldd	r23, Y+8	; 0x08
    23a6:	8b 81       	ldd	r24, Y+3	; 0x03
    23a8:	9c 81       	ldd	r25, Y+4	; 0x04
    23aa:	41 d9       	rcall	.-3454   	; 0x162e <_ZN8ATTClass9sendErrorEjhjh>
    23ac:	09 c0       	rjmp	.+18     	; 0x23c0 <_ZN8ATTClass13readByTypeReqEjhPh+0x326>
    23ae:	09 85       	ldd	r16, Y+9	; 0x09
    23b0:	1a 85       	ldd	r17, Y+10	; 0x0a
    23b2:	24 2d       	mov	r18, r4
    23b4:	44 e0       	ldi	r20, 0x04	; 4
    23b6:	6f 81       	ldd	r22, Y+7	; 0x07
    23b8:	78 85       	ldd	r23, Y+8	; 0x08
    23ba:	87 e6       	ldi	r24, 0x67	; 103
    23bc:	93 e0       	ldi	r25, 0x03	; 3
    23be:	96 d7       	rcall	.+3884   	; 0x32ec <_ZN8HCIClass13sendAclPacketEjhhPv>
    23c0:	0f b6       	in	r0, 0x3f	; 63
    23c2:	f8 94       	cli
    23c4:	be be       	out	0x3e, r11	; 62
    23c6:	0f be       	out	0x3f, r0	; 63
    23c8:	ad be       	out	0x3d, r10	; 61
    23ca:	18 c0       	rjmp	.+48     	; 0x23fc <_ZN8ATTClass13readByTypeReqEjhPh+0x362>
    23cc:	b8 01       	movw	r22, r16
    23ce:	87 e8       	ldi	r24, 0x87	; 135
    23d0:	92 e0       	ldi	r25, 0x02	; 2
    23d2:	60 d5       	rcall	.+2752   	; 0x2e94 <_ZN9GATTClass9attributeEj>
    23d4:	7c 01       	movw	r14, r24
    23d6:	68 01       	movw	r12, r16
    23d8:	bf ef       	ldi	r27, 0xFF	; 255
    23da:	cb 1a       	sub	r12, r27
    23dc:	db 0a       	sbc	r13, r27
    23de:	dc 01       	movw	r26, r24
    23e0:	ed 91       	ld	r30, X+
    23e2:	fc 91       	ld	r31, X
    23e4:	04 80       	ldd	r0, Z+4	; 0x04
    23e6:	f5 81       	ldd	r31, Z+5	; 0x05
    23e8:	e0 2d       	mov	r30, r0
    23ea:	09 95       	icall
    23ec:	f3 01       	movw	r30, r6
    23ee:	24 81       	ldd	r18, Z+4	; 0x04
    23f0:	35 81       	ldd	r19, Z+5	; 0x05
    23f2:	82 17       	cp	r24, r18
    23f4:	93 07       	cpc	r25, r19
    23f6:	09 f0       	breq	.+2      	; 0x23fa <_ZN8ATTClass13readByTypeReqEjhPh+0x360>
    23f8:	6a cf       	rjmp	.-300    	; 0x22ce <_ZN8ATTClass13readByTypeReqEjhPh+0x234>
    23fa:	bb ce       	rjmp	.-650    	; 0x2172 <_ZN8ATTClass13readByTypeReqEjhPh+0xd8>
    23fc:	0f b6       	in	r0, 0x3f	; 63
    23fe:	f8 94       	cli
    2400:	3e be       	out	0x3e, r3	; 62
    2402:	0f be       	out	0x3f, r0	; 63
    2404:	2d be       	out	0x3d, r2	; 61
    2406:	2e 96       	adiw	r28, 0x0e	; 14
    2408:	0f b6       	in	r0, 0x3f	; 63
    240a:	f8 94       	cli
    240c:	de bf       	out	0x3e, r29	; 62
    240e:	0f be       	out	0x3f, r0	; 63
    2410:	cd bf       	out	0x3d, r28	; 61
    2412:	df 91       	pop	r29
    2414:	cf 91       	pop	r28
    2416:	1f 91       	pop	r17
    2418:	0f 91       	pop	r16
    241a:	ff 90       	pop	r15
    241c:	ef 90       	pop	r14
    241e:	df 90       	pop	r13
    2420:	cf 90       	pop	r12
    2422:	bf 90       	pop	r11
    2424:	af 90       	pop	r10
    2426:	9f 90       	pop	r9
    2428:	8f 90       	pop	r8
    242a:	7f 90       	pop	r7
    242c:	6f 90       	pop	r6
    242e:	5f 90       	pop	r5
    2430:	4f 90       	pop	r4
    2432:	3f 90       	pop	r3
    2434:	2f 90       	pop	r2
    2436:	08 95       	ret

00002438 <_ZN8ATTClass13writeReqOrCmdEjhhPh>:
    2438:	4f 92       	push	r4
    243a:	5f 92       	push	r5
    243c:	6f 92       	push	r6
    243e:	7f 92       	push	r7
    2440:	8f 92       	push	r8
    2442:	9f 92       	push	r9
    2444:	af 92       	push	r10
    2446:	bf 92       	push	r11
    2448:	cf 92       	push	r12
    244a:	df 92       	push	r13
    244c:	ef 92       	push	r14
    244e:	ff 92       	push	r15
    2450:	0f 93       	push	r16
    2452:	1f 93       	push	r17
    2454:	cf 93       	push	r28
    2456:	df 93       	push	r29
    2458:	cd b7       	in	r28, 0x3d	; 61
    245a:	de b7       	in	r29, 0x3e	; 62
    245c:	e8 97       	sbiw	r28, 0x38	; 56
    245e:	0f b6       	in	r0, 0x3f	; 63
    2460:	f8 94       	cli
    2462:	de bf       	out	0x3e, r29	; 62
    2464:	0f be       	out	0x3f, r0	; 63
    2466:	cd bf       	out	0x3d, r28	; 61
    2468:	4c 01       	movw	r8, r24
    246a:	5b 01       	movw	r10, r22
    246c:	44 2e       	mov	r4, r20
    246e:	52 2e       	mov	r5, r18
    2470:	ed b6       	in	r14, 0x3d	; 61
    2472:	fe b6       	in	r15, 0x3e	; 62
    2474:	21 e0       	ldi	r18, 0x01	; 1
    2476:	25 15       	cp	r18, r5
    2478:	48 f0       	brcs	.+18     	; 0x248c <_ZN8ATTClass13writeReqOrCmdEjhhPh+0x54>
    247a:	32 e1       	ldi	r19, 0x12	; 18
    247c:	43 13       	cpse	r20, r19
    247e:	0c c1       	rjmp	.+536    	; 0x2698 <_ZN8ATTClass13writeReqOrCmdEjhhPh+0x260>
    2480:	04 e0       	ldi	r16, 0x04	; 4
    2482:	20 e0       	ldi	r18, 0x00	; 0
    2484:	30 e0       	ldi	r19, 0x00	; 0
    2486:	42 e1       	ldi	r20, 0x12	; 18
    2488:	d2 d8       	rcall	.-3676   	; 0x162e <_ZN8ATTClass9sendErrorEjhjh>
    248a:	06 c1       	rjmp	.+524    	; 0x2698 <_ZN8ATTClass13writeReqOrCmdEjhhPh+0x260>
    248c:	d8 01       	movw	r26, r16
    248e:	6d 90       	ld	r6, X+
    2490:	7c 90       	ld	r7, X
    2492:	63 01       	movw	r12, r6
    2494:	b1 e0       	ldi	r27, 0x01	; 1
    2496:	cb 1a       	sub	r12, r27
    2498:	d1 08       	sbc	r13, r1
    249a:	87 e8       	ldi	r24, 0x87	; 135
    249c:	92 e0       	ldi	r25, 0x02	; 2
    249e:	f4 d4       	rcall	.+2536   	; 0x2e88 <_ZN9GATTClass14attributeCountEv>
    24a0:	8c 15       	cp	r24, r12
    24a2:	9d 05       	cpc	r25, r13
    24a4:	50 f4       	brcc	.+20     	; 0x24ba <_ZN8ATTClass13writeReqOrCmdEjhhPh+0x82>
    24a6:	e2 e1       	ldi	r30, 0x12	; 18
    24a8:	4e 12       	cpse	r4, r30
    24aa:	f6 c0       	rjmp	.+492    	; 0x2698 <_ZN8ATTClass13writeReqOrCmdEjhhPh+0x260>
    24ac:	0a e0       	ldi	r16, 0x0A	; 10
    24ae:	93 01       	movw	r18, r6
    24b0:	42 e1       	ldi	r20, 0x12	; 18
    24b2:	b5 01       	movw	r22, r10
    24b4:	c4 01       	movw	r24, r8
    24b6:	bb d8       	rcall	.-3722   	; 0x162e <_ZN8ATTClass9sendErrorEjhjh>
    24b8:	ef c0       	rjmp	.+478    	; 0x2698 <_ZN8ATTClass13writeReqOrCmdEjhhPh+0x260>
    24ba:	b6 01       	movw	r22, r12
    24bc:	87 e8       	ldi	r24, 0x87	; 135
    24be:	92 e0       	ldi	r25, 0x02	; 2
    24c0:	e9 d4       	rcall	.+2514   	; 0x2e94 <_ZN9GATTClass9attributeEj>
    24c2:	6c 01       	movw	r12, r24
    24c4:	dc 01       	movw	r26, r24
    24c6:	ed 91       	ld	r30, X+
    24c8:	fc 91       	ld	r31, X
    24ca:	04 80       	ldd	r0, Z+4	; 0x04
    24cc:	f5 81       	ldd	r31, Z+5	; 0x05
    24ce:	e0 2d       	mov	r30, r0
    24d0:	09 95       	icall
    24d2:	83 30       	cpi	r24, 0x03	; 3
    24d4:	98 42       	sbci	r25, 0x28	; 40
    24d6:	09 f0       	breq	.+2      	; 0x24da <_ZN8ATTClass13writeReqOrCmdEjhhPh+0xa2>
    24d8:	43 c0       	rjmp	.+134    	; 0x2560 <_ZN8ATTClass13writeReqOrCmdEjhhPh+0x128>
    24da:	c6 01       	movw	r24, r12
    24dc:	0e 94 37 02 	call	0x46e	; 0x46e <_ZN19LocalCharacteristic11valueHandleEv>
    24e0:	68 16       	cp	r6, r24
    24e2:	79 06       	cpc	r7, r25
    24e4:	21 f4       	brne	.+8      	; 0x24ee <_ZN8ATTClass13writeReqOrCmdEjhhPh+0xb6>
    24e6:	e2 e1       	ldi	r30, 0x12	; 18
    24e8:	4e 12       	cpse	r4, r30
    24ea:	07 c0       	rjmp	.+14     	; 0x24fa <_ZN8ATTClass13writeReqOrCmdEjhhPh+0xc2>
    24ec:	c6 c0       	rjmp	.+396    	; 0x267a <_ZN8ATTClass13writeReqOrCmdEjhhPh+0x242>
    24ee:	c6 01       	movw	r24, r12
    24f0:	0e 94 b2 01 	call	0x364	; 0x364 <_ZN19LocalCharacteristic10propertiesEv>
    24f4:	83 ff       	sbrs	r24, 3
    24f6:	07 c0       	rjmp	.+14     	; 0x2506 <_ZN8ATTClass13writeReqOrCmdEjhhPh+0xce>
    24f8:	10 c0       	rjmp	.+32     	; 0x251a <_ZN8ATTClass13writeReqOrCmdEjhhPh+0xe2>
    24fa:	c6 01       	movw	r24, r12
    24fc:	0e 94 b2 01 	call	0x364	; 0x364 <_ZN19LocalCharacteristic10propertiesEv>
    2500:	82 fd       	sbrc	r24, 2
    2502:	c1 c0       	rjmp	.+386    	; 0x2686 <_ZN8ATTClass13writeReqOrCmdEjhhPh+0x24e>
    2504:	c9 c0       	rjmp	.+402    	; 0x2698 <_ZN8ATTClass13writeReqOrCmdEjhhPh+0x260>
    2506:	f2 e1       	ldi	r31, 0x12	; 18
    2508:	4f 12       	cpse	r4, r31
    250a:	c6 c0       	rjmp	.+396    	; 0x2698 <_ZN8ATTClass13writeReqOrCmdEjhhPh+0x260>
    250c:	03 e0       	ldi	r16, 0x03	; 3
    250e:	93 01       	movw	r18, r6
    2510:	42 e1       	ldi	r20, 0x12	; 18
    2512:	b5 01       	movw	r22, r10
    2514:	c4 01       	movw	r24, r8
    2516:	8b d8       	rcall	.-3818   	; 0x162e <_ZN8ATTClass9sendErrorEjhjh>
    2518:	bf c0       	rjmp	.+382    	; 0x2698 <_ZN8ATTClass13writeReqOrCmdEjhhPh+0x260>
    251a:	d4 01       	movw	r26, r8
    251c:	14 96       	adiw	r26, 0x04	; 4
    251e:	8d 91       	ld	r24, X+
    2520:	9c 91       	ld	r25, X
    2522:	15 97       	sbiw	r26, 0x05	; 5
    2524:	a8 16       	cp	r10, r24
    2526:	b9 06       	cpc	r11, r25
    2528:	09 f0       	breq	.+2      	; 0x252c <_ZN8ATTClass13writeReqOrCmdEjhhPh+0xf4>
    252a:	82 c0       	rjmp	.+260    	; 0x2630 <_ZN8ATTClass13writeReqOrCmdEjhhPh+0x1f8>
    252c:	a4 01       	movw	r20, r8
    252e:	42 5f       	subi	r20, 0xF2	; 242
    2530:	5f 4f       	sbci	r21, 0xFF	; 255
    2532:	b5 01       	movw	r22, r10
    2534:	ce 01       	movw	r24, r28
    2536:	4d 96       	adiw	r24, 0x1d	; 29
    2538:	0e 94 af 07 	call	0xf5e	; 0xf5e <_ZN9BLEDeviceC1EjPh>
    253c:	5a 94       	dec	r5
    253e:	5a 94       	dec	r5
    2540:	25 2d       	mov	r18, r5
    2542:	30 e0       	ldi	r19, 0x00	; 0
    2544:	a8 01       	movw	r20, r16
    2546:	4e 5f       	subi	r20, 0xFE	; 254
    2548:	5f 4f       	sbci	r21, 0xFF	; 255
    254a:	be 01       	movw	r22, r28
    254c:	63 5e       	subi	r22, 0xE3	; 227
    254e:	7f 4f       	sbci	r23, 0xFF	; 255
    2550:	c6 01       	movw	r24, r12
    2552:	0e 94 b4 03 	call	0x768	; 0x768 <_ZN19LocalCharacteristic10writeValueE9BLEDevicePKhi>
    2556:	ce 01       	movw	r24, r28
    2558:	4d 96       	adiw	r24, 0x1d	; 29
    255a:	0e 94 c9 06 	call	0xd92	; 0xd92 <_ZN9BLEDeviceD1Ev>
    255e:	68 c0       	rjmp	.+208    	; 0x2630 <_ZN8ATTClass13writeReqOrCmdEjhhPh+0x1f8>
    2560:	d6 01       	movw	r26, r12
    2562:	ed 91       	ld	r30, X+
    2564:	fc 91       	ld	r31, X
    2566:	04 80       	ldd	r0, Z+4	; 0x04
    2568:	f5 81       	ldd	r31, Z+5	; 0x05
    256a:	e0 2d       	mov	r30, r0
    256c:	c6 01       	movw	r24, r12
    256e:	09 95       	icall
    2570:	81 15       	cp	r24, r1
    2572:	99 42       	sbci	r25, 0x29	; 41
    2574:	09 f0       	breq	.+2      	; 0x2578 <_ZN8ATTClass13writeReqOrCmdEjhhPh+0x140>
    2576:	52 c0       	rjmp	.+164    	; 0x261c <_ZN8ATTClass13writeReqOrCmdEjhhPh+0x1e4>
    2578:	c6 01       	movw	r24, r12
    257a:	0e 94 52 06 	call	0xca4	; 0xca4 <_ZN12BLEAttribute10uuidLengthEv>
    257e:	82 30       	cpi	r24, 0x02	; 2
    2580:	49 f4       	brne	.+18     	; 0x2594 <_ZN8ATTClass13writeReqOrCmdEjhhPh+0x15c>
    2582:	c6 01       	movw	r24, r12
    2584:	0e 94 4f 06 	call	0xc9e	; 0xc9e <_ZN12BLEAttribute8uuidDataEv>
    2588:	fc 01       	movw	r30, r24
    258a:	80 81       	ld	r24, Z
    258c:	91 81       	ldd	r25, Z+1	; 0x01
    258e:	82 30       	cpi	r24, 0x02	; 2
    2590:	99 42       	sbci	r25, 0x29	; 41
    2592:	51 f0       	breq	.+20     	; 0x25a8 <_ZN8ATTClass13writeReqOrCmdEjhhPh+0x170>
    2594:	22 e1       	ldi	r18, 0x12	; 18
    2596:	42 12       	cpse	r4, r18
    2598:	7f c0       	rjmp	.+254    	; 0x2698 <_ZN8ATTClass13writeReqOrCmdEjhhPh+0x260>
    259a:	03 e0       	ldi	r16, 0x03	; 3
    259c:	93 01       	movw	r18, r6
    259e:	42 e1       	ldi	r20, 0x12	; 18
    25a0:	b5 01       	movw	r22, r10
    25a2:	c4 01       	movw	r24, r8
    25a4:	44 d8       	rcall	.-3960   	; 0x162e <_ZN8ATTClass9sendErrorEjhjh>
    25a6:	78 c0       	rjmp	.+240    	; 0x2698 <_ZN8ATTClass13writeReqOrCmdEjhhPh+0x260>
    25a8:	b3 01       	movw	r22, r6
    25aa:	62 50       	subi	r22, 0x02	; 2
    25ac:	71 09       	sbc	r23, r1
    25ae:	87 e8       	ldi	r24, 0x87	; 135
    25b0:	92 e0       	ldi	r25, 0x02	; 2
    25b2:	70 d4       	rcall	.+2272   	; 0x2e94 <_ZN9GATTClass9attributeEj>
    25b4:	6c 01       	movw	r12, r24
    25b6:	dc 01       	movw	r26, r24
    25b8:	ed 91       	ld	r30, X+
    25ba:	fc 91       	ld	r31, X
    25bc:	04 80       	ldd	r0, Z+4	; 0x04
    25be:	f5 81       	ldd	r31, Z+5	; 0x05
    25c0:	e0 2d       	mov	r30, r0
    25c2:	09 95       	icall
    25c4:	83 30       	cpi	r24, 0x03	; 3
    25c6:	98 42       	sbci	r25, 0x28	; 40
    25c8:	51 f0       	breq	.+20     	; 0x25de <_ZN8ATTClass13writeReqOrCmdEjhhPh+0x1a6>
    25ca:	e2 e1       	ldi	r30, 0x12	; 18
    25cc:	4e 12       	cpse	r4, r30
    25ce:	64 c0       	rjmp	.+200    	; 0x2698 <_ZN8ATTClass13writeReqOrCmdEjhhPh+0x260>
    25d0:	03 e0       	ldi	r16, 0x03	; 3
    25d2:	93 01       	movw	r18, r6
    25d4:	42 e1       	ldi	r20, 0x12	; 18
    25d6:	b5 01       	movw	r22, r10
    25d8:	c4 01       	movw	r24, r8
    25da:	29 d8       	rcall	.-4014   	; 0x162e <_ZN8ATTClass9sendErrorEjhjh>
    25dc:	5d c0       	rjmp	.+186    	; 0x2698 <_ZN8ATTClass13writeReqOrCmdEjhhPh+0x260>
    25de:	d4 01       	movw	r26, r8
    25e0:	14 96       	adiw	r26, 0x04	; 4
    25e2:	8d 91       	ld	r24, X+
    25e4:	9c 91       	ld	r25, X
    25e6:	15 97       	sbiw	r26, 0x05	; 5
    25e8:	a8 16       	cp	r10, r24
    25ea:	b9 06       	cpc	r11, r25
    25ec:	09 f5       	brne	.+66     	; 0x2630 <_ZN8ATTClass13writeReqOrCmdEjhhPh+0x1f8>
    25ee:	f8 01       	movw	r30, r16
    25f0:	02 81       	ldd	r16, Z+2	; 0x02
    25f2:	13 81       	ldd	r17, Z+3	; 0x03
    25f4:	a4 01       	movw	r20, r8
    25f6:	42 5f       	subi	r20, 0xF2	; 242
    25f8:	5f 4f       	sbci	r21, 0xFF	; 255
    25fa:	b5 01       	movw	r22, r10
    25fc:	ce 01       	movw	r24, r28
    25fe:	01 96       	adiw	r24, 0x01	; 1
    2600:	0e 94 af 07 	call	0xf5e	; 0xf5e <_ZN9BLEDeviceC1EjPh>
    2604:	a8 01       	movw	r20, r16
    2606:	be 01       	movw	r22, r28
    2608:	6f 5f       	subi	r22, 0xFF	; 255
    260a:	7f 4f       	sbci	r23, 0xFF	; 255
    260c:	c6 01       	movw	r24, r12
    260e:	0e 94 0d 04 	call	0x81a	; 0x81a <_ZN19LocalCharacteristic14writeCccdValueE9BLEDevicej>
    2612:	ce 01       	movw	r24, r28
    2614:	01 96       	adiw	r24, 0x01	; 1
    2616:	0e 94 c9 06 	call	0xd92	; 0xd92 <_ZN9BLEDeviceD1Ev>
    261a:	0a c0       	rjmp	.+20     	; 0x2630 <_ZN8ATTClass13writeReqOrCmdEjhhPh+0x1f8>
    261c:	f2 e1       	ldi	r31, 0x12	; 18
    261e:	4f 12       	cpse	r4, r31
    2620:	3b c0       	rjmp	.+118    	; 0x2698 <_ZN8ATTClass13writeReqOrCmdEjhhPh+0x260>
    2622:	03 e0       	ldi	r16, 0x03	; 3
    2624:	93 01       	movw	r18, r6
    2626:	42 e1       	ldi	r20, 0x12	; 18
    2628:	b5 01       	movw	r22, r10
    262a:	c4 01       	movw	r24, r8
    262c:	00 d8       	rcall	.-4096   	; 0x162e <_ZN8ATTClass9sendErrorEjhjh>
    262e:	34 c0       	rjmp	.+104    	; 0x2698 <_ZN8ATTClass13writeReqOrCmdEjhhPh+0x260>
    2630:	22 e1       	ldi	r18, 0x12	; 18
    2632:	42 12       	cpse	r4, r18
    2634:	31 c0       	rjmp	.+98     	; 0x2698 <_ZN8ATTClass13writeReqOrCmdEjhhPh+0x260>
    2636:	cd b6       	in	r12, 0x3d	; 61
    2638:	de b6       	in	r13, 0x3e	; 62
    263a:	d4 01       	movw	r26, r8
    263c:	16 96       	adiw	r26, 0x06	; 6
    263e:	8d 91       	ld	r24, X+
    2640:	9c 91       	ld	r25, X
    2642:	17 97       	sbiw	r26, 0x07	; 7
    2644:	ed b7       	in	r30, 0x3d	; 61
    2646:	fe b7       	in	r31, 0x3e	; 62
    2648:	e8 1b       	sub	r30, r24
    264a:	f9 0b       	sbc	r31, r25
    264c:	0f b6       	in	r0, 0x3f	; 63
    264e:	f8 94       	cli
    2650:	fe bf       	out	0x3e, r31	; 62
    2652:	0f be       	out	0x3f, r0	; 63
    2654:	ed bf       	out	0x3d, r30	; 61
    2656:	0d b7       	in	r16, 0x3d	; 61
    2658:	1e b7       	in	r17, 0x3e	; 62
    265a:	0f 5f       	subi	r16, 0xFF	; 255
    265c:	1f 4f       	sbci	r17, 0xFF	; 255
    265e:	83 e1       	ldi	r24, 0x13	; 19
    2660:	81 83       	std	Z+1, r24	; 0x01
    2662:	21 e0       	ldi	r18, 0x01	; 1
    2664:	44 e0       	ldi	r20, 0x04	; 4
    2666:	b5 01       	movw	r22, r10
    2668:	87 e6       	ldi	r24, 0x67	; 103
    266a:	93 e0       	ldi	r25, 0x03	; 3
    266c:	3f d6       	rcall	.+3198   	; 0x32ec <_ZN8HCIClass13sendAclPacketEjhhPv>
    266e:	0f b6       	in	r0, 0x3f	; 63
    2670:	f8 94       	cli
    2672:	de be       	out	0x3e, r13	; 62
    2674:	0f be       	out	0x3f, r0	; 63
    2676:	cd be       	out	0x3d, r12	; 61
    2678:	0f c0       	rjmp	.+30     	; 0x2698 <_ZN8ATTClass13writeReqOrCmdEjhhPh+0x260>
    267a:	c6 01       	movw	r24, r12
    267c:	0e 94 b2 01 	call	0x364	; 0x364 <_ZN19LocalCharacteristic10propertiesEv>
    2680:	83 fd       	sbrc	r24, 3
    2682:	4b cf       	rjmp	.-362    	; 0x251a <_ZN8ATTClass13writeReqOrCmdEjhhPh+0xe2>
    2684:	43 cf       	rjmp	.-378    	; 0x250c <_ZN8ATTClass13writeReqOrCmdEjhhPh+0xd4>
    2686:	d4 01       	movw	r26, r8
    2688:	14 96       	adiw	r26, 0x04	; 4
    268a:	8d 91       	ld	r24, X+
    268c:	9c 91       	ld	r25, X
    268e:	15 97       	sbiw	r26, 0x05	; 5
    2690:	8a 15       	cp	r24, r10
    2692:	9b 05       	cpc	r25, r11
    2694:	09 f4       	brne	.+2      	; 0x2698 <_ZN8ATTClass13writeReqOrCmdEjhhPh+0x260>
    2696:	4a cf       	rjmp	.-364    	; 0x252c <_ZN8ATTClass13writeReqOrCmdEjhhPh+0xf4>
    2698:	0f b6       	in	r0, 0x3f	; 63
    269a:	f8 94       	cli
    269c:	fe be       	out	0x3e, r15	; 62
    269e:	0f be       	out	0x3f, r0	; 63
    26a0:	ed be       	out	0x3d, r14	; 61
    26a2:	e8 96       	adiw	r28, 0x38	; 56
    26a4:	0f b6       	in	r0, 0x3f	; 63
    26a6:	f8 94       	cli
    26a8:	de bf       	out	0x3e, r29	; 62
    26aa:	0f be       	out	0x3f, r0	; 63
    26ac:	cd bf       	out	0x3d, r28	; 61
    26ae:	df 91       	pop	r29
    26b0:	cf 91       	pop	r28
    26b2:	1f 91       	pop	r17
    26b4:	0f 91       	pop	r16
    26b6:	ff 90       	pop	r15
    26b8:	ef 90       	pop	r14
    26ba:	df 90       	pop	r13
    26bc:	cf 90       	pop	r12
    26be:	bf 90       	pop	r11
    26c0:	af 90       	pop	r10
    26c2:	9f 90       	pop	r9
    26c4:	8f 90       	pop	r8
    26c6:	7f 90       	pop	r7
    26c8:	6f 90       	pop	r6
    26ca:	5f 90       	pop	r5
    26cc:	4f 90       	pop	r4
    26ce:	08 95       	ret

000026d0 <_ZN8ATTClass12prepWriteReqEjhPh>:
    26d0:	2f 92       	push	r2
    26d2:	3f 92       	push	r3
    26d4:	4f 92       	push	r4
    26d6:	5f 92       	push	r5
    26d8:	6f 92       	push	r6
    26da:	7f 92       	push	r7
    26dc:	8f 92       	push	r8
    26de:	9f 92       	push	r9
    26e0:	af 92       	push	r10
    26e2:	bf 92       	push	r11
    26e4:	cf 92       	push	r12
    26e6:	df 92       	push	r13
    26e8:	ef 92       	push	r14
    26ea:	ff 92       	push	r15
    26ec:	0f 93       	push	r16
    26ee:	1f 93       	push	r17
    26f0:	cf 93       	push	r28
    26f2:	df 93       	push	r29
    26f4:	00 d0       	rcall	.+0      	; 0x26f6 <_ZN8ATTClass12prepWriteReqEjhPh+0x26>
    26f6:	00 d0       	rcall	.+0      	; 0x26f8 <_ZN8ATTClass12prepWriteReqEjhPh+0x28>
    26f8:	1f 92       	push	r1
    26fa:	cd b7       	in	r28, 0x3d	; 61
    26fc:	de b7       	in	r29, 0x3e	; 62
    26fe:	7c 01       	movw	r14, r24
    2700:	4b 01       	movw	r8, r22
    2702:	49 83       	std	Y+1, r20	; 0x01
    2704:	19 01       	movw	r2, r18
    2706:	cd b6       	in	r12, 0x3d	; 61
    2708:	de b6       	in	r13, 0x3e	; 62
    270a:	ad b6       	in	r10, 0x3d	; 61
    270c:	be b6       	in	r11, 0x3e	; 62
    270e:	44 30       	cpi	r20, 0x04	; 4
    2710:	38 f4       	brcc	.+14     	; 0x2720 <_ZN8ATTClass12prepWriteReqEjhPh+0x50>
    2712:	04 e0       	ldi	r16, 0x04	; 4
    2714:	20 e0       	ldi	r18, 0x00	; 0
    2716:	30 e0       	ldi	r19, 0x00	; 0
    2718:	46 e1       	ldi	r20, 0x16	; 22
    271a:	0e 94 17 0b 	call	0x162e	; 0x162e <_ZN8ATTClass9sendErrorEjhjh>
    271e:	d9 c0       	rjmp	.+434    	; 0x28d2 <_ZN8ATTClass12prepWriteReqEjhPh+0x202>
    2720:	d9 01       	movw	r26, r18
    2722:	6d 90       	ld	r6, X+
    2724:	7c 90       	ld	r7, X
    2726:	11 97       	sbiw	r26, 0x01	; 1
    2728:	12 96       	adiw	r26, 0x02	; 2
    272a:	4d 90       	ld	r4, X+
    272c:	5c 90       	ld	r5, X
    272e:	13 97       	sbiw	r26, 0x03	; 3
    2730:	83 01       	movw	r16, r6
    2732:	01 50       	subi	r16, 0x01	; 1
    2734:	11 09       	sbc	r17, r1
    2736:	87 e8       	ldi	r24, 0x87	; 135
    2738:	92 e0       	ldi	r25, 0x02	; 2
    273a:	a6 d3       	rcall	.+1868   	; 0x2e88 <_ZN9GATTClass14attributeCountEv>
    273c:	80 17       	cp	r24, r16
    273e:	91 07       	cpc	r25, r17
    2740:	40 f4       	brcc	.+16     	; 0x2752 <_ZN8ATTClass12prepWriteReqEjhPh+0x82>
    2742:	0a e0       	ldi	r16, 0x0A	; 10
    2744:	93 01       	movw	r18, r6
    2746:	46 e1       	ldi	r20, 0x16	; 22
    2748:	b4 01       	movw	r22, r8
    274a:	c7 01       	movw	r24, r14
    274c:	0e 94 17 0b 	call	0x162e	; 0x162e <_ZN8ATTClass9sendErrorEjhjh>
    2750:	c0 c0       	rjmp	.+384    	; 0x28d2 <_ZN8ATTClass12prepWriteReqEjhPh+0x202>
    2752:	b8 01       	movw	r22, r16
    2754:	87 e8       	ldi	r24, 0x87	; 135
    2756:	92 e0       	ldi	r25, 0x02	; 2
    2758:	9d d3       	rcall	.+1850   	; 0x2e94 <_ZN9GATTClass9attributeEj>
    275a:	8c 01       	movw	r16, r24
    275c:	dc 01       	movw	r26, r24
    275e:	ed 91       	ld	r30, X+
    2760:	fc 91       	ld	r31, X
    2762:	04 80       	ldd	r0, Z+4	; 0x04
    2764:	f5 81       	ldd	r31, Z+5	; 0x05
    2766:	e0 2d       	mov	r30, r0
    2768:	09 95       	icall
    276a:	83 30       	cpi	r24, 0x03	; 3
    276c:	98 42       	sbci	r25, 0x28	; 40
    276e:	41 f0       	breq	.+16     	; 0x2780 <_ZN8ATTClass12prepWriteReqEjhPh+0xb0>
    2770:	0b e0       	ldi	r16, 0x0B	; 11
    2772:	93 01       	movw	r18, r6
    2774:	46 e1       	ldi	r20, 0x16	; 22
    2776:	b4 01       	movw	r22, r8
    2778:	c7 01       	movw	r24, r14
    277a:	0e 94 17 0b 	call	0x162e	; 0x162e <_ZN8ATTClass9sendErrorEjhjh>
    277e:	a9 c0       	rjmp	.+338    	; 0x28d2 <_ZN8ATTClass12prepWriteReqEjhPh+0x202>
    2780:	c8 01       	movw	r24, r16
    2782:	0e 94 37 02 	call	0x46e	; 0x46e <_ZN19LocalCharacteristic11valueHandleEv>
    2786:	68 16       	cp	r6, r24
    2788:	79 06       	cpc	r7, r25
    278a:	41 f0       	breq	.+16     	; 0x279c <_ZN8ATTClass12prepWriteReqEjhPh+0xcc>
    278c:	0b e0       	ldi	r16, 0x0B	; 11
    278e:	93 01       	movw	r18, r6
    2790:	46 e1       	ldi	r20, 0x16	; 22
    2792:	b4 01       	movw	r22, r8
    2794:	c7 01       	movw	r24, r14
    2796:	0e 94 17 0b 	call	0x162e	; 0x162e <_ZN8ATTClass9sendErrorEjhjh>
    279a:	9b c0       	rjmp	.+310    	; 0x28d2 <_ZN8ATTClass12prepWriteReqEjhPh+0x202>
    279c:	c8 01       	movw	r24, r16
    279e:	0e 94 b2 01 	call	0x364	; 0x364 <_ZN19LocalCharacteristic10propertiesEv>
    27a2:	83 fd       	sbrc	r24, 3
    27a4:	08 c0       	rjmp	.+16     	; 0x27b6 <_ZN8ATTClass12prepWriteReqEjhPh+0xe6>
    27a6:	03 e0       	ldi	r16, 0x03	; 3
    27a8:	93 01       	movw	r18, r6
    27aa:	46 e1       	ldi	r20, 0x16	; 22
    27ac:	b4 01       	movw	r22, r8
    27ae:	c7 01       	movw	r24, r14
    27b0:	0e 94 17 0b 	call	0x162e	; 0x162e <_ZN8ATTClass9sendErrorEjhjh>
    27b4:	8e c0       	rjmp	.+284    	; 0x28d2 <_ZN8ATTClass12prepWriteReqEjhPh+0x202>
    27b6:	f7 01       	movw	r30, r14
    27b8:	80 85       	ldd	r24, Z+8	; 0x08
    27ba:	91 85       	ldd	r25, Z+9	; 0x09
    27bc:	00 97       	sbiw	r24, 0x00	; 0
    27be:	d9 f4       	brne	.+54     	; 0x27f6 <_ZN8ATTClass12prepWriteReqEjhPh+0x126>
    27c0:	c8 01       	movw	r24, r16
    27c2:	0e 94 b5 01 	call	0x36a	; 0x36a <_ZN19LocalCharacteristic9valueSizeEv>
    27c6:	9b 83       	std	Y+3, r25	; 0x03
    27c8:	8a 83       	std	Y+2, r24	; 0x02
    27ca:	bc 01       	movw	r22, r24
    27cc:	d7 01       	movw	r26, r14
    27ce:	1a 96       	adiw	r26, 0x0a	; 10
    27d0:	8d 91       	ld	r24, X+
    27d2:	9c 91       	ld	r25, X
    27d4:	1b 97       	sbiw	r26, 0x0b	; 11
    27d6:	0e 94 bf 26 	call	0x4d7e	; 0x4d7e <realloc>
    27da:	f7 01       	movw	r30, r14
    27dc:	93 87       	std	Z+11, r25	; 0x0b
    27de:	82 87       	std	Z+10, r24	; 0x0a
    27e0:	15 86       	std	Z+13, r1	; 0x0d
    27e2:	14 86       	std	Z+12, r1	; 0x0c
    27e4:	71 86       	std	Z+9, r7	; 0x09
    27e6:	60 86       	std	Z+8, r6	; 0x08
    27e8:	4a 81       	ldd	r20, Y+2	; 0x02
    27ea:	5b 81       	ldd	r21, Y+3	; 0x03
    27ec:	60 e0       	ldi	r22, 0x00	; 0
    27ee:	70 e0       	ldi	r23, 0x00	; 0
    27f0:	0e 94 aa 29 	call	0x5354	; 0x5354 <memset>
    27f4:	0b c0       	rjmp	.+22     	; 0x280c <_ZN8ATTClass12prepWriteReqEjhPh+0x13c>
    27f6:	68 16       	cp	r6, r24
    27f8:	79 06       	cpc	r7, r25
    27fa:	41 f0       	breq	.+16     	; 0x280c <_ZN8ATTClass12prepWriteReqEjhPh+0x13c>
    27fc:	0e e0       	ldi	r16, 0x0E	; 14
    27fe:	93 01       	movw	r18, r6
    2800:	46 e1       	ldi	r20, 0x16	; 22
    2802:	b4 01       	movw	r22, r8
    2804:	c7 01       	movw	r24, r14
    2806:	0e 94 17 0b 	call	0x162e	; 0x162e <_ZN8ATTClass9sendErrorEjhjh>
    280a:	63 c0       	rjmp	.+198    	; 0x28d2 <_ZN8ATTClass12prepWriteReqEjhPh+0x202>
    280c:	d7 01       	movw	r26, r14
    280e:	1c 96       	adiw	r26, 0x0c	; 12
    2810:	8d 91       	ld	r24, X+
    2812:	9c 91       	ld	r25, X
    2814:	1d 97       	sbiw	r26, 0x0d	; 13
    2816:	48 16       	cp	r4, r24
    2818:	59 06       	cpc	r5, r25
    281a:	91 f4       	brne	.+36     	; 0x2840 <_ZN8ATTClass12prepWriteReqEjhPh+0x170>
    281c:	89 81       	ldd	r24, Y+1	; 0x01
    281e:	84 50       	subi	r24, 0x04	; 4
    2820:	e8 2f       	mov	r30, r24
    2822:	f0 e0       	ldi	r31, 0x00	; 0
    2824:	fb 83       	std	Y+3, r31	; 0x03
    2826:	ea 83       	std	Y+2, r30	; 0x02
    2828:	e4 0d       	add	r30, r4
    282a:	f5 1d       	adc	r31, r5
    282c:	fd 83       	std	Y+5, r31	; 0x05
    282e:	ec 83       	std	Y+4, r30	; 0x04
    2830:	c8 01       	movw	r24, r16
    2832:	0e 94 b5 01 	call	0x36a	; 0x36a <_ZN19LocalCharacteristic9valueSizeEv>
    2836:	2c 81       	ldd	r18, Y+4	; 0x04
    2838:	3d 81       	ldd	r19, Y+5	; 0x05
    283a:	82 17       	cp	r24, r18
    283c:	93 07       	cpc	r25, r19
    283e:	40 f4       	brcc	.+16     	; 0x2850 <_ZN8ATTClass12prepWriteReqEjhPh+0x180>
    2840:	07 e0       	ldi	r16, 0x07	; 7
    2842:	93 01       	movw	r18, r6
    2844:	46 e1       	ldi	r20, 0x16	; 22
    2846:	b4 01       	movw	r22, r8
    2848:	c7 01       	movw	r24, r14
    284a:	0e 94 17 0b 	call	0x162e	; 0x162e <_ZN8ATTClass9sendErrorEjhjh>
    284e:	41 c0       	rjmp	.+130    	; 0x28d2 <_ZN8ATTClass12prepWriteReqEjhPh+0x202>
    2850:	d7 01       	movw	r26, r14
    2852:	1a 96       	adiw	r26, 0x0a	; 10
    2854:	8d 91       	ld	r24, X+
    2856:	9c 91       	ld	r25, X
    2858:	1b 97       	sbiw	r26, 0x0b	; 11
    285a:	b1 01       	movw	r22, r2
    285c:	6c 5f       	subi	r22, 0xFC	; 252
    285e:	7f 4f       	sbci	r23, 0xFF	; 255
    2860:	4a 81       	ldd	r20, Y+2	; 0x02
    2862:	5b 81       	ldd	r21, Y+3	; 0x03
    2864:	84 0d       	add	r24, r4
    2866:	95 1d       	adc	r25, r5
    2868:	0e 94 a1 29 	call	0x5342	; 0x5342 <memcpy>
    286c:	f7 01       	movw	r30, r14
    286e:	84 85       	ldd	r24, Z+12	; 0x0c
    2870:	95 85       	ldd	r25, Z+13	; 0x0d
    2872:	2a 81       	ldd	r18, Y+2	; 0x02
    2874:	3b 81       	ldd	r19, Y+3	; 0x03
    2876:	82 0f       	add	r24, r18
    2878:	93 1f       	adc	r25, r19
    287a:	95 87       	std	Z+13, r25	; 0x0d
    287c:	84 87       	std	Z+12, r24	; 0x0c
    287e:	86 81       	ldd	r24, Z+6	; 0x06
    2880:	97 81       	ldd	r25, Z+7	; 0x07
    2882:	ad b7       	in	r26, 0x3d	; 61
    2884:	be b7       	in	r27, 0x3e	; 62
    2886:	a8 1b       	sub	r26, r24
    2888:	b9 0b       	sbc	r27, r25
    288a:	0f b6       	in	r0, 0x3f	; 63
    288c:	f8 94       	cli
    288e:	be bf       	out	0x3e, r27	; 62
    2890:	0f be       	out	0x3f, r0	; 63
    2892:	ad bf       	out	0x3d, r26	; 61
    2894:	ed b7       	in	r30, 0x3d	; 61
    2896:	fe b7       	in	r31, 0x3e	; 62
    2898:	31 96       	adiw	r30, 0x01	; 1
    289a:	7f 01       	movw	r14, r30
    289c:	87 e1       	ldi	r24, 0x17	; 23
    289e:	11 96       	adiw	r26, 0x01	; 1
    28a0:	8c 93       	st	X, r24
    28a2:	b9 81       	ldd	r27, Y+1	; 0x01
    28a4:	0b 2f       	mov	r16, r27
    28a6:	10 e0       	ldi	r17, 0x00	; 0
    28a8:	a8 01       	movw	r20, r16
    28aa:	b1 01       	movw	r22, r2
    28ac:	cf 01       	movw	r24, r30
    28ae:	01 96       	adiw	r24, 0x01	; 1
    28b0:	0e 94 a1 29 	call	0x5342	; 0x5342 <memcpy>
    28b4:	98 01       	movw	r18, r16
    28b6:	2f 5f       	subi	r18, 0xFF	; 255
    28b8:	3f 4f       	sbci	r19, 0xFF	; 255
    28ba:	87 01       	movw	r16, r14
    28bc:	44 e0       	ldi	r20, 0x04	; 4
    28be:	b4 01       	movw	r22, r8
    28c0:	87 e6       	ldi	r24, 0x67	; 103
    28c2:	93 e0       	ldi	r25, 0x03	; 3
    28c4:	13 d5       	rcall	.+2598   	; 0x32ec <_ZN8HCIClass13sendAclPacketEjhhPv>
    28c6:	0f b6       	in	r0, 0x3f	; 63
    28c8:	f8 94       	cli
    28ca:	be be       	out	0x3e, r11	; 62
    28cc:	0f be       	out	0x3f, r0	; 63
    28ce:	ad be       	out	0x3d, r10	; 61
    28d0:	05 c0       	rjmp	.+10     	; 0x28dc <_ZN8ATTClass12prepWriteReqEjhPh+0x20c>
    28d2:	0f b6       	in	r0, 0x3f	; 63
    28d4:	f8 94       	cli
    28d6:	be be       	out	0x3e, r11	; 62
    28d8:	0f be       	out	0x3f, r0	; 63
    28da:	ad be       	out	0x3d, r10	; 61
    28dc:	0f b6       	in	r0, 0x3f	; 63
    28de:	f8 94       	cli
    28e0:	de be       	out	0x3e, r13	; 62
    28e2:	0f be       	out	0x3f, r0	; 63
    28e4:	cd be       	out	0x3d, r12	; 61
    28e6:	0f 90       	pop	r0
    28e8:	0f 90       	pop	r0
    28ea:	0f 90       	pop	r0
    28ec:	0f 90       	pop	r0
    28ee:	0f 90       	pop	r0
    28f0:	df 91       	pop	r29
    28f2:	cf 91       	pop	r28
    28f4:	1f 91       	pop	r17
    28f6:	0f 91       	pop	r16
    28f8:	ff 90       	pop	r15
    28fa:	ef 90       	pop	r14
    28fc:	df 90       	pop	r13
    28fe:	cf 90       	pop	r12
    2900:	bf 90       	pop	r11
    2902:	af 90       	pop	r10
    2904:	9f 90       	pop	r9
    2906:	8f 90       	pop	r8
    2908:	7f 90       	pop	r7
    290a:	6f 90       	pop	r6
    290c:	5f 90       	pop	r5
    290e:	4f 90       	pop	r4
    2910:	3f 90       	pop	r3
    2912:	2f 90       	pop	r2
    2914:	08 95       	ret

00002916 <_ZN8ATTClass12execWriteReqEjhPh>:
    2916:	4f 92       	push	r4
    2918:	5f 92       	push	r5
    291a:	6f 92       	push	r6
    291c:	7f 92       	push	r7
    291e:	8f 92       	push	r8
    2920:	9f 92       	push	r9
    2922:	af 92       	push	r10
    2924:	bf 92       	push	r11
    2926:	cf 92       	push	r12
    2928:	df 92       	push	r13
    292a:	ef 92       	push	r14
    292c:	ff 92       	push	r15
    292e:	0f 93       	push	r16
    2930:	1f 93       	push	r17
    2932:	cf 93       	push	r28
    2934:	df 93       	push	r29
    2936:	cd b7       	in	r28, 0x3d	; 61
    2938:	de b7       	in	r29, 0x3e	; 62
    293a:	6c 97       	sbiw	r28, 0x1c	; 28
    293c:	0f b6       	in	r0, 0x3f	; 63
    293e:	f8 94       	cli
    2940:	de bf       	out	0x3e, r29	; 62
    2942:	0f be       	out	0x3f, r0	; 63
    2944:	cd bf       	out	0x3d, r28	; 61
    2946:	7c 01       	movw	r14, r24
    2948:	6b 01       	movw	r12, r22
    294a:	ad b6       	in	r10, 0x3d	; 61
    294c:	be b6       	in	r11, 0x3e	; 62
    294e:	8d b6       	in	r8, 0x3d	; 61
    2950:	9e b6       	in	r9, 0x3e	; 62
    2952:	41 30       	cpi	r20, 0x01	; 1
    2954:	61 f0       	breq	.+24     	; 0x296e <_ZN8ATTClass12execWriteReqEjhPh+0x58>
    2956:	04 e0       	ldi	r16, 0x04	; 4
    2958:	20 e0       	ldi	r18, 0x00	; 0
    295a:	30 e0       	ldi	r19, 0x00	; 0
    295c:	48 e1       	ldi	r20, 0x18	; 24
    295e:	0e 94 17 0b 	call	0x162e	; 0x162e <_ZN8ATTClass9sendErrorEjhjh>
    2962:	0f b6       	in	r0, 0x3f	; 63
    2964:	f8 94       	cli
    2966:	be be       	out	0x3e, r11	; 62
    2968:	0f be       	out	0x3f, r0	; 63
    296a:	ad be       	out	0x3d, r10	; 61
    296c:	50 c0       	rjmp	.+160    	; 0x2a0e <_ZN8ATTClass12execWriteReqEjhPh+0xf8>
    296e:	fc 01       	movw	r30, r24
    2970:	60 85       	ldd	r22, Z+8	; 0x08
    2972:	71 85       	ldd	r23, Z+9	; 0x09
    2974:	61 15       	cp	r22, r1
    2976:	71 05       	cpc	r23, r1
    2978:	39 f1       	breq	.+78     	; 0x29c8 <_ZN8ATTClass12execWriteReqEjhPh+0xb2>
    297a:	f9 01       	movw	r30, r18
    297c:	80 81       	ld	r24, Z
    297e:	80 ff       	sbrs	r24, 0
    2980:	23 c0       	rjmp	.+70     	; 0x29c8 <_ZN8ATTClass12execWriteReqEjhPh+0xb2>
    2982:	61 50       	subi	r22, 0x01	; 1
    2984:	71 09       	sbc	r23, r1
    2986:	87 e8       	ldi	r24, 0x87	; 135
    2988:	92 e0       	ldi	r25, 0x02	; 2
    298a:	84 d2       	rcall	.+1288   	; 0x2e94 <_ZN9GATTClass9attributeEj>
    298c:	8c 01       	movw	r16, r24
    298e:	f7 01       	movw	r30, r14
    2990:	64 81       	ldd	r22, Z+4	; 0x04
    2992:	75 81       	ldd	r23, Z+5	; 0x05
    2994:	6c 15       	cp	r22, r12
    2996:	7d 05       	cpc	r23, r13
    2998:	b9 f4       	brne	.+46     	; 0x29c8 <_ZN8ATTClass12execWriteReqEjhPh+0xb2>
    299a:	44 84       	ldd	r4, Z+12	; 0x0c
    299c:	55 84       	ldd	r5, Z+13	; 0x0d
    299e:	62 84       	ldd	r6, Z+10	; 0x0a
    29a0:	73 84       	ldd	r7, Z+11	; 0x0b
    29a2:	a7 01       	movw	r20, r14
    29a4:	42 5f       	subi	r20, 0xF2	; 242
    29a6:	5f 4f       	sbci	r21, 0xFF	; 255
    29a8:	ce 01       	movw	r24, r28
    29aa:	01 96       	adiw	r24, 0x01	; 1
    29ac:	0e 94 af 07 	call	0xf5e	; 0xf5e <_ZN9BLEDeviceC1EjPh>
    29b0:	92 01       	movw	r18, r4
    29b2:	a3 01       	movw	r20, r6
    29b4:	be 01       	movw	r22, r28
    29b6:	6f 5f       	subi	r22, 0xFF	; 255
    29b8:	7f 4f       	sbci	r23, 0xFF	; 255
    29ba:	c8 01       	movw	r24, r16
    29bc:	0e 94 b4 03 	call	0x768	; 0x768 <_ZN19LocalCharacteristic10writeValueE9BLEDevicePKhi>
    29c0:	ce 01       	movw	r24, r28
    29c2:	01 96       	adiw	r24, 0x01	; 1
    29c4:	0e 94 c9 06 	call	0xd92	; 0xd92 <_ZN9BLEDeviceD1Ev>
    29c8:	f7 01       	movw	r30, r14
    29ca:	11 86       	std	Z+9, r1	; 0x09
    29cc:	10 86       	std	Z+8, r1	; 0x08
    29ce:	15 86       	std	Z+13, r1	; 0x0d
    29d0:	14 86       	std	Z+12, r1	; 0x0c
    29d2:	86 81       	ldd	r24, Z+6	; 0x06
    29d4:	97 81       	ldd	r25, Z+7	; 0x07
    29d6:	2d b7       	in	r18, 0x3d	; 61
    29d8:	3e b7       	in	r19, 0x3e	; 62
    29da:	28 1b       	sub	r18, r24
    29dc:	39 0b       	sbc	r19, r25
    29de:	0f b6       	in	r0, 0x3f	; 63
    29e0:	f8 94       	cli
    29e2:	3e bf       	out	0x3e, r19	; 62
    29e4:	0f be       	out	0x3f, r0	; 63
    29e6:	2d bf       	out	0x3d, r18	; 61
    29e8:	0d b7       	in	r16, 0x3d	; 61
    29ea:	1e b7       	in	r17, 0x3e	; 62
    29ec:	0f 5f       	subi	r16, 0xFF	; 255
    29ee:	1f 4f       	sbci	r17, 0xFF	; 255
    29f0:	89 e1       	ldi	r24, 0x19	; 25
    29f2:	ed b7       	in	r30, 0x3d	; 61
    29f4:	fe b7       	in	r31, 0x3e	; 62
    29f6:	81 83       	std	Z+1, r24	; 0x01
    29f8:	21 e0       	ldi	r18, 0x01	; 1
    29fa:	44 e0       	ldi	r20, 0x04	; 4
    29fc:	b6 01       	movw	r22, r12
    29fe:	87 e6       	ldi	r24, 0x67	; 103
    2a00:	93 e0       	ldi	r25, 0x03	; 3
    2a02:	74 d4       	rcall	.+2280   	; 0x32ec <_ZN8HCIClass13sendAclPacketEjhhPv>
    2a04:	0f b6       	in	r0, 0x3f	; 63
    2a06:	f8 94       	cli
    2a08:	9e be       	out	0x3e, r9	; 62
    2a0a:	0f be       	out	0x3f, r0	; 63
    2a0c:	8d be       	out	0x3d, r8	; 61
    2a0e:	0f b6       	in	r0, 0x3f	; 63
    2a10:	f8 94       	cli
    2a12:	be be       	out	0x3e, r11	; 62
    2a14:	0f be       	out	0x3f, r0	; 63
    2a16:	ad be       	out	0x3d, r10	; 61
    2a18:	6c 96       	adiw	r28, 0x1c	; 28
    2a1a:	0f b6       	in	r0, 0x3f	; 63
    2a1c:	f8 94       	cli
    2a1e:	de bf       	out	0x3e, r29	; 62
    2a20:	0f be       	out	0x3f, r0	; 63
    2a22:	cd bf       	out	0x3d, r28	; 61
    2a24:	df 91       	pop	r29
    2a26:	cf 91       	pop	r28
    2a28:	1f 91       	pop	r17
    2a2a:	0f 91       	pop	r16
    2a2c:	ff 90       	pop	r15
    2a2e:	ef 90       	pop	r14
    2a30:	df 90       	pop	r13
    2a32:	cf 90       	pop	r12
    2a34:	bf 90       	pop	r11
    2a36:	af 90       	pop	r10
    2a38:	9f 90       	pop	r9
    2a3a:	8f 90       	pop	r8
    2a3c:	7f 90       	pop	r7
    2a3e:	6f 90       	pop	r6
    2a40:	5f 90       	pop	r5
    2a42:	4f 90       	pop	r4
    2a44:	08 95       	ret

00002a46 <_ZN8ATTClass10handleDataEjhPh>:
    2a46:	cf 92       	push	r12
    2a48:	df 92       	push	r13
    2a4a:	ef 92       	push	r14
    2a4c:	ff 92       	push	r15
    2a4e:	0f 93       	push	r16
    2a50:	1f 93       	push	r17
    2a52:	a2 2f       	mov	r26, r18
    2a54:	b3 2f       	mov	r27, r19
    2a56:	5d 91       	ld	r21, X+
    2a58:	41 50       	subi	r20, 0x01	; 1
    2a5a:	c5 2e       	mov	r12, r21
    2a5c:	d1 2c       	mov	r13, r1
    2a5e:	f6 01       	movw	r30, r12
    2a60:	32 97       	sbiw	r30, 0x02	; 2
    2a62:	e1 35       	cpi	r30, 0x51	; 81
    2a64:	f1 05       	cpc	r31, r1
    2a66:	50 f5       	brcc	.+84     	; 0x2abc <_ZN8ATTClass10handleDataEjhPh+0x76>
    2a68:	ea 5b       	subi	r30, 0xBA	; 186
    2a6a:	ff 4f       	sbci	r31, 0xFF	; 255
    2a6c:	0c 94 95 25 	jmp	0x4b2a	; 0x4b2a <__tablejump2__>
    2a70:	9d 01       	movw	r18, r26
    2a72:	0e 94 3e 0b 	call	0x167c	; 0x167c <_ZN8ATTClass6mtuReqEjhPh>
    2a76:	28 c0       	rjmp	.+80     	; 0x2ac8 <_ZN8ATTClass10handleDataEjhPh+0x82>
    2a78:	9d 01       	movw	r18, r26
    2a7a:	0e 94 70 0b 	call	0x16e0	; 0x16e0 <_ZN8ATTClass11findInfoReqEjhPh>
    2a7e:	24 c0       	rjmp	.+72     	; 0x2ac8 <_ZN8ATTClass10handleDataEjhPh+0x82>
    2a80:	9d 01       	movw	r18, r26
    2a82:	0e 94 a3 0c 	call	0x1946	; 0x1946 <_ZN8ATTClass13findByTypeReqEjhPh>
    2a86:	20 c0       	rjmp	.+64     	; 0x2ac8 <_ZN8ATTClass10handleDataEjhPh+0x82>
    2a88:	9d 01       	movw	r18, r26
    2a8a:	07 db       	rcall	.-2546   	; 0x209a <_ZN8ATTClass13readByTypeReqEjhPh>
    2a8c:	1d c0       	rjmp	.+58     	; 0x2ac8 <_ZN8ATTClass10handleDataEjhPh+0x82>
    2a8e:	9d 01       	movw	r18, r26
    2a90:	4d d8       	rcall	.-3942   	; 0x1b2c <_ZN8ATTClass14readByGroupReqEjhPh>
    2a92:	1a c0       	rjmp	.+52     	; 0x2ac8 <_ZN8ATTClass10handleDataEjhPh+0x82>
    2a94:	8d 01       	movw	r16, r26
    2a96:	24 2f       	mov	r18, r20
    2a98:	45 2f       	mov	r20, r21
    2a9a:	5d d9       	rcall	.-3398   	; 0x1d56 <_ZN8ATTClass17readOrReadBlobReqEjhhPh>
    2a9c:	15 c0       	rjmp	.+42     	; 0x2ac8 <_ZN8ATTClass10handleDataEjhPh+0x82>
    2a9e:	8d 01       	movw	r16, r26
    2aa0:	24 2f       	mov	r18, r20
    2aa2:	45 2f       	mov	r20, r21
    2aa4:	c9 dc       	rcall	.-1646   	; 0x2438 <_ZN8ATTClass13writeReqOrCmdEjhhPh>
    2aa6:	10 c0       	rjmp	.+32     	; 0x2ac8 <_ZN8ATTClass10handleDataEjhPh+0x82>
    2aa8:	9d 01       	movw	r18, r26
    2aaa:	12 de       	rcall	.-988    	; 0x26d0 <_ZN8ATTClass12prepWriteReqEjhPh>
    2aac:	0d c0       	rjmp	.+26     	; 0x2ac8 <_ZN8ATTClass10handleDataEjhPh+0x82>
    2aae:	9d 01       	movw	r18, r26
    2ab0:	32 df       	rcall	.-412    	; 0x2916 <_ZN8ATTClass12execWriteReqEjhPh>
    2ab2:	0a c0       	rjmp	.+20     	; 0x2ac8 <_ZN8ATTClass10handleDataEjhPh+0x82>
    2ab4:	21 e0       	ldi	r18, 0x01	; 1
    2ab6:	fc 01       	movw	r30, r24
    2ab8:	24 8b       	std	Z+20, r18	; 0x14
    2aba:	06 c0       	rjmp	.+12     	; 0x2ac8 <_ZN8ATTClass10handleDataEjhPh+0x82>
    2abc:	06 e0       	ldi	r16, 0x06	; 6
    2abe:	20 e0       	ldi	r18, 0x00	; 0
    2ac0:	30 e0       	ldi	r19, 0x00	; 0
    2ac2:	45 2f       	mov	r20, r21
    2ac4:	0e 94 17 0b 	call	0x162e	; 0x162e <_ZN8ATTClass9sendErrorEjhjh>
    2ac8:	1f 91       	pop	r17
    2aca:	0f 91       	pop	r16
    2acc:	ff 90       	pop	r15
    2ace:	ef 90       	pop	r14
    2ad0:	df 90       	pop	r13
    2ad2:	cf 90       	pop	r12
    2ad4:	08 95       	ret

00002ad6 <_GLOBAL__sub_I__ZN8ATTClassC2Ev>:
    }
}

ATTClass g_att;
    2ad6:	8a e5       	ldi	r24, 0x5A	; 90
    2ad8:	92 e0       	ldi	r25, 0x02	; 2
    2ada:	0c 94 bc 08 	jmp	0x1178	; 0x1178 <_ZN8ATTClassC1Ev>
    2ade:	08 95       	ret

00002ae0 <_GLOBAL__sub_D__ZN8ATTClassC2Ev>:
    2ae0:	8a e5       	ldi	r24, 0x5A	; 90
    2ae2:	92 e0       	ldi	r25, 0x02	; 2
    2ae4:	0c 94 a6 08 	jmp	0x114c	; 0x114c <_ZN8ATTClassD1Ev>
    2ae8:	08 95       	ret

00002aea <_ZN8GAPClassD1Ev>:
    m_advertisingInterval = advertisingInterval;
}

void GAPClass::setConnectable(bool connectable)
{
    m_connectable = connectable;
    2aea:	08 95       	ret

00002aec <_ZN8GAPClassD0Ev>:
    2aec:	0c 94 e6 21 	jmp	0x43cc	; 0x43cc <_ZdlPv>
    2af0:	08 95       	ret

00002af2 <_ZN8GAPClassC1Ev>:
    2af2:	fc 01       	movw	r30, r24
    2af4:	8b eb       	ldi	r24, 0xBB	; 187
    2af6:	91 e0       	ldi	r25, 0x01	; 1
    2af8:	91 83       	std	Z+1, r25	; 0x01
    2afa:	80 83       	st	Z, r24
    2afc:	12 82       	std	Z+2, r1	; 0x02
    2afe:	14 82       	std	Z+4, r1	; 0x04
    2b00:	13 82       	std	Z+3, r1	; 0x03
    2b02:	16 82       	std	Z+6, r1	; 0x06
    2b04:	15 82       	std	Z+5, r1	; 0x05
    2b06:	10 86       	std	Z+8, r1	; 0x08
    2b08:	17 82       	std	Z+7, r1	; 0x07
    2b0a:	12 86       	std	Z+10, r1	; 0x0a
    2b0c:	11 86       	std	Z+9, r1	; 0x09
    2b0e:	80 ea       	ldi	r24, 0xA0	; 160
    2b10:	90 e0       	ldi	r25, 0x00	; 0
    2b12:	94 87       	std	Z+12, r25	; 0x0c
    2b14:	83 87       	std	Z+11, r24	; 0x0b
    2b16:	81 e0       	ldi	r24, 0x01	; 1
    2b18:	85 87       	std	Z+13, r24	; 0x0d
    2b1a:	17 86       	std	Z+15, r1	; 0x0f
    2b1c:	16 86       	std	Z+14, r1	; 0x0e
    2b1e:	11 8a       	std	Z+17, r1	; 0x11
    2b20:	10 8a       	std	Z+16, r1	; 0x10
    2b22:	08 95       	ret

00002b24 <_ZN8GAPClass11advertisingEv>:
    2b24:	fc 01       	movw	r30, r24
    2b26:	82 81       	ldd	r24, Z+2	; 0x02
    2b28:	08 95       	ret

00002b2a <_ZN8GAPClass9advertiseEv>:
    2b2a:	6f 92       	push	r6
    2b2c:	7f 92       	push	r7
    2b2e:	8f 92       	push	r8
    2b30:	af 92       	push	r10
    2b32:	cf 92       	push	r12
    2b34:	df 92       	push	r13
    2b36:	ef 92       	push	r14
    2b38:	ff 92       	push	r15
    2b3a:	0f 93       	push	r16
    2b3c:	1f 93       	push	r17
    2b3e:	cf 93       	push	r28
    2b40:	df 93       	push	r29
    2b42:	cd b7       	in	r28, 0x3d	; 61
    2b44:	de b7       	in	r29, 0x3e	; 62
    2b46:	c7 55       	subi	r28, 0x57	; 87
    2b48:	d1 09       	sbc	r29, r1
    2b4a:	0f b6       	in	r0, 0x3f	; 63
    2b4c:	f8 94       	cli
    2b4e:	de bf       	out	0x3e, r29	; 62
    2b50:	0f be       	out	0x3f, r0	; 63
    2b52:	cd bf       	out	0x3d, r28	; 61
    2b54:	3c 01       	movw	r6, r24
    2b56:	fe 01       	movw	r30, r28
    2b58:	31 96       	adiw	r30, 0x01	; 1
    2b5a:	86 e0       	ldi	r24, 0x06	; 6
    2b5c:	df 01       	movw	r26, r30
    2b5e:	1d 92       	st	X+, r1
    2b60:	8a 95       	dec	r24
    2b62:	e9 f7       	brne	.-6      	; 0x2b5e <_ZN8GAPClass9advertiseEv+0x34>
    2b64:	f3 01       	movw	r30, r6
    2b66:	85 85       	ldd	r24, Z+13	; 0x0d
    2b68:	81 11       	cpse	r24, r1
    2b6a:	06 c0       	rjmp	.+12     	; 0x2b78 <_ZN8GAPClass9advertiseEv+0x4e>
    2b6c:	81 85       	ldd	r24, Z+9	; 0x09
    2b6e:	92 85       	ldd	r25, Z+10	; 0x0a
    2b70:	89 2b       	or	r24, r25
    2b72:	21 f4       	brne	.+8      	; 0x2b7c <_ZN8GAPClass9advertiseEv+0x52>
    2b74:	23 e0       	ldi	r18, 0x03	; 3
    2b76:	03 c0       	rjmp	.+6      	; 0x2b7e <_ZN8GAPClass9advertiseEv+0x54>
    2b78:	20 e0       	ldi	r18, 0x00	; 0
    2b7a:	01 c0       	rjmp	.+2      	; 0x2b7e <_ZN8GAPClass9advertiseEv+0x54>
    2b7c:	22 e0       	ldi	r18, 0x02	; 2
    2b7e:	d3 01       	movw	r26, r6
    2b80:	12 96       	adiw	r26, 0x02	; 2
    2b82:	1c 92       	st	X, r1
    2b84:	12 97       	sbiw	r26, 0x02	; 2
    2b86:	1b 96       	adiw	r26, 0x0b	; 11
    2b88:	6d 91       	ld	r22, X+
    2b8a:	7c 91       	ld	r23, X
    2b8c:	1c 97       	sbiw	r26, 0x0c	; 12
    2b8e:	81 2c       	mov	r8, r1
    2b90:	0f 2e       	mov	r0, r31
    2b92:	f7 e0       	ldi	r31, 0x07	; 7
    2b94:	af 2e       	mov	r10, r31
    2b96:	f0 2d       	mov	r31, r0
    2b98:	fe 01       	movw	r30, r28
    2b9a:	31 96       	adiw	r30, 0x01	; 1
    2b9c:	6f 01       	movw	r12, r30
    2b9e:	e1 2c       	mov	r14, r1
    2ba0:	00 e0       	ldi	r16, 0x00	; 0
    2ba2:	ab 01       	movw	r20, r22
    2ba4:	87 e6       	ldi	r24, 0x67	; 103
    2ba6:	93 e0       	ldi	r25, 0x03	; 3
    2ba8:	4d d5       	rcall	.+2714   	; 0x3644 <_ZN8HCIClass22setLeAdvertisingParamsEjjhhhPhhh>
    2baa:	7c 01       	movw	r14, r24
    2bac:	89 2b       	or	r24, r25
    2bae:	09 f0       	breq	.+2      	; 0x2bb2 <_ZN8GAPClass9advertiseEv+0x88>
    2bb0:	d7 c0       	rjmp	.+430    	; 0x2d60 <_ZN8GAPClass9advertiseEv+0x236>
    2bb2:	82 e0       	ldi	r24, 0x02	; 2
    2bb4:	8f 83       	std	Y+7, r24	; 0x07
    2bb6:	81 e0       	ldi	r24, 0x01	; 1
    2bb8:	88 87       	std	Y+8, r24	; 0x08
    2bba:	86 e0       	ldi	r24, 0x06	; 6
    2bbc:	89 87       	std	Y+9, r24	; 0x09
    2bbe:	d3 01       	movw	r26, r6
    2bc0:	13 96       	adiw	r26, 0x03	; 3
    2bc2:	6d 91       	ld	r22, X+
    2bc4:	7c 91       	ld	r23, X
    2bc6:	14 97       	sbiw	r26, 0x04	; 4
    2bc8:	61 15       	cp	r22, r1
    2bca:	71 05       	cpc	r23, r1
    2bcc:	29 f1       	breq	.+74     	; 0x2c18 <_ZN8GAPClass9advertiseEv+0xee>
    2bce:	ce 01       	movw	r24, r28
    2bd0:	8b 5b       	subi	r24, 0xBB	; 187
    2bd2:	9f 4f       	sbci	r25, 0xFF	; 255
    2bd4:	0e 94 36 08 	call	0x106c	; 0x106c <_ZN7BLEUUIDC1EPKc>
    2bd8:	ce 01       	movw	r24, r28
    2bda:	8b 5b       	subi	r24, 0xBB	; 187
    2bdc:	9f 4f       	sbci	r25, 0xFF	; 255
    2bde:	0e 94 a3 08 	call	0x1146	; 0x1146 <_ZN7BLEUUID6lengthEv>
    2be2:	08 2f       	mov	r16, r24
    2be4:	81 e0       	ldi	r24, 0x01	; 1
    2be6:	80 0f       	add	r24, r16
    2be8:	8a 87       	std	Y+10, r24	; 0x0a
    2bea:	80 2f       	mov	r24, r16
    2bec:	90 e0       	ldi	r25, 0x00	; 0
    2bee:	03 97       	sbiw	r24, 0x03	; 3
    2bf0:	14 f4       	brge	.+4      	; 0x2bf6 <_ZN8GAPClass9advertiseEv+0xcc>
    2bf2:	82 e0       	ldi	r24, 0x02	; 2
    2bf4:	01 c0       	rjmp	.+2      	; 0x2bf8 <_ZN8GAPClass9advertiseEv+0xce>
    2bf6:	86 e0       	ldi	r24, 0x06	; 6
    2bf8:	8b 87       	std	Y+11, r24	; 0x0b
    2bfa:	ce 01       	movw	r24, r28
    2bfc:	8b 5b       	subi	r24, 0xBB	; 187
    2bfe:	9f 4f       	sbci	r25, 0xFF	; 255
    2c00:	0e 94 a1 08 	call	0x1142	; 0x1142 <_ZN7BLEUUID4dataEv>
    2c04:	40 2f       	mov	r20, r16
    2c06:	50 e0       	ldi	r21, 0x00	; 0
    2c08:	bc 01       	movw	r22, r24
    2c0a:	ce 01       	movw	r24, r28
    2c0c:	0c 96       	adiw	r24, 0x0c	; 12
    2c0e:	0e 94 a1 29 	call	0x5342	; 0x5342 <memcpy>
    2c12:	65 e0       	ldi	r22, 0x05	; 5
    2c14:	60 0f       	add	r22, r16
    2c16:	1b c0       	rjmp	.+54     	; 0x2c4e <_ZN8GAPClass9advertiseEv+0x124>
    2c18:	f3 01       	movw	r30, r6
    2c1a:	65 81       	ldd	r22, Z+5	; 0x05
    2c1c:	76 81       	ldd	r23, Z+6	; 0x06
    2c1e:	61 15       	cp	r22, r1
    2c20:	71 05       	cpc	r23, r1
    2c22:	91 f0       	breq	.+36     	; 0x2c48 <_ZN8GAPClass9advertiseEv+0x11e>
    2c24:	07 81       	ldd	r16, Z+7	; 0x07
    2c26:	10 85       	ldd	r17, Z+8	; 0x08
    2c28:	01 15       	cp	r16, r1
    2c2a:	11 05       	cpc	r17, r1
    2c2c:	79 f0       	breq	.+30     	; 0x2c4c <_ZN8GAPClass9advertiseEv+0x122>
    2c2e:	81 e0       	ldi	r24, 0x01	; 1
    2c30:	80 0f       	add	r24, r16
    2c32:	8a 87       	std	Y+10, r24	; 0x0a
    2c34:	8f ef       	ldi	r24, 0xFF	; 255
    2c36:	8b 87       	std	Y+11, r24	; 0x0b
    2c38:	a8 01       	movw	r20, r16
    2c3a:	ce 01       	movw	r24, r28
    2c3c:	0c 96       	adiw	r24, 0x0c	; 12
    2c3e:	0e 94 a1 29 	call	0x5342	; 0x5342 <memcpy>
    2c42:	65 e0       	ldi	r22, 0x05	; 5
    2c44:	60 0f       	add	r22, r16
    2c46:	03 c0       	rjmp	.+6      	; 0x2c4e <_ZN8GAPClass9advertiseEv+0x124>
    2c48:	63 e0       	ldi	r22, 0x03	; 3
    2c4a:	01 c0       	rjmp	.+2      	; 0x2c4e <_ZN8GAPClass9advertiseEv+0x124>
    2c4c:	63 e0       	ldi	r22, 0x03	; 3
    2c4e:	d3 01       	movw	r26, r6
    2c50:	1e 96       	adiw	r26, 0x0e	; 14
    2c52:	8d 91       	ld	r24, X+
    2c54:	9c 91       	ld	r25, X
    2c56:	1f 97       	sbiw	r26, 0x0f	; 15
    2c58:	00 97       	sbiw	r24, 0x00	; 0
    2c5a:	f1 f1       	breq	.+124    	; 0x2cd8 <_ZN8GAPClass9advertiseEv+0x1ae>
    2c5c:	50 96       	adiw	r26, 0x10	; 16
    2c5e:	cd 90       	ld	r12, X+
    2c60:	dc 90       	ld	r13, X
    2c62:	51 97       	sbiw	r26, 0x11	; 17
    2c64:	1c 14       	cp	r1, r12
    2c66:	1d 04       	cpc	r1, r13
    2c68:	bc f5       	brge	.+110    	; 0x2cd8 <_ZN8GAPClass9advertiseEv+0x1ae>
    2c6a:	26 2f       	mov	r18, r22
    2c6c:	30 e0       	ldi	r19, 0x00	; 0
    2c6e:	a6 01       	movw	r20, r12
    2c70:	4c 5f       	subi	r20, 0xFC	; 252
    2c72:	5f 4f       	sbci	r21, 0xFF	; 255
    2c74:	24 17       	cp	r18, r20
    2c76:	35 07       	cpc	r19, r21
    2c78:	7c f1       	brlt	.+94     	; 0x2cd8 <_ZN8GAPClass9advertiseEv+0x1ae>
    2c7a:	e7 e0       	ldi	r30, 0x07	; 7
    2c7c:	f0 e0       	ldi	r31, 0x00	; 0
    2c7e:	ec 0f       	add	r30, r28
    2c80:	fd 1f       	adc	r31, r29
    2c82:	e2 0f       	add	r30, r18
    2c84:	f3 1f       	adc	r31, r19
    2c86:	43 e0       	ldi	r20, 0x03	; 3
    2c88:	4c 0d       	add	r20, r12
    2c8a:	40 83       	st	Z, r20
    2c8c:	21 e0       	ldi	r18, 0x01	; 1
    2c8e:	26 0f       	add	r18, r22
    2c90:	e7 e0       	ldi	r30, 0x07	; 7
    2c92:	f0 e0       	ldi	r31, 0x00	; 0
    2c94:	ec 0f       	add	r30, r28
    2c96:	fd 1f       	adc	r31, r29
    2c98:	e2 0f       	add	r30, r18
    2c9a:	f1 1d       	adc	r31, r1
    2c9c:	26 e1       	ldi	r18, 0x16	; 22
    2c9e:	20 83       	st	Z, r18
    2ca0:	22 e0       	ldi	r18, 0x02	; 2
    2ca2:	26 0f       	add	r18, r22
    2ca4:	e7 e0       	ldi	r30, 0x07	; 7
    2ca6:	f0 e0       	ldi	r31, 0x00	; 0
    2ca8:	ec 0f       	add	r30, r28
    2caa:	fd 1f       	adc	r31, r29
    2cac:	e2 0f       	add	r30, r18
    2cae:	f1 1d       	adc	r31, r1
    2cb0:	52 96       	adiw	r26, 0x12	; 18
    2cb2:	2d 91       	ld	r18, X+
    2cb4:	3c 91       	ld	r19, X
    2cb6:	53 97       	sbiw	r26, 0x13	; 19
    2cb8:	31 83       	std	Z+1, r19	; 0x01
    2cba:	20 83       	st	Z, r18
    2cbc:	04 e0       	ldi	r16, 0x04	; 4
    2cbe:	06 0f       	add	r16, r22
    2cc0:	a6 01       	movw	r20, r12
    2cc2:	bc 01       	movw	r22, r24
    2cc4:	87 e0       	ldi	r24, 0x07	; 7
    2cc6:	90 e0       	ldi	r25, 0x00	; 0
    2cc8:	8c 0f       	add	r24, r28
    2cca:	9d 1f       	adc	r25, r29
    2ccc:	80 0f       	add	r24, r16
    2cce:	91 1d       	adc	r25, r1
    2cd0:	0e 94 a1 29 	call	0x5342	; 0x5342 <memcpy>
    2cd4:	60 2f       	mov	r22, r16
    2cd6:	6c 0d       	add	r22, r12
    2cd8:	ae 01       	movw	r20, r28
    2cda:	49 5f       	subi	r20, 0xF9	; 249
    2cdc:	5f 4f       	sbci	r21, 0xFF	; 255
    2cde:	87 e6       	ldi	r24, 0x67	; 103
    2ce0:	93 e0       	ldi	r25, 0x03	; 3
    2ce2:	e7 d4       	rcall	.+2510   	; 0x36b2 <_ZN8HCIClass20setLeAdvertisingDataEhPh>
    2ce4:	6c 01       	movw	r12, r24
    2ce6:	89 2b       	or	r24, r25
    2ce8:	09 f0       	breq	.+2      	; 0x2cec <_ZN8GAPClass9advertiseEv+0x1c2>
    2cea:	3e c0       	rjmp	.+124    	; 0x2d68 <_ZN8GAPClass9advertiseEv+0x23e>
    2cec:	f3 01       	movw	r30, r6
    2cee:	61 85       	ldd	r22, Z+9	; 0x09
    2cf0:	72 85       	ldd	r23, Z+10	; 0x0a
    2cf2:	61 15       	cp	r22, r1
    2cf4:	71 05       	cpc	r23, r1
    2cf6:	e9 f0       	breq	.+58     	; 0x2d32 <_ZN8GAPClass9advertiseEv+0x208>
    2cf8:	fb 01       	movw	r30, r22
    2cfa:	01 90       	ld	r0, Z+
    2cfc:	00 20       	and	r0, r0
    2cfe:	e9 f7       	brne	.-6      	; 0x2cfa <_ZN8GAPClass9advertiseEv+0x1d0>
    2d00:	31 97       	sbiw	r30, 0x01	; 1
    2d02:	8f 01       	movw	r16, r30
    2d04:	06 1b       	sub	r16, r22
    2d06:	17 0b       	sbc	r17, r23
    2d08:	0e 31       	cpi	r16, 0x1E	; 30
    2d0a:	11 05       	cpc	r17, r1
    2d0c:	2c f0       	brlt	.+10     	; 0x2d18 <_ZN8GAPClass9advertiseEv+0x1ee>
    2d0e:	88 e0       	ldi	r24, 0x08	; 8
    2d10:	8f a3       	std	Y+39, r24	; 0x27
    2d12:	0d e1       	ldi	r16, 0x1D	; 29
    2d14:	10 e0       	ldi	r17, 0x00	; 0
    2d16:	02 c0       	rjmp	.+4      	; 0x2d1c <_ZN8GAPClass9advertiseEv+0x1f2>
    2d18:	89 e0       	ldi	r24, 0x09	; 9
    2d1a:	8f a3       	std	Y+39, r24	; 0x27
    2d1c:	81 e0       	ldi	r24, 0x01	; 1
    2d1e:	80 0f       	add	r24, r16
    2d20:	8e a3       	std	Y+38, r24	; 0x26
    2d22:	a8 01       	movw	r20, r16
    2d24:	ce 01       	movw	r24, r28
    2d26:	88 96       	adiw	r24, 0x28	; 40
    2d28:	0e 94 a1 29 	call	0x5342	; 0x5342 <memcpy>
    2d2c:	62 e0       	ldi	r22, 0x02	; 2
    2d2e:	60 0f       	add	r22, r16
    2d30:	01 c0       	rjmp	.+2      	; 0x2d34 <_ZN8GAPClass9advertiseEv+0x20a>
    2d32:	60 e0       	ldi	r22, 0x00	; 0
    2d34:	ae 01       	movw	r20, r28
    2d36:	4a 5d       	subi	r20, 0xDA	; 218
    2d38:	5f 4f       	sbci	r21, 0xFF	; 255
    2d3a:	87 e6       	ldi	r24, 0x67	; 103
    2d3c:	93 e0       	ldi	r25, 0x03	; 3
    2d3e:	ec d4       	rcall	.+2520   	; 0x3718 <_ZN8HCIClass21setLeScanResponseDataEhPh>
    2d40:	7c 01       	movw	r14, r24
    2d42:	89 2b       	or	r24, r25
    2d44:	81 f4       	brne	.+32     	; 0x2d66 <_ZN8GAPClass9advertiseEv+0x23c>
    2d46:	61 e0       	ldi	r22, 0x01	; 1
    2d48:	87 e6       	ldi	r24, 0x67	; 103
    2d4a:	93 e0       	ldi	r25, 0x03	; 3
    2d4c:	18 d5       	rcall	.+2608   	; 0x377e <_ZN8HCIClass20setLeAdvertiseEnableEh>
    2d4e:	89 2b       	or	r24, r25
    2d50:	59 f4       	brne	.+22     	; 0x2d68 <_ZN8GAPClass9advertiseEv+0x23e>
    2d52:	d3 01       	movw	r26, r6
    2d54:	12 96       	adiw	r26, 0x02	; 2
    2d56:	1c 92       	st	X, r1
    2d58:	ee 24       	eor	r14, r14
    2d5a:	e3 94       	inc	r14
    2d5c:	f1 2c       	mov	r15, r1
    2d5e:	04 c0       	rjmp	.+8      	; 0x2d68 <_ZN8GAPClass9advertiseEv+0x23e>
    2d60:	e1 2c       	mov	r14, r1
    2d62:	f1 2c       	mov	r15, r1
    2d64:	01 c0       	rjmp	.+2      	; 0x2d68 <_ZN8GAPClass9advertiseEv+0x23e>
    2d66:	76 01       	movw	r14, r12
    2d68:	c7 01       	movw	r24, r14
    2d6a:	c9 5a       	subi	r28, 0xA9	; 169
    2d6c:	df 4f       	sbci	r29, 0xFF	; 255
    2d6e:	0f b6       	in	r0, 0x3f	; 63
    2d70:	f8 94       	cli
    2d72:	de bf       	out	0x3e, r29	; 62
    2d74:	0f be       	out	0x3f, r0	; 63
    2d76:	cd bf       	out	0x3d, r28	; 61
    2d78:	df 91       	pop	r29
    2d7a:	cf 91       	pop	r28
    2d7c:	1f 91       	pop	r17
    2d7e:	0f 91       	pop	r16
    2d80:	ff 90       	pop	r15
    2d82:	ef 90       	pop	r14
    2d84:	df 90       	pop	r13
    2d86:	cf 90       	pop	r12
    2d88:	af 90       	pop	r10
    2d8a:	8f 90       	pop	r8
    2d8c:	7f 90       	pop	r7
    2d8e:	6f 90       	pop	r6
    2d90:	08 95       	ret

00002d92 <_ZN8GAPClass24setAdvertisedServiceDataEjPKhi>:
}

void GAPClass::setAdvertisedServiceData(uint16_t uuid, const uint8_t data[], int length)
{
    2d92:	fc 01       	movw	r30, r24
    m_serviceDataUuid = uuid;
    2d94:	73 8b       	std	Z+19, r23	; 0x13
    2d96:	62 8b       	std	Z+18, r22	; 0x12
    m_serviceData = data;
    2d98:	57 87       	std	Z+15, r21	; 0x0f
    2d9a:	46 87       	std	Z+14, r20	; 0x0e
    m_serviceDataLength = length;
    2d9c:	31 8b       	std	Z+17, r19	; 0x11
    2d9e:	20 8b       	std	Z+16, r18	; 0x10
    2da0:	08 95       	ret

00002da2 <_GLOBAL__sub_I__ZN8GAPClassC2Ev>:
}

GAPClass g_gap;
    2da2:	83 e7       	ldi	r24, 0x73	; 115
    2da4:	92 e0       	ldi	r25, 0x02	; 2
    2da6:	a5 ce       	rjmp	.-694    	; 0x2af2 <_ZN8GAPClassC1Ev>
    2da8:	08 95       	ret

00002daa <_ZN9GATTClassC1Ev>:
{
    LocalService* localService = service.local();
    if (localService) {
        addService(localService);
    }
}
    2daa:	6f 92       	push	r6
    2dac:	7f 92       	push	r7
    2dae:	8f 92       	push	r8
    2db0:	9f 92       	push	r9
    2db2:	af 92       	push	r10
    2db4:	bf 92       	push	r11
    2db6:	cf 92       	push	r12
    2db8:	df 92       	push	r13
    2dba:	ef 92       	push	r14
    2dbc:	ff 92       	push	r15
    2dbe:	0f 93       	push	r16
    2dc0:	cf 93       	push	r28
    2dc2:	df 93       	push	r29
    2dc4:	ec 01       	movw	r28, r24
    2dc6:	84 ee       	ldi	r24, 0xE4	; 228
    2dc8:	91 e0       	ldi	r25, 0x01	; 1
    2dca:	fe 01       	movw	r30, r28
    2dcc:	81 93       	st	Z+, r24
    2dce:	91 93       	st	Z+, r25
    2dd0:	7f 01       	movw	r14, r30
    2dd2:	6f eb       	ldi	r22, 0xBF	; 191
    2dd4:	71 e0       	ldi	r23, 0x01	; 1
    2dd6:	cf 01       	movw	r24, r30
    2dd8:	0e 94 62 05 	call	0xac4	; 0xac4 <_ZN12LocalServiceC1EPKc>
    2ddc:	4e 01       	movw	r8, r28
    2dde:	f3 e2       	ldi	r31, 0x23	; 35
    2de0:	8f 0e       	add	r8, r31
    2de2:	91 1c       	adc	r9, r1
    2de4:	00 e0       	ldi	r16, 0x00	; 0
    2de6:	24 e1       	ldi	r18, 0x14	; 20
    2de8:	30 e0       	ldi	r19, 0x00	; 0
    2dea:	42 e0       	ldi	r20, 0x02	; 2
    2dec:	64 ec       	ldi	r22, 0xC4	; 196
    2dee:	71 e0       	ldi	r23, 0x01	; 1
    2df0:	c4 01       	movw	r24, r8
    2df2:	0e 94 80 02 	call	0x500	; 0x500 <_ZN19LocalCharacteristicC1EPKchib>
    2df6:	5e 01       	movw	r10, r28
    2df8:	85 e5       	ldi	r24, 0x55	; 85
    2dfa:	a8 0e       	add	r10, r24
    2dfc:	b1 1c       	adc	r11, r1
    2dfe:	22 e0       	ldi	r18, 0x02	; 2
    2e00:	30 e0       	ldi	r19, 0x00	; 0
    2e02:	42 e0       	ldi	r20, 0x02	; 2
    2e04:	69 ec       	ldi	r22, 0xC9	; 201
    2e06:	71 e0       	ldi	r23, 0x01	; 1
    2e08:	c5 01       	movw	r24, r10
    2e0a:	0e 94 80 02 	call	0x500	; 0x500 <_ZN19LocalCharacteristicC1EPKchib>
    2e0e:	6e 01       	movw	r12, r28
    2e10:	e7 e8       	ldi	r30, 0x87	; 135
    2e12:	ce 0e       	add	r12, r30
    2e14:	d1 1c       	adc	r13, r1
    2e16:	6e ec       	ldi	r22, 0xCE	; 206
    2e18:	71 e0       	ldi	r23, 0x01	; 1
    2e1a:	c6 01       	movw	r24, r12
    2e1c:	0e 94 62 05 	call	0xac4	; 0xac4 <_ZN12LocalServiceC1EPKc>
    2e20:	3e 01       	movw	r6, r28
    2e22:	f8 ea       	ldi	r31, 0xA8	; 168
    2e24:	6f 0e       	add	r6, r31
    2e26:	71 1c       	adc	r7, r1
    2e28:	24 e0       	ldi	r18, 0x04	; 4
    2e2a:	30 e0       	ldi	r19, 0x00	; 0
    2e2c:	40 e2       	ldi	r20, 0x20	; 32
    2e2e:	63 ed       	ldi	r22, 0xD3	; 211
    2e30:	71 e0       	ldi	r23, 0x01	; 1
    2e32:	c3 01       	movw	r24, r6
    2e34:	0e 94 80 02 	call	0x500	; 0x500 <_ZN19LocalCharacteristicC1EPKchib>
    2e38:	c6 52       	subi	r28, 0x26	; 38
    2e3a:	df 4f       	sbci	r29, 0xFF	; 255
    2e3c:	19 82       	std	Y+1, r1	; 0x01
    2e3e:	18 82       	st	Y, r1
    2e40:	1b 82       	std	Y+3, r1	; 0x03
    2e42:	1a 82       	std	Y+2, r1	; 0x02
    2e44:	1d 82       	std	Y+5, r1	; 0x05
    2e46:	1c 82       	std	Y+4, r1	; 0x04
    2e48:	c7 01       	movw	r24, r14
    2e4a:	0e 94 55 06 	call	0xcaa	; 0xcaa <_ZN12BLEAttribute6retainEv>
    2e4e:	c6 01       	movw	r24, r12
    2e50:	0e 94 55 06 	call	0xcaa	; 0xcaa <_ZN12BLEAttribute6retainEv>
    2e54:	b4 01       	movw	r22, r8
    2e56:	c7 01       	movw	r24, r14
    2e58:	0e 94 9d 05 	call	0xb3a	; 0xb3a <_ZN12LocalService17addCharacteristicEP19LocalCharacteristic>
    2e5c:	b5 01       	movw	r22, r10
    2e5e:	c7 01       	movw	r24, r14
    2e60:	0e 94 9d 05 	call	0xb3a	; 0xb3a <_ZN12LocalService17addCharacteristicEP19LocalCharacteristic>
    2e64:	b3 01       	movw	r22, r6
    2e66:	c6 01       	movw	r24, r12
    2e68:	0e 94 9d 05 	call	0xb3a	; 0xb3a <_ZN12LocalService17addCharacteristicEP19LocalCharacteristic>
    2e6c:	df 91       	pop	r29
    2e6e:	cf 91       	pop	r28
    2e70:	0f 91       	pop	r16
    2e72:	ff 90       	pop	r15
    2e74:	ef 90       	pop	r14
    2e76:	df 90       	pop	r13
    2e78:	cf 90       	pop	r12
    2e7a:	bf 90       	pop	r11
    2e7c:	af 90       	pop	r10
    2e7e:	9f 90       	pop	r9
    2e80:	8f 90       	pop	r8
    2e82:	7f 90       	pop	r7
    2e84:	6f 90       	pop	r6
    2e86:	08 95       	ret

00002e88 <_ZN9GATTClass14attributeCountEv>:
    2e88:	86 52       	subi	r24, 0x26	; 38
    2e8a:	9f 4f       	sbci	r25, 0xFF	; 255
    2e8c:	fc 01       	movw	r30, r24
    2e8e:	80 81       	ld	r24, Z
    2e90:	91 81       	ldd	r25, Z+1	; 0x01
    2e92:	08 95       	ret

00002e94 <_ZN9GATTClass9attributeEj>:
    2e94:	fc 01       	movw	r30, r24
    2e96:	e6 52       	subi	r30, 0x26	; 38
    2e98:	ff 4f       	sbci	r31, 0xFF	; 255
    2e9a:	20 81       	ld	r18, Z
    2e9c:	31 81       	ldd	r19, Z+1	; 0x01
    2e9e:	62 17       	cp	r22, r18
    2ea0:	73 07       	cpc	r23, r19
    2ea2:	90 f4       	brcc	.+36     	; 0x2ec8 <_ZN9GATTClass9attributeEj+0x34>
    2ea4:	02 80       	ldd	r0, Z+2	; 0x02
    2ea6:	f3 81       	ldd	r31, Z+3	; 0x03
    2ea8:	e0 2d       	mov	r30, r0
    2eaa:	61 15       	cp	r22, r1
    2eac:	71 05       	cpc	r23, r1
    2eae:	49 f0       	breq	.+18     	; 0x2ec2 <_ZN9GATTClass9attributeEj+0x2e>
    2eb0:	80 e0       	ldi	r24, 0x00	; 0
    2eb2:	90 e0       	ldi	r25, 0x00	; 0
    2eb4:	02 80       	ldd	r0, Z+2	; 0x02
    2eb6:	f3 81       	ldd	r31, Z+3	; 0x03
    2eb8:	e0 2d       	mov	r30, r0
    2eba:	01 96       	adiw	r24, 0x01	; 1
    2ebc:	68 17       	cp	r22, r24
    2ebe:	79 07       	cpc	r23, r25
    2ec0:	c9 f7       	brne	.-14     	; 0x2eb4 <_ZN9GATTClass9attributeEj+0x20>
    2ec2:	80 81       	ld	r24, Z
    2ec4:	91 81       	ldd	r25, Z+1	; 0x01
    2ec6:	08 95       	ret
    2ec8:	80 e0       	ldi	r24, 0x00	; 0
    2eca:	90 e0       	ldi	r25, 0x00	; 0
    2ecc:	08 95       	ret

00002ece <_ZN9GATTClass28serviceUuidForCharacteristicEP19LocalCharacteristic>:
    2ece:	8f 92       	push	r8
    2ed0:	9f 92       	push	r9
    2ed2:	af 92       	push	r10
    2ed4:	bf 92       	push	r11
    2ed6:	cf 92       	push	r12
    2ed8:	df 92       	push	r13
    2eda:	ef 92       	push	r14
    2edc:	ff 92       	push	r15
    2ede:	0f 93       	push	r16
    2ee0:	1f 93       	push	r17
    2ee2:	cf 93       	push	r28
    2ee4:	df 93       	push	r29
    2ee6:	fc 01       	movw	r30, r24
    2ee8:	e6 52       	subi	r30, 0x26	; 38
    2eea:	ff 4f       	sbci	r31, 0xFF	; 255
    2eec:	20 81       	ld	r18, Z
    2eee:	31 81       	ldd	r19, Z+1	; 0x01
    2ef0:	23 2b       	or	r18, r19
    2ef2:	b9 f1       	breq	.+110    	; 0x2f62 <_ZN9GATTClass28serviceUuidForCharacteristicEP19LocalCharacteristic+0x94>
    2ef4:	5b 01       	movw	r10, r22
    2ef6:	7c 01       	movw	r14, r24
    2ef8:	00 e0       	ldi	r16, 0x00	; 0
    2efa:	10 e0       	ldi	r17, 0x00	; 0
    2efc:	81 2c       	mov	r8, r1
    2efe:	91 2c       	mov	r9, r1
    2f00:	6f 01       	movw	r12, r30
    2f02:	b8 01       	movw	r22, r16
    2f04:	c7 01       	movw	r24, r14
    2f06:	c6 df       	rcall	.-116    	; 0x2e94 <_ZN9GATTClass9attributeEj>
    2f08:	ec 01       	movw	r28, r24
    2f0a:	e8 81       	ld	r30, Y
    2f0c:	f9 81       	ldd	r31, Y+1	; 0x01
    2f0e:	04 80       	ldd	r0, Z+4	; 0x04
    2f10:	f5 81       	ldd	r31, Z+5	; 0x05
    2f12:	e0 2d       	mov	r30, r0
    2f14:	09 95       	icall
    2f16:	81 15       	cp	r24, r1
    2f18:	98 42       	sbci	r25, 0x28	; 40
    2f1a:	21 f0       	breq	.+8      	; 0x2f24 <_ZN9GATTClass28serviceUuidForCharacteristicEP19LocalCharacteristic+0x56>
    2f1c:	ca 15       	cp	r28, r10
    2f1e:	db 05       	cpc	r29, r11
    2f20:	11 f4       	brne	.+4      	; 0x2f26 <_ZN9GATTClass28serviceUuidForCharacteristicEP19LocalCharacteristic+0x58>
    2f22:	09 c0       	rjmp	.+18     	; 0x2f36 <_ZN9GATTClass28serviceUuidForCharacteristicEP19LocalCharacteristic+0x68>
    2f24:	4e 01       	movw	r8, r28
    2f26:	0f 5f       	subi	r16, 0xFF	; 255
    2f28:	1f 4f       	sbci	r17, 0xFF	; 255
    2f2a:	f6 01       	movw	r30, r12
    2f2c:	80 81       	ld	r24, Z
    2f2e:	91 81       	ldd	r25, Z+1	; 0x01
    2f30:	08 17       	cp	r16, r24
    2f32:	19 07       	cpc	r17, r25
    2f34:	30 f3       	brcs	.-52     	; 0x2f02 <_ZN9GATTClass28serviceUuidForCharacteristicEP19LocalCharacteristic+0x34>
    2f36:	81 14       	cp	r8, r1
    2f38:	91 04       	cpc	r9, r1
    2f3a:	b1 f0       	breq	.+44     	; 0x2f68 <_ZN9GATTClass28serviceUuidForCharacteristicEP19LocalCharacteristic+0x9a>
    2f3c:	c4 01       	movw	r24, r8
    2f3e:	0e 94 52 06 	call	0xca4	; 0xca4 <_ZN12BLEAttribute10uuidLengthEv>
    2f42:	82 30       	cpi	r24, 0x02	; 2
    2f44:	39 f4       	brne	.+14     	; 0x2f54 <_ZN9GATTClass28serviceUuidForCharacteristicEP19LocalCharacteristic+0x86>
    2f46:	c4 01       	movw	r24, r8
    2f48:	0e 94 4f 06 	call	0xc9e	; 0xc9e <_ZN12BLEAttribute8uuidDataEv>
    2f4c:	fc 01       	movw	r30, r24
    2f4e:	80 81       	ld	r24, Z
    2f50:	91 81       	ldd	r25, Z+1	; 0x01
    2f52:	0c c0       	rjmp	.+24     	; 0x2f6c <_ZN9GATTClass28serviceUuidForCharacteristicEP19LocalCharacteristic+0x9e>
    2f54:	c4 01       	movw	r24, r8
    2f56:	0e 94 4f 06 	call	0xc9e	; 0xc9e <_ZN12BLEAttribute8uuidDataEv>
    2f5a:	fc 01       	movw	r30, r24
    2f5c:	82 85       	ldd	r24, Z+10	; 0x0a
    2f5e:	93 85       	ldd	r25, Z+11	; 0x0b
    2f60:	05 c0       	rjmp	.+10     	; 0x2f6c <_ZN9GATTClass28serviceUuidForCharacteristicEP19LocalCharacteristic+0x9e>
    2f62:	80 e0       	ldi	r24, 0x00	; 0
    2f64:	90 e0       	ldi	r25, 0x00	; 0
    2f66:	02 c0       	rjmp	.+4      	; 0x2f6c <_ZN9GATTClass28serviceUuidForCharacteristicEP19LocalCharacteristic+0x9e>
    2f68:	80 e0       	ldi	r24, 0x00	; 0
    2f6a:	90 e0       	ldi	r25, 0x00	; 0
    2f6c:	df 91       	pop	r29
    2f6e:	cf 91       	pop	r28
    2f70:	1f 91       	pop	r17
    2f72:	0f 91       	pop	r16
    2f74:	ff 90       	pop	r15
    2f76:	ef 90       	pop	r14
    2f78:	df 90       	pop	r13
    2f7a:	cf 90       	pop	r12
    2f7c:	bf 90       	pop	r11
    2f7e:	af 90       	pop	r10
    2f80:	9f 90       	pop	r9
    2f82:	8f 90       	pop	r8
    2f84:	08 95       	ret

00002f86 <_ZN11XLinkedListIP12BLEAttributeE5clearEv>:
    2f86:	ef 92       	push	r14
    2f88:	ff 92       	push	r15
    2f8a:	0f 93       	push	r16
    2f8c:	1f 93       	push	r17
    2f8e:	cf 93       	push	r28
    2f90:	df 93       	push	r29
    2f92:	7c 01       	movw	r14, r24
    2f94:	fc 01       	movw	r30, r24
    2f96:	82 81       	ldd	r24, Z+2	; 0x02
    2f98:	93 81       	ldd	r25, Z+3	; 0x03
    2f9a:	20 81       	ld	r18, Z
    2f9c:	31 81       	ldd	r19, Z+1	; 0x01
    2f9e:	23 2b       	or	r18, r19
    2fa0:	81 f0       	breq	.+32     	; 0x2fc2 <_ZN11XLinkedListIP12BLEAttributeE5clearEv+0x3c>
    2fa2:	c0 e0       	ldi	r28, 0x00	; 0
    2fa4:	d0 e0       	ldi	r29, 0x00	; 0
    2fa6:	fc 01       	movw	r30, r24
    2fa8:	02 81       	ldd	r16, Z+2	; 0x02
    2faa:	13 81       	ldd	r17, Z+3	; 0x03
    2fac:	0e 94 e6 21 	call	0x43cc	; 0x43cc <_ZdlPv>
    2fb0:	21 96       	adiw	r28, 0x01	; 1
    2fb2:	80 2f       	mov	r24, r16
    2fb4:	91 2f       	mov	r25, r17
    2fb6:	f7 01       	movw	r30, r14
    2fb8:	20 81       	ld	r18, Z
    2fba:	31 81       	ldd	r19, Z+1	; 0x01
    2fbc:	c2 17       	cp	r28, r18
    2fbe:	d3 07       	cpc	r29, r19
    2fc0:	90 f3       	brcs	.-28     	; 0x2fa6 <_ZN11XLinkedListIP12BLEAttributeE5clearEv+0x20>
    2fc2:	f7 01       	movw	r30, r14
    2fc4:	11 82       	std	Z+1, r1	; 0x01
    2fc6:	10 82       	st	Z, r1
    2fc8:	13 82       	std	Z+3, r1	; 0x03
    2fca:	12 82       	std	Z+2, r1	; 0x02
    2fcc:	15 82       	std	Z+5, r1	; 0x05
    2fce:	14 82       	std	Z+4, r1	; 0x04
    2fd0:	df 91       	pop	r29
    2fd2:	cf 91       	pop	r28
    2fd4:	1f 91       	pop	r17
    2fd6:	0f 91       	pop	r16
    2fd8:	ff 90       	pop	r15
    2fda:	ef 90       	pop	r14
    2fdc:	08 95       	ret

00002fde <_ZN9GATTClass15clearAttributesEv>:
    2fde:	cf 92       	push	r12
    2fe0:	df 92       	push	r13
    2fe2:	ef 92       	push	r14
    2fe4:	ff 92       	push	r15
    2fe6:	0f 93       	push	r16
    2fe8:	1f 93       	push	r17
    2fea:	cf 93       	push	r28
    2fec:	df 93       	push	r29
    2fee:	7c 01       	movw	r14, r24
    2ff0:	fc 01       	movw	r30, r24
    2ff2:	e6 52       	subi	r30, 0x26	; 38
    2ff4:	ff 4f       	sbci	r31, 0xFF	; 255
    2ff6:	80 81       	ld	r24, Z
    2ff8:	91 81       	ldd	r25, Z+1	; 0x01
    2ffa:	89 2b       	or	r24, r25
    2ffc:	f1 f0       	breq	.+60     	; 0x303a <_ZN9GATTClass15clearAttributesEv+0x5c>
    2ffe:	c0 e0       	ldi	r28, 0x00	; 0
    3000:	d0 e0       	ldi	r29, 0x00	; 0
    3002:	6f 01       	movw	r12, r30
    3004:	be 01       	movw	r22, r28
    3006:	c7 01       	movw	r24, r14
    3008:	45 df       	rcall	.-374    	; 0x2e94 <_ZN9GATTClass9attributeEj>
    300a:	8c 01       	movw	r16, r24
    300c:	0e 94 5d 06 	call	0xcba	; 0xcba <_ZN12BLEAttribute7releaseEv>
    3010:	18 16       	cp	r1, r24
    3012:	19 06       	cpc	r1, r25
    3014:	5c f0       	brlt	.+22     	; 0x302c <_ZN9GATTClass15clearAttributesEv+0x4e>
    3016:	01 15       	cp	r16, r1
    3018:	11 05       	cpc	r17, r1
    301a:	41 f0       	breq	.+16     	; 0x302c <_ZN9GATTClass15clearAttributesEv+0x4e>
    301c:	d8 01       	movw	r26, r16
    301e:	ed 91       	ld	r30, X+
    3020:	fc 91       	ld	r31, X
    3022:	02 80       	ldd	r0, Z+2	; 0x02
    3024:	f3 81       	ldd	r31, Z+3	; 0x03
    3026:	e0 2d       	mov	r30, r0
    3028:	c8 01       	movw	r24, r16
    302a:	09 95       	icall
    302c:	21 96       	adiw	r28, 0x01	; 1
    302e:	f6 01       	movw	r30, r12
    3030:	80 81       	ld	r24, Z
    3032:	91 81       	ldd	r25, Z+1	; 0x01
    3034:	c8 17       	cp	r28, r24
    3036:	d9 07       	cpc	r29, r25
    3038:	28 f3       	brcs	.-54     	; 0x3004 <_ZN9GATTClass15clearAttributesEv+0x26>
    303a:	c7 01       	movw	r24, r14
    303c:	86 52       	subi	r24, 0x26	; 38
    303e:	9f 4f       	sbci	r25, 0xFF	; 255
    3040:	a2 df       	rcall	.-188    	; 0x2f86 <_ZN11XLinkedListIP12BLEAttributeE5clearEv>
    3042:	df 91       	pop	r29
    3044:	cf 91       	pop	r28
    3046:	1f 91       	pop	r17
    3048:	0f 91       	pop	r16
    304a:	ff 90       	pop	r15
    304c:	ef 90       	pop	r14
    304e:	df 90       	pop	r13
    3050:	cf 90       	pop	r12
    3052:	08 95       	ret

00003054 <_GLOBAL__sub_I__ZN9GATTClassC2Ev>:
        }
    }
    m_attributes.clear();
}

GATTClass g_gatt;
    3054:	87 e8       	ldi	r24, 0x87	; 135
    3056:	92 e0       	ldi	r25, 0x02	; 2
    3058:	a8 ce       	rjmp	.-688    	; 0x2daa <_ZN9GATTClassC1Ev>
    305a:	08 95       	ret

0000305c <_ZN9GATTClassD1Ev>:
    m_genericAccessService.addCharacteristic(&m_deviceNameCharacteristic);
    m_genericAccessService.addCharacteristic(&m_appearanceCharacteristic);
    m_genericAttributeService.addCharacteristic(&m_servicesChangedCharacteristic);
}

GATTClass::~GATTClass()
    305c:	cf 93       	push	r28
    305e:	df 93       	push	r29
    3060:	ec 01       	movw	r28, r24
    3062:	84 ee       	ldi	r24, 0xE4	; 228
    3064:	91 e0       	ldi	r25, 0x01	; 1
    3066:	99 83       	std	Y+1, r25	; 0x01
    3068:	88 83       	st	Y, r24
{
    clearAttributes();
    306a:	ce 01       	movw	r24, r28
    306c:	b8 df       	rcall	.-144    	; 0x2fde <_ZN9GATTClass15clearAttributesEv>
    306e:	ce 01       	movw	r24, r28
    3070:	86 52       	subi	r24, 0x26	; 38
    3072:	9f 4f       	sbci	r25, 0xFF	; 255
    3074:	88 df       	rcall	.-240    	; 0x2f86 <_ZN11XLinkedListIP12BLEAttributeE5clearEv>
    m_genericAccessService.addCharacteristic(&m_deviceNameCharacteristic);
    m_genericAccessService.addCharacteristic(&m_appearanceCharacteristic);
    m_genericAttributeService.addCharacteristic(&m_servicesChangedCharacteristic);
}

GATTClass::~GATTClass()
    3076:	ce 01       	movw	r24, r28
    3078:	88 55       	subi	r24, 0x58	; 88
    307a:	9f 4f       	sbci	r25, 0xFF	; 255
    307c:	0e 94 fa 02 	call	0x5f4	; 0x5f4 <_ZN19LocalCharacteristicD1Ev>
    3080:	ce 01       	movw	r24, r28
    3082:	89 57       	subi	r24, 0x79	; 121
    3084:	9f 4f       	sbci	r25, 0xFF	; 255
    3086:	0e 94 f1 05 	call	0xbe2	; 0xbe2 <_ZN12LocalServiceD1Ev>
    308a:	ce 01       	movw	r24, r28
    308c:	8b 5a       	subi	r24, 0xAB	; 171
    308e:	9f 4f       	sbci	r25, 0xFF	; 255
    3090:	0e 94 fa 02 	call	0x5f4	; 0x5f4 <_ZN19LocalCharacteristicD1Ev>
    3094:	ce 01       	movw	r24, r28
    3096:	83 96       	adiw	r24, 0x23	; 35
    3098:	0e 94 fa 02 	call	0x5f4	; 0x5f4 <_ZN19LocalCharacteristicD1Ev>
    309c:	ce 01       	movw	r24, r28
    309e:	02 96       	adiw	r24, 0x02	; 2
    30a0:	0e 94 f1 05 	call	0xbe2	; 0xbe2 <_ZN12LocalServiceD1Ev>
{
    clearAttributes();
}
    30a4:	df 91       	pop	r29
    30a6:	cf 91       	pop	r28
    30a8:	08 95       	ret

000030aa <_ZN9GATTClassD0Ev>:
    m_genericAccessService.addCharacteristic(&m_deviceNameCharacteristic);
    m_genericAccessService.addCharacteristic(&m_appearanceCharacteristic);
    m_genericAttributeService.addCharacteristic(&m_servicesChangedCharacteristic);
}

GATTClass::~GATTClass()
    30aa:	cf 93       	push	r28
    30ac:	df 93       	push	r29
    30ae:	ec 01       	movw	r28, r24
{
    clearAttributes();
}
    30b0:	d5 df       	rcall	.-86     	; 0x305c <_ZN9GATTClassD1Ev>
    30b2:	ce 01       	movw	r24, r28
    30b4:	0e 94 e6 21 	call	0x43cc	; 0x43cc <_ZdlPv>
    30b8:	df 91       	pop	r29
    30ba:	cf 91       	pop	r28
    30bc:	08 95       	ret

000030be <_GLOBAL__sub_D__ZN9GATTClassC2Ev>:
        }
    }
    m_attributes.clear();
}

GATTClass g_gatt;
    30be:	87 e8       	ldi	r24, 0x87	; 135
    30c0:	92 e0       	ldi	r25, 0x02	; 2
    30c2:	cc cf       	rjmp	.-104    	; 0x305c <_ZN9GATTClassD1Ev>
    30c4:	08 95       	ret

000030c6 <_ZN8HCIClassD1Ev>:
    }
}

void HCIClass::dumpPacket(const char* prefix, uint8_t plen, uint8_t pdata[])
{
    for (uint8_t i = 0; i < plen; i++) {
    30c6:	08 95       	ret

000030c8 <_ZN8HCIClassD0Ev>:
    30c8:	0c 94 e6 21 	jmp	0x43cc	; 0x43cc <_ZdlPv>
    30cc:	08 95       	ret

000030ce <_ZN8HCIClass20handleNumCompPacketsEjj>:
    30ce:	41 15       	cp	r20, r1
    30d0:	51 05       	cpc	r21, r1
    30d2:	61 f0       	breq	.+24     	; 0x30ec <_ZN8HCIClass20handleNumCompPacketsEjj+0x1e>
    30d4:	fc 01       	movw	r30, r24
    30d6:	e2 5f       	subi	r30, 0xF2	; 242
    30d8:	fe 4f       	sbci	r31, 0xFE	; 254
    30da:	20 81       	ld	r18, Z
    30dc:	62 2f       	mov	r22, r18
    30de:	70 e0       	ldi	r23, 0x00	; 0
    30e0:	46 17       	cp	r20, r22
    30e2:	57 07       	cpc	r21, r23
    30e4:	18 f4       	brcc	.+6      	; 0x30ec <_ZN8HCIClass20handleNumCompPacketsEjj+0x1e>
    30e6:	24 1b       	sub	r18, r20
    30e8:	20 83       	st	Z, r18
    30ea:	08 95       	ret
    30ec:	fc 01       	movw	r30, r24
    30ee:	e2 5f       	subi	r30, 0xF2	; 242
    30f0:	fe 4f       	sbci	r31, 0xFE	; 254
    30f2:	10 82       	st	Z, r1
    30f4:	08 95       	ret

000030f6 <_ZN8HCIClass17handleEventPacketEhPh>:
    30f6:	6f 92       	push	r6
    30f8:	7f 92       	push	r7
    30fa:	8f 92       	push	r8
    30fc:	af 92       	push	r10
    30fe:	bf 92       	push	r11
    3100:	cf 92       	push	r12
    3102:	df 92       	push	r13
    3104:	ef 92       	push	r14
    3106:	ff 92       	push	r15
    3108:	0f 93       	push	r16
    310a:	1f 93       	push	r17
    310c:	cf 93       	push	r28
    310e:	df 93       	push	r29
    3110:	7c 01       	movw	r14, r24
    3112:	ea 01       	movw	r28, r20
    3114:	88 81       	ld	r24, Y
    3116:	85 30       	cpi	r24, 0x05	; 5
    3118:	99 f4       	brne	.+38     	; 0x3140 <_ZN8HCIClass17handleEventPacketEhPh+0x4a>
    311a:	4d 81       	ldd	r20, Y+5	; 0x05
    311c:	50 e0       	ldi	r21, 0x00	; 0
    311e:	6b 81       	ldd	r22, Y+3	; 0x03
    3120:	8a e5       	ldi	r24, 0x5A	; 90
    3122:	92 e0       	ldi	r25, 0x02	; 2
    3124:	0e 94 1d 09 	call	0x123a	; 0x123a <_ZN8ATTClass16removeConnectionEhj>
    3128:	4d 81       	ldd	r20, Y+5	; 0x05
    312a:	50 e0       	ldi	r21, 0x00	; 0
    312c:	6b 81       	ldd	r22, Y+3	; 0x03
    312e:	7c 81       	ldd	r23, Y+4	; 0x04
    3130:	8e e7       	ldi	r24, 0x7E	; 126
    3132:	94 e0       	ldi	r25, 0x04	; 4
    3134:	53 d4       	rcall	.+2214   	; 0x39dc <_ZN19L2CAPSignalingClass16removeConnectionEjj>
    3136:	61 e0       	ldi	r22, 0x01	; 1
    3138:	87 e6       	ldi	r24, 0x67	; 103
    313a:	93 e0       	ldi	r25, 0x03	; 3
    313c:	20 d3       	rcall	.+1600   	; 0x377e <_ZN8HCIClass20setLeAdvertiseEnableEh>
    313e:	53 c0       	rjmp	.+166    	; 0x31e6 <_ZN8HCIClass17handleEventPacketEhPh+0xf0>
    3140:	8e 30       	cpi	r24, 0x0E	; 14
    3142:	a9 f4       	brne	.+42     	; 0x316e <_ZN8HCIClass17handleEventPacketEhPh+0x78>
    3144:	8b 81       	ldd	r24, Y+3	; 0x03
    3146:	9c 81       	ldd	r25, Y+4	; 0x04
    3148:	f7 01       	movw	r30, r14
    314a:	ea 5f       	subi	r30, 0xFA	; 250
    314c:	fe 4f       	sbci	r31, 0xFE	; 254
    314e:	91 83       	std	Z+1, r25	; 0x01
    3150:	80 83       	st	Z, r24
    3152:	32 96       	adiw	r30, 0x02	; 2
    3154:	8d 81       	ldd	r24, Y+5	; 0x05
    3156:	90 e0       	ldi	r25, 0x00	; 0
    3158:	91 83       	std	Z+1, r25	; 0x01
    315a:	80 83       	st	Z, r24
    315c:	32 96       	adiw	r30, 0x02	; 2
    315e:	89 81       	ldd	r24, Y+1	; 0x01
    3160:	84 50       	subi	r24, 0x04	; 4
    3162:	80 83       	st	Z, r24
    3164:	31 96       	adiw	r30, 0x01	; 1
    3166:	26 96       	adiw	r28, 0x06	; 6
    3168:	d1 83       	std	Z+1, r29	; 0x01
    316a:	c0 83       	st	Z, r28
    316c:	3c c0       	rjmp	.+120    	; 0x31e6 <_ZN8HCIClass17handleEventPacketEhPh+0xf0>
    316e:	83 31       	cpi	r24, 0x13	; 19
    3170:	81 f4       	brne	.+32     	; 0x3192 <_ZN8HCIClass17handleEventPacketEhPh+0x9c>
    3172:	0a 81       	ldd	r16, Y+2	; 0x02
    3174:	23 96       	adiw	r28, 0x03	; 3
    3176:	00 23       	and	r16, r16
    3178:	b1 f1       	breq	.+108    	; 0x31e6 <_ZN8HCIClass17handleEventPacketEhPh+0xf0>
    317a:	10 e0       	ldi	r17, 0x00	; 0
    317c:	4a 81       	ldd	r20, Y+2	; 0x02
    317e:	5b 81       	ldd	r21, Y+3	; 0x03
    3180:	68 81       	ld	r22, Y
    3182:	79 81       	ldd	r23, Y+1	; 0x01
    3184:	c7 01       	movw	r24, r14
    3186:	a3 df       	rcall	.-186    	; 0x30ce <_ZN8HCIClass20handleNumCompPacketsEjj>
    3188:	24 96       	adiw	r28, 0x04	; 4
    318a:	1f 5f       	subi	r17, 0xFF	; 255
    318c:	01 13       	cpse	r16, r17
    318e:	f6 cf       	rjmp	.-20     	; 0x317c <_ZN8HCIClass17handleEventPacketEhPh+0x86>
    3190:	2a c0       	rjmp	.+84     	; 0x31e6 <_ZN8HCIClass17handleEventPacketEhPh+0xf0>
    3192:	8e 33       	cpi	r24, 0x3E	; 62
    3194:	41 f5       	brne	.+80     	; 0x31e6 <_ZN8HCIClass17handleEventPacketEhPh+0xf0>
    3196:	8a 81       	ldd	r24, Y+2	; 0x02
    3198:	81 30       	cpi	r24, 0x01	; 1
    319a:	29 f5       	brne	.+74     	; 0x31e6 <_ZN8HCIClass17handleEventPacketEhPh+0xf0>
    319c:	8b 81       	ldd	r24, Y+3	; 0x03
    319e:	81 11       	cpse	r24, r1
    31a0:	22 c0       	rjmp	.+68     	; 0x31e6 <_ZN8HCIClass17handleEventPacketEhPh+0xf0>
    31a2:	3a 01       	movw	r6, r20
    31a4:	88 e0       	ldi	r24, 0x08	; 8
    31a6:	68 0e       	add	r6, r24
    31a8:	71 1c       	adc	r7, r1
    31aa:	aa 88       	ldd	r10, Y+18	; 0x12
    31ac:	bb 88       	ldd	r11, Y+19	; 0x13
    31ae:	c8 88       	ldd	r12, Y+16	; 0x10
    31b0:	d9 88       	ldd	r13, Y+17	; 0x11
    31b2:	ee 84       	ldd	r14, Y+14	; 0x0e
    31b4:	ff 84       	ldd	r15, Y+15	; 0x0f
    31b6:	6c 81       	ldd	r22, Y+4	; 0x04
    31b8:	7d 81       	ldd	r23, Y+5	; 0x05
    31ba:	8c 88       	ldd	r8, Y+20	; 0x14
    31bc:	83 01       	movw	r16, r6
    31be:	2f 81       	ldd	r18, Y+7	; 0x07
    31c0:	4e 81       	ldd	r20, Y+6	; 0x06
    31c2:	8a e5       	ldi	r24, 0x5A	; 90
    31c4:	92 e0       	ldi	r25, 0x02	; 2
    31c6:	0e 94 e3 08 	call	0x11c6	; 0x11c6 <_ZN8ATTClass13addConnectionEjhhPhjjjh>
    31ca:	aa 88       	ldd	r10, Y+18	; 0x12
    31cc:	bb 88       	ldd	r11, Y+19	; 0x13
    31ce:	c8 88       	ldd	r12, Y+16	; 0x10
    31d0:	d9 88       	ldd	r13, Y+17	; 0x11
    31d2:	ee 84       	ldd	r14, Y+14	; 0x0e
    31d4:	ff 84       	ldd	r15, Y+15	; 0x0f
    31d6:	6c 81       	ldd	r22, Y+4	; 0x04
    31d8:	7d 81       	ldd	r23, Y+5	; 0x05
    31da:	8c 88       	ldd	r8, Y+20	; 0x14
    31dc:	2f 81       	ldd	r18, Y+7	; 0x07
    31de:	4e 81       	ldd	r20, Y+6	; 0x06
    31e0:	8e e7       	ldi	r24, 0x7E	; 126
    31e2:	94 e0       	ldi	r25, 0x04	; 4
    31e4:	b1 d3       	rcall	.+1890   	; 0x3948 <_ZN19L2CAPSignalingClass13addConnectionEjhhPhjjjh>
    31e6:	df 91       	pop	r29
    31e8:	cf 91       	pop	r28
    31ea:	1f 91       	pop	r17
    31ec:	0f 91       	pop	r16
    31ee:	ff 90       	pop	r15
    31f0:	ef 90       	pop	r14
    31f2:	df 90       	pop	r13
    31f4:	cf 90       	pop	r12
    31f6:	bf 90       	pop	r11
    31f8:	af 90       	pop	r10
    31fa:	8f 90       	pop	r8
    31fc:	7f 90       	pop	r7
    31fe:	6f 90       	pop	r6
    3200:	08 95       	ret

00003202 <_ZN8HCIClass4pollEm>:
    3202:	ef 92       	push	r14
    3204:	ff 92       	push	r15
    3206:	0f 93       	push	r16
    3208:	1f 93       	push	r17
    320a:	cf 93       	push	r28
    320c:	df 93       	push	r29
    320e:	ec 01       	movw	r28, r24
    3210:	41 15       	cp	r20, r1
    3212:	51 05       	cpc	r21, r1
    3214:	61 05       	cpc	r22, r1
    3216:	71 05       	cpc	r23, r1
    3218:	59 f0       	breq	.+22     	; 0x3230 <_ZN8HCIClass4pollEm+0x2e>
    321a:	80 91 06 02 	lds	r24, 0x0206	; 0x800206 <g_hciTransport>
    321e:	90 91 07 02 	lds	r25, 0x0207	; 0x800207 <g_hciTransport+0x1>
    3222:	dc 01       	movw	r26, r24
    3224:	ed 91       	ld	r30, X+
    3226:	fc 91       	ld	r31, X
    3228:	04 80       	ldd	r0, Z+4	; 0x04
    322a:	f5 81       	ldd	r31, Z+5	; 0x05
    322c:	e0 2d       	mov	r30, r0
    322e:	09 95       	icall
    3230:	00 91 06 02 	lds	r16, 0x0206	; 0x800206 <g_hciTransport>
    3234:	10 91 07 02 	lds	r17, 0x0207	; 0x800207 <g_hciTransport+0x1>
    3238:	7e 01       	movw	r14, r28
    323a:	b5 e0       	ldi	r27, 0x05	; 5
    323c:	eb 0e       	add	r14, r27
    323e:	f1 1c       	adc	r15, r1
    3240:	d8 01       	movw	r26, r16
    3242:	ed 91       	ld	r30, X+
    3244:	fc 91       	ld	r31, X
    3246:	06 80       	ldd	r0, Z+6	; 0x06
    3248:	f7 81       	ldd	r31, Z+7	; 0x07
    324a:	e0 2d       	mov	r30, r0
    324c:	c8 01       	movw	r24, r16
    324e:	09 95       	icall
    3250:	89 2b       	or	r24, r25
    3252:	09 f4       	brne	.+2      	; 0x3256 <_ZN8HCIClass4pollEm+0x54>
    3254:	3f c0       	rjmp	.+126    	; 0x32d4 <_ZN8HCIClass4pollEm+0xd2>
    3256:	d8 01       	movw	r26, r16
    3258:	ed 91       	ld	r30, X+
    325a:	fc 91       	ld	r31, X
    325c:	02 84       	ldd	r0, Z+10	; 0x0a
    325e:	f3 85       	ldd	r31, Z+11	; 0x0b
    3260:	e0 2d       	mov	r30, r0
    3262:	c8 01       	movw	r24, r16
    3264:	09 95       	icall
    3266:	6a 81       	ldd	r22, Y+2	; 0x02
    3268:	7b 81       	ldd	r23, Y+3	; 0x03
    326a:	9b 01       	movw	r18, r22
    326c:	2f 5f       	subi	r18, 0xFF	; 255
    326e:	3f 4f       	sbci	r19, 0xFF	; 255
    3270:	3b 83       	std	Y+3, r19	; 0x03
    3272:	2a 83       	std	Y+2, r18	; 0x02
    3274:	fe 01       	movw	r30, r28
    3276:	e6 0f       	add	r30, r22
    3278:	f7 1f       	adc	r31, r23
    327a:	84 83       	std	Z+4, r24	; 0x04
    327c:	8c 81       	ldd	r24, Y+4	; 0x04
    327e:	82 30       	cpi	r24, 0x02	; 2
    3280:	a1 f4       	brne	.+40     	; 0x32aa <_ZN8HCIClass4pollEm+0xa8>
    3282:	26 30       	cpi	r18, 0x06	; 6
    3284:	31 05       	cpc	r19, r1
    3286:	e4 f2       	brlt	.-72     	; 0x3240 <_ZN8HCIClass4pollEm+0x3e>
    3288:	88 85       	ldd	r24, Y+8	; 0x08
    328a:	90 e0       	ldi	r25, 0x00	; 0
    328c:	98 2f       	mov	r25, r24
    328e:	88 27       	eor	r24, r24
    3290:	4f 81       	ldd	r20, Y+7	; 0x07
    3292:	84 0f       	add	r24, r20
    3294:	91 1d       	adc	r25, r1
    3296:	05 96       	adiw	r24, 0x05	; 5
    3298:	28 17       	cp	r18, r24
    329a:	39 07       	cpc	r19, r25
    329c:	8c f2       	brlt	.-94     	; 0x3240 <_ZN8HCIClass4pollEm+0x3e>
    329e:	1b 82       	std	Y+3, r1	; 0x03
    32a0:	1a 82       	std	Y+2, r1	; 0x02
    32a2:	a7 01       	movw	r20, r14
    32a4:	ce 01       	movw	r24, r28
    32a6:	ad d0       	rcall	.+346    	; 0x3402 <_ZN8HCIClass19handleAclDataPacketEhPh>
    32a8:	cb cf       	rjmp	.-106    	; 0x3240 <_ZN8HCIClass4pollEm+0x3e>
    32aa:	84 30       	cpi	r24, 0x04	; 4
    32ac:	81 f4       	brne	.+32     	; 0x32ce <_ZN8HCIClass4pollEm+0xcc>
    32ae:	24 30       	cpi	r18, 0x04	; 4
    32b0:	31 05       	cpc	r19, r1
    32b2:	34 f2       	brlt	.-116    	; 0x3240 <_ZN8HCIClass4pollEm+0x3e>
    32b4:	8e 81       	ldd	r24, Y+6	; 0x06
    32b6:	90 e0       	ldi	r25, 0x00	; 0
    32b8:	03 96       	adiw	r24, 0x03	; 3
    32ba:	28 17       	cp	r18, r24
    32bc:	39 07       	cpc	r19, r25
    32be:	0c f4       	brge	.+2      	; 0x32c2 <_ZN8HCIClass4pollEm+0xc0>
    32c0:	bf cf       	rjmp	.-130    	; 0x3240 <_ZN8HCIClass4pollEm+0x3e>
    32c2:	1b 82       	std	Y+3, r1	; 0x03
    32c4:	1a 82       	std	Y+2, r1	; 0x02
    32c6:	a7 01       	movw	r20, r14
    32c8:	ce 01       	movw	r24, r28
    32ca:	15 df       	rcall	.-470    	; 0x30f6 <_ZN8HCIClass17handleEventPacketEhPh>
    32cc:	b9 cf       	rjmp	.-142    	; 0x3240 <_ZN8HCIClass4pollEm+0x3e>
    32ce:	1b 82       	std	Y+3, r1	; 0x03
    32d0:	1a 82       	std	Y+2, r1	; 0x02
    32d2:	b6 cf       	rjmp	.-148    	; 0x3240 <_ZN8HCIClass4pollEm+0x3e>
    32d4:	df 91       	pop	r29
    32d6:	cf 91       	pop	r28
    32d8:	1f 91       	pop	r17
    32da:	0f 91       	pop	r16
    32dc:	ff 90       	pop	r15
    32de:	ef 90       	pop	r14
    32e0:	08 95       	ret

000032e2 <_ZN8HCIClass4pollEv>:
    32e2:	40 e0       	ldi	r20, 0x00	; 0
    32e4:	50 e0       	ldi	r21, 0x00	; 0
    32e6:	ba 01       	movw	r22, r20
    32e8:	8c cf       	rjmp	.-232    	; 0x3202 <_ZN8HCIClass4pollEm>
    32ea:	08 95       	ret

000032ec <_ZN8HCIClass13sendAclPacketEjhhPv>:
    32ec:	3f 92       	push	r3
    32ee:	4f 92       	push	r4
    32f0:	5f 92       	push	r5
    32f2:	6f 92       	push	r6
    32f4:	7f 92       	push	r7
    32f6:	8f 92       	push	r8
    32f8:	9f 92       	push	r9
    32fa:	af 92       	push	r10
    32fc:	bf 92       	push	r11
    32fe:	cf 92       	push	r12
    3300:	df 92       	push	r13
    3302:	ef 92       	push	r14
    3304:	ff 92       	push	r15
    3306:	0f 93       	push	r16
    3308:	1f 93       	push	r17
    330a:	cf 93       	push	r28
    330c:	df 93       	push	r29
    330e:	cd b7       	in	r28, 0x3d	; 61
    3310:	de b7       	in	r29, 0x3e	; 62
    3312:	7c 01       	movw	r14, r24
    3314:	3b 01       	movw	r6, r22
    3316:	44 2e       	mov	r4, r20
    3318:	52 2e       	mov	r5, r18
    331a:	8d b6       	in	r8, 0x3d	; 61
    331c:	9e b6       	in	r9, 0x3e	; 62
    331e:	fc 01       	movw	r30, r24
    3320:	e2 5f       	subi	r30, 0xF2	; 242
    3322:	fe 4f       	sbci	r31, 0xFE	; 254
    3324:	30 80       	ld	r3, Z
    3326:	31 97       	sbiw	r30, 0x01	; 1
    3328:	80 81       	ld	r24, Z
    332a:	38 16       	cp	r3, r24
    332c:	70 f0       	brcs	.+28     	; 0x334a <_ZN8HCIClass13sendAclPacketEjhhPv+0x5e>
    332e:	57 01       	movw	r10, r14
    3330:	82 ef       	ldi	r24, 0xF2	; 242
    3332:	a8 1a       	sub	r10, r24
    3334:	8e ef       	ldi	r24, 0xFE	; 254
    3336:	b8 0a       	sbc	r11, r24
    3338:	6f 01       	movw	r12, r30
    333a:	c7 01       	movw	r24, r14
    333c:	d2 df       	rcall	.-92     	; 0x32e2 <_ZN8HCIClass4pollEv>
    333e:	d5 01       	movw	r26, r10
    3340:	3c 90       	ld	r3, X
    3342:	f6 01       	movw	r30, r12
    3344:	80 81       	ld	r24, Z
    3346:	38 16       	cp	r3, r24
    3348:	c0 f7       	brcc	.-16     	; 0x333a <_ZN8HCIClass13sendAclPacketEjhhPv+0x4e>
    334a:	45 2d       	mov	r20, r5
    334c:	50 e0       	ldi	r21, 0x00	; 0
    334e:	5a 01       	movw	r10, r20
    3350:	f9 e0       	ldi	r31, 0x09	; 9
    3352:	af 0e       	add	r10, r31
    3354:	b1 1c       	adc	r11, r1
    3356:	8d b7       	in	r24, 0x3d	; 61
    3358:	9e b7       	in	r25, 0x3e	; 62
    335a:	8a 19       	sub	r24, r10
    335c:	9b 09       	sbc	r25, r11
    335e:	0f b6       	in	r0, 0x3f	; 63
    3360:	f8 94       	cli
    3362:	9e bf       	out	0x3e, r25	; 62
    3364:	0f be       	out	0x3f, r0	; 63
    3366:	8d bf       	out	0x3d, r24	; 61
    3368:	ad b7       	in	r26, 0x3d	; 61
    336a:	be b7       	in	r27, 0x3e	; 62
    336c:	11 96       	adiw	r26, 0x01	; 1
    336e:	6d 01       	movw	r12, r26
    3370:	82 e0       	ldi	r24, 0x02	; 2
    3372:	ed b7       	in	r30, 0x3d	; 61
    3374:	fe b7       	in	r31, 0x3e	; 62
    3376:	81 83       	std	Z+1, r24	; 0x01
    3378:	12 96       	adiw	r26, 0x02	; 2
    337a:	7c 92       	st	X, r7
    337c:	6e 92       	st	-X, r6
    337e:	11 97       	sbiw	r26, 0x01	; 1
    3380:	84 e0       	ldi	r24, 0x04	; 4
    3382:	85 0d       	add	r24, r5
    3384:	90 e0       	ldi	r25, 0x00	; 0
    3386:	14 96       	adiw	r26, 0x04	; 4
    3388:	9c 93       	st	X, r25
    338a:	8e 93       	st	-X, r24
    338c:	13 97       	sbiw	r26, 0x03	; 3
    338e:	16 96       	adiw	r26, 0x06	; 6
    3390:	5c 93       	st	X, r21
    3392:	4e 93       	st	-X, r20
    3394:	15 97       	sbiw	r26, 0x05	; 5
    3396:	51 2c       	mov	r5, r1
    3398:	18 96       	adiw	r26, 0x08	; 8
    339a:	5c 92       	st	X, r5
    339c:	4e 92       	st	-X, r4
    339e:	17 97       	sbiw	r26, 0x07	; 7
    33a0:	8d b7       	in	r24, 0x3d	; 61
    33a2:	9e b7       	in	r25, 0x3e	; 62
    33a4:	0a 96       	adiw	r24, 0x0a	; 10
    33a6:	b8 01       	movw	r22, r16
    33a8:	0e 94 a1 29 	call	0x5342	; 0x5342 <memcpy>
    33ac:	f7 01       	movw	r30, r14
    33ae:	e2 5f       	subi	r30, 0xF2	; 242
    33b0:	fe 4f       	sbci	r31, 0xFE	; 254
    33b2:	33 94       	inc	r3
    33b4:	30 82       	st	Z, r3
    33b6:	80 91 06 02 	lds	r24, 0x0206	; 0x800206 <g_hciTransport>
    33ba:	90 91 07 02 	lds	r25, 0x0207	; 0x800207 <g_hciTransport+0x1>
    33be:	dc 01       	movw	r26, r24
    33c0:	ed 91       	ld	r30, X+
    33c2:	fc 91       	ld	r31, X
    33c4:	04 84       	ldd	r0, Z+12	; 0x0c
    33c6:	f5 85       	ldd	r31, Z+13	; 0x0d
    33c8:	e0 2d       	mov	r30, r0
    33ca:	a5 01       	movw	r20, r10
    33cc:	b6 01       	movw	r22, r12
    33ce:	09 95       	icall
    33d0:	80 e0       	ldi	r24, 0x00	; 0
    33d2:	90 e0       	ldi	r25, 0x00	; 0
    33d4:	0f b6       	in	r0, 0x3f	; 63
    33d6:	f8 94       	cli
    33d8:	9e be       	out	0x3e, r9	; 62
    33da:	0f be       	out	0x3f, r0	; 63
    33dc:	8d be       	out	0x3d, r8	; 61
    33de:	df 91       	pop	r29
    33e0:	cf 91       	pop	r28
    33e2:	1f 91       	pop	r17
    33e4:	0f 91       	pop	r16
    33e6:	ff 90       	pop	r15
    33e8:	ef 90       	pop	r14
    33ea:	df 90       	pop	r13
    33ec:	cf 90       	pop	r12
    33ee:	bf 90       	pop	r11
    33f0:	af 90       	pop	r10
    33f2:	9f 90       	pop	r9
    33f4:	8f 90       	pop	r8
    33f6:	7f 90       	pop	r7
    33f8:	6f 90       	pop	r6
    33fa:	5f 90       	pop	r5
    33fc:	4f 90       	pop	r4
    33fe:	3f 90       	pop	r3
    3400:	08 95       	ret

00003402 <_ZN8HCIClass19handleAclDataPacketEhPh>:
    3402:	0f 93       	push	r16
    3404:	1f 93       	push	r17
    3406:	cf 93       	push	r28
    3408:	df 93       	push	r29
    340a:	cd b7       	in	r28, 0x3d	; 61
    340c:	de b7       	in	r29, 0x3e	; 62
    340e:	2a 97       	sbiw	r28, 0x0a	; 10
    3410:	0f b6       	in	r0, 0x3f	; 63
    3412:	f8 94       	cli
    3414:	de bf       	out	0x3e, r29	; 62
    3416:	0f be       	out	0x3f, r0	; 63
    3418:	cd bf       	out	0x3d, r28	; 61
    341a:	fa 01       	movw	r30, r20
    341c:	66 81       	ldd	r22, Z+6	; 0x06
    341e:	77 81       	ldd	r23, Z+7	; 0x07
    3420:	64 30       	cpi	r22, 0x04	; 4
    3422:	71 05       	cpc	r23, r1
    3424:	59 f4       	brne	.+22     	; 0x343c <_ZN8HCIClass19handleAclDataPacketEhPh+0x3a>
    3426:	9c 01       	movw	r18, r24
    3428:	23 5f       	subi	r18, 0xF3	; 243
    342a:	3f 4f       	sbci	r19, 0xFF	; 255
    342c:	60 81       	ld	r22, Z
    342e:	71 81       	ldd	r23, Z+1	; 0x01
    3430:	7f 70       	andi	r23, 0x0F	; 15
    3432:	44 81       	ldd	r20, Z+4	; 0x04
    3434:	8a e5       	ldi	r24, 0x5A	; 90
    3436:	92 e0       	ldi	r25, 0x02	; 2
    3438:	06 db       	rcall	.-2548   	; 0x2a46 <_ZN8ATTClass10handleDataEjhPh>
    343a:	28 c0       	rjmp	.+80     	; 0x348c <_ZN8HCIClass19handleAclDataPacketEhPh+0x8a>
    343c:	65 30       	cpi	r22, 0x05	; 5
    343e:	71 05       	cpc	r23, r1
    3440:	59 f4       	brne	.+22     	; 0x3458 <_ZN8HCIClass19handleAclDataPacketEhPh+0x56>
    3442:	9c 01       	movw	r18, r24
    3444:	23 5f       	subi	r18, 0xF3	; 243
    3446:	3f 4f       	sbci	r19, 0xFF	; 255
    3448:	60 81       	ld	r22, Z
    344a:	71 81       	ldd	r23, Z+1	; 0x01
    344c:	7f 70       	andi	r23, 0x0F	; 15
    344e:	44 81       	ldd	r20, Z+4	; 0x04
    3450:	8e e7       	ldi	r24, 0x7E	; 126
    3452:	94 e0       	ldi	r25, 0x04	; 4
    3454:	2c d3       	rcall	.+1624   	; 0x3aae <_ZN19L2CAPSignalingClass10handleDataEjhPh>
    3456:	1a c0       	rjmp	.+52     	; 0x348c <_ZN8HCIClass19handleAclDataPacketEhPh+0x8a>
    3458:	8e 01       	movw	r16, r28
    345a:	0f 5f       	subi	r16, 0xFF	; 255
    345c:	1f 4f       	sbci	r17, 0xFF	; 255
    345e:	2a e0       	ldi	r18, 0x0A	; 10
    3460:	d8 01       	movw	r26, r16
    3462:	1d 92       	st	X+, r1
    3464:	2a 95       	dec	r18
    3466:	e9 f7       	brne	.-6      	; 0x3462 <_ZN8HCIClass19handleAclDataPacketEhPh+0x60>
    3468:	21 e0       	ldi	r18, 0x01	; 1
    346a:	29 83       	std	Y+1, r18	; 0x01
    346c:	26 e0       	ldi	r18, 0x06	; 6
    346e:	30 e0       	ldi	r19, 0x00	; 0
    3470:	3c 83       	std	Y+4, r19	; 0x04
    3472:	2b 83       	std	Y+3, r18	; 0x03
    3474:	22 e0       	ldi	r18, 0x02	; 2
    3476:	30 e0       	ldi	r19, 0x00	; 0
    3478:	3e 83       	std	Y+6, r19	; 0x06
    347a:	2d 83       	std	Y+5, r18	; 0x05
    347c:	78 87       	std	Y+8, r23	; 0x08
    347e:	6f 83       	std	Y+7, r22	; 0x07
    3480:	60 81       	ld	r22, Z
    3482:	71 81       	ldd	r23, Z+1	; 0x01
    3484:	7f 70       	andi	r23, 0x0F	; 15
    3486:	2a e0       	ldi	r18, 0x0A	; 10
    3488:	45 e0       	ldi	r20, 0x05	; 5
    348a:	30 df       	rcall	.-416    	; 0x32ec <_ZN8HCIClass13sendAclPacketEjhhPv>
    348c:	2a 96       	adiw	r28, 0x0a	; 10
    348e:	0f b6       	in	r0, 0x3f	; 63
    3490:	f8 94       	cli
    3492:	de bf       	out	0x3e, r29	; 62
    3494:	0f be       	out	0x3f, r0	; 63
    3496:	cd bf       	out	0x3d, r28	; 61
    3498:	df 91       	pop	r29
    349a:	cf 91       	pop	r28
    349c:	1f 91       	pop	r17
    349e:	0f 91       	pop	r16
    34a0:	08 95       	ret

000034a2 <_ZN8HCIClass11sendCommandEjhPv>:
    34a2:	4f 92       	push	r4
    34a4:	5f 92       	push	r5
    34a6:	6f 92       	push	r6
    34a8:	7f 92       	push	r7
    34aa:	af 92       	push	r10
    34ac:	bf 92       	push	r11
    34ae:	cf 92       	push	r12
    34b0:	df 92       	push	r13
    34b2:	ef 92       	push	r14
    34b4:	ff 92       	push	r15
    34b6:	0f 93       	push	r16
    34b8:	1f 93       	push	r17
    34ba:	cf 93       	push	r28
    34bc:	df 93       	push	r29
    34be:	cd b7       	in	r28, 0x3d	; 61
    34c0:	de b7       	in	r29, 0x3e	; 62
    34c2:	8c 01       	movw	r16, r24
    34c4:	7b 01       	movw	r14, r22
    34c6:	ad b6       	in	r10, 0x3d	; 61
    34c8:	be b6       	in	r11, 0x3e	; 62
    34ca:	50 e0       	ldi	r21, 0x00	; 0
    34cc:	3a 01       	movw	r6, r20
    34ce:	64 e0       	ldi	r22, 0x04	; 4
    34d0:	66 0e       	add	r6, r22
    34d2:	71 1c       	adc	r7, r1
    34d4:	ad b7       	in	r26, 0x3d	; 61
    34d6:	be b7       	in	r27, 0x3e	; 62
    34d8:	a6 19       	sub	r26, r6
    34da:	b7 09       	sbc	r27, r7
    34dc:	0f b6       	in	r0, 0x3f	; 63
    34de:	f8 94       	cli
    34e0:	be bf       	out	0x3e, r27	; 62
    34e2:	0f be       	out	0x3f, r0	; 63
    34e4:	ad bf       	out	0x3d, r26	; 61
    34e6:	ed b7       	in	r30, 0x3d	; 61
    34e8:	fe b7       	in	r31, 0x3e	; 62
    34ea:	31 96       	adiw	r30, 0x01	; 1
    34ec:	6f 01       	movw	r12, r30
    34ee:	91 e0       	ldi	r25, 0x01	; 1
    34f0:	11 96       	adiw	r26, 0x01	; 1
    34f2:	9c 93       	st	X, r25
    34f4:	f2 82       	std	Z+2, r15	; 0x02
    34f6:	e1 82       	std	Z+1, r14	; 0x01
    34f8:	43 83       	std	Z+3, r20	; 0x03
    34fa:	8d b7       	in	r24, 0x3d	; 61
    34fc:	9e b7       	in	r25, 0x3e	; 62
    34fe:	05 96       	adiw	r24, 0x05	; 5
    3500:	b9 01       	movw	r22, r18
    3502:	0e 94 a1 29 	call	0x5342	; 0x5342 <memcpy>
    3506:	80 91 06 02 	lds	r24, 0x0206	; 0x800206 <g_hciTransport>
    350a:	90 91 07 02 	lds	r25, 0x0207	; 0x800207 <g_hciTransport+0x1>
    350e:	dc 01       	movw	r26, r24
    3510:	ed 91       	ld	r30, X+
    3512:	fc 91       	ld	r31, X
    3514:	04 84       	ldd	r0, Z+12	; 0x0c
    3516:	f5 85       	ldd	r31, Z+13	; 0x0d
    3518:	e0 2d       	mov	r30, r0
    351a:	a3 01       	movw	r20, r6
    351c:	b6 01       	movw	r22, r12
    351e:	09 95       	icall
    3520:	f8 01       	movw	r30, r16
    3522:	ea 5f       	subi	r30, 0xFA	; 250
    3524:	fe 4f       	sbci	r31, 0xFE	; 254
    3526:	8f ef       	ldi	r24, 0xFF	; 255
    3528:	9f ef       	ldi	r25, 0xFF	; 255
    352a:	91 83       	std	Z+1, r25	; 0x01
    352c:	80 83       	st	Z, r24
    352e:	32 96       	adiw	r30, 0x02	; 2
    3530:	91 83       	std	Z+1, r25	; 0x01
    3532:	80 83       	st	Z, r24
    3534:	88 e1       	ldi	r24, 0x18	; 24
    3536:	95 e0       	ldi	r25, 0x05	; 5
    3538:	19 d5       	rcall	.+2610   	; 0x3f6c <_ZN6XTimer8millisecEv>
    353a:	68 01       	movw	r12, r16
    353c:	ba ef       	ldi	r27, 0xFA	; 250
    353e:	cb 1a       	sub	r12, r27
    3540:	be ef       	ldi	r27, 0xFE	; 254
    3542:	db 0a       	sbc	r13, r27
    3544:	2b 01       	movw	r4, r22
    3546:	3c 01       	movw	r6, r24
    3548:	e8 ee       	ldi	r30, 0xE8	; 232
    354a:	4e 0e       	add	r4, r30
    354c:	e3 e0       	ldi	r30, 0x03	; 3
    354e:	5e 1e       	adc	r5, r30
    3550:	61 1c       	adc	r6, r1
    3552:	71 1c       	adc	r7, r1
    3554:	d6 01       	movw	r26, r12
    3556:	8d 91       	ld	r24, X+
    3558:	9c 91       	ld	r25, X
    355a:	e8 16       	cp	r14, r24
    355c:	f9 06       	cpc	r15, r25
    355e:	59 f0       	breq	.+22     	; 0x3576 <_ZN8HCIClass11sendCommandEjhPv+0xd4>
    3560:	88 e1       	ldi	r24, 0x18	; 24
    3562:	95 e0       	ldi	r25, 0x05	; 5
    3564:	03 d5       	rcall	.+2566   	; 0x3f6c <_ZN6XTimer8millisecEv>
    3566:	64 15       	cp	r22, r4
    3568:	75 05       	cpc	r23, r5
    356a:	86 05       	cpc	r24, r6
    356c:	97 05       	cpc	r25, r7
    356e:	18 f4       	brcc	.+6      	; 0x3576 <_ZN8HCIClass11sendCommandEjhPv+0xd4>
    3570:	c8 01       	movw	r24, r16
    3572:	b7 de       	rcall	.-658    	; 0x32e2 <_ZN8HCIClass4pollEv>
    3574:	ef cf       	rjmp	.-34     	; 0x3554 <_ZN8HCIClass11sendCommandEjhPv+0xb2>
    3576:	f8 01       	movw	r30, r16
    3578:	e8 5f       	subi	r30, 0xF8	; 248
    357a:	fe 4f       	sbci	r31, 0xFE	; 254
    357c:	80 81       	ld	r24, Z
    357e:	91 81       	ldd	r25, Z+1	; 0x01
    3580:	0f b6       	in	r0, 0x3f	; 63
    3582:	f8 94       	cli
    3584:	be be       	out	0x3e, r11	; 62
    3586:	0f be       	out	0x3f, r0	; 63
    3588:	ad be       	out	0x3d, r10	; 61
    358a:	df 91       	pop	r29
    358c:	cf 91       	pop	r28
    358e:	1f 91       	pop	r17
    3590:	0f 91       	pop	r16
    3592:	ff 90       	pop	r15
    3594:	ef 90       	pop	r14
    3596:	df 90       	pop	r13
    3598:	cf 90       	pop	r12
    359a:	bf 90       	pop	r11
    359c:	af 90       	pop	r10
    359e:	7f 90       	pop	r7
    35a0:	6f 90       	pop	r6
    35a2:	5f 90       	pop	r5
    35a4:	4f 90       	pop	r4
    35a6:	08 95       	ret

000035a8 <_ZN8HCIClass10readBDAddrEPh>:
    35a8:	0f 93       	push	r16
    35aa:	1f 93       	push	r17
    35ac:	cf 93       	push	r28
    35ae:	df 93       	push	r29
    35b0:	ec 01       	movw	r28, r24
    35b2:	8b 01       	movw	r16, r22
    35b4:	20 e0       	ldi	r18, 0x00	; 0
    35b6:	30 e0       	ldi	r19, 0x00	; 0
    35b8:	40 e0       	ldi	r20, 0x00	; 0
    35ba:	69 e0       	ldi	r22, 0x09	; 9
    35bc:	70 e1       	ldi	r23, 0x10	; 16
    35be:	71 df       	rcall	.-286    	; 0x34a2 <_ZN8HCIClass11sendCommandEjhPv>
    35c0:	00 97       	sbiw	r24, 0x00	; 0
    35c2:	51 f4       	brne	.+20     	; 0x35d8 <_ZN8HCIClass10readBDAddrEPh+0x30>
    35c4:	c5 5f       	subi	r28, 0xF5	; 245
    35c6:	de 4f       	sbci	r29, 0xFE	; 254
    35c8:	e8 81       	ld	r30, Y
    35ca:	f9 81       	ldd	r31, Y+1	; 0x01
    35cc:	26 e0       	ldi	r18, 0x06	; 6
    35ce:	d8 01       	movw	r26, r16
    35d0:	01 90       	ld	r0, Z+
    35d2:	0d 92       	st	X+, r0
    35d4:	2a 95       	dec	r18
    35d6:	e1 f7       	brne	.-8      	; 0x35d0 <_ZN8HCIClass10readBDAddrEPh+0x28>
    35d8:	df 91       	pop	r29
    35da:	cf 91       	pop	r28
    35dc:	1f 91       	pop	r17
    35de:	0f 91       	pop	r16
    35e0:	08 95       	ret

000035e2 <_ZN8HCIClass8readRssiEj>:
    35e2:	0f 93       	push	r16
    35e4:	1f 93       	push	r17
    35e6:	cf 93       	push	r28
    35e8:	df 93       	push	r29
    35ea:	00 d0       	rcall	.+0      	; 0x35ec <_ZN8HCIClass8readRssiEj+0xa>
    35ec:	cd b7       	in	r28, 0x3d	; 61
    35ee:	de b7       	in	r29, 0x3e	; 62
    35f0:	8c 01       	movw	r16, r24
    35f2:	7a 83       	std	Y+2, r23	; 0x02
    35f4:	69 83       	std	Y+1, r22	; 0x01
    35f6:	9e 01       	movw	r18, r28
    35f8:	2f 5f       	subi	r18, 0xFF	; 255
    35fa:	3f 4f       	sbci	r19, 0xFF	; 255
    35fc:	42 e0       	ldi	r20, 0x02	; 2
    35fe:	65 e0       	ldi	r22, 0x05	; 5
    3600:	74 e1       	ldi	r23, 0x14	; 20
    3602:	4f df       	rcall	.-354    	; 0x34a2 <_ZN8HCIClass11sendCommandEjhPv>
    3604:	89 2b       	or	r24, r25
    3606:	91 f4       	brne	.+36     	; 0x362c <_ZN8HCIClass8readRssiEj+0x4a>
    3608:	f8 01       	movw	r30, r16
    360a:	e5 5f       	subi	r30, 0xF5	; 245
    360c:	fe 4f       	sbci	r31, 0xFE	; 254
    360e:	01 90       	ld	r0, Z+
    3610:	f0 81       	ld	r31, Z
    3612:	e0 2d       	mov	r30, r0
    3614:	20 81       	ld	r18, Z
    3616:	31 81       	ldd	r19, Z+1	; 0x01
    3618:	89 81       	ldd	r24, Y+1	; 0x01
    361a:	9a 81       	ldd	r25, Y+2	; 0x02
    361c:	28 17       	cp	r18, r24
    361e:	39 07       	cpc	r19, r25
    3620:	41 f4       	brne	.+16     	; 0x3632 <_ZN8HCIClass8readRssiEj+0x50>
    3622:	82 81       	ldd	r24, Z+2	; 0x02
    3624:	08 2e       	mov	r0, r24
    3626:	00 0c       	add	r0, r0
    3628:	99 0b       	sbc	r25, r25
    362a:	05 c0       	rjmp	.+10     	; 0x3636 <_ZN8HCIClass8readRssiEj+0x54>
    362c:	8f e7       	ldi	r24, 0x7F	; 127
    362e:	90 e0       	ldi	r25, 0x00	; 0
    3630:	02 c0       	rjmp	.+4      	; 0x3636 <_ZN8HCIClass8readRssiEj+0x54>
    3632:	8f e7       	ldi	r24, 0x7F	; 127
    3634:	90 e0       	ldi	r25, 0x00	; 0
    3636:	0f 90       	pop	r0
    3638:	0f 90       	pop	r0
    363a:	df 91       	pop	r29
    363c:	cf 91       	pop	r28
    363e:	1f 91       	pop	r17
    3640:	0f 91       	pop	r16
    3642:	08 95       	ret

00003644 <_ZN8HCIClass22setLeAdvertisingParamsEjjhhhPhhh>:
    3644:	8f 92       	push	r8
    3646:	af 92       	push	r10
    3648:	cf 92       	push	r12
    364a:	df 92       	push	r13
    364c:	ef 92       	push	r14
    364e:	0f 93       	push	r16
    3650:	cf 93       	push	r28
    3652:	df 93       	push	r29
    3654:	cd b7       	in	r28, 0x3d	; 61
    3656:	de b7       	in	r29, 0x3e	; 62
    3658:	2f 97       	sbiw	r28, 0x0f	; 15
    365a:	0f b6       	in	r0, 0x3f	; 63
    365c:	f8 94       	cli
    365e:	de bf       	out	0x3e, r29	; 62
    3660:	0f be       	out	0x3f, r0	; 63
    3662:	cd bf       	out	0x3d, r28	; 61
    3664:	7a 83       	std	Y+2, r23	; 0x02
    3666:	69 83       	std	Y+1, r22	; 0x01
    3668:	5c 83       	std	Y+4, r21	; 0x04
    366a:	4b 83       	std	Y+3, r20	; 0x03
    366c:	2d 83       	std	Y+5, r18	; 0x05
    366e:	0e 83       	std	Y+6, r16	; 0x06
    3670:	ef 82       	std	Y+7, r14	; 0x07
    3672:	26 e0       	ldi	r18, 0x06	; 6
    3674:	f6 01       	movw	r30, r12
    3676:	de 01       	movw	r26, r28
    3678:	18 96       	adiw	r26, 0x08	; 8
    367a:	01 90       	ld	r0, Z+
    367c:	0d 92       	st	X+, r0
    367e:	2a 95       	dec	r18
    3680:	e1 f7       	brne	.-8      	; 0x367a <_ZN8HCIClass22setLeAdvertisingParamsEjjhhhPhhh+0x36>
    3682:	ae 86       	std	Y+14, r10	; 0x0e
    3684:	8f 86       	std	Y+15, r8	; 0x0f
    3686:	9e 01       	movw	r18, r28
    3688:	2f 5f       	subi	r18, 0xFF	; 255
    368a:	3f 4f       	sbci	r19, 0xFF	; 255
    368c:	4f e0       	ldi	r20, 0x0F	; 15
    368e:	66 e0       	ldi	r22, 0x06	; 6
    3690:	70 e2       	ldi	r23, 0x20	; 32
    3692:	07 df       	rcall	.-498    	; 0x34a2 <_ZN8HCIClass11sendCommandEjhPv>
    3694:	2f 96       	adiw	r28, 0x0f	; 15
    3696:	0f b6       	in	r0, 0x3f	; 63
    3698:	f8 94       	cli
    369a:	de bf       	out	0x3e, r29	; 62
    369c:	0f be       	out	0x3f, r0	; 63
    369e:	cd bf       	out	0x3d, r28	; 61
    36a0:	df 91       	pop	r29
    36a2:	cf 91       	pop	r28
    36a4:	0f 91       	pop	r16
    36a6:	ef 90       	pop	r14
    36a8:	df 90       	pop	r13
    36aa:	cf 90       	pop	r12
    36ac:	af 90       	pop	r10
    36ae:	8f 90       	pop	r8
    36b0:	08 95       	ret

000036b2 <_ZN8HCIClass20setLeAdvertisingDataEhPh>:
    36b2:	ef 92       	push	r14
    36b4:	ff 92       	push	r15
    36b6:	0f 93       	push	r16
    36b8:	1f 93       	push	r17
    36ba:	cf 93       	push	r28
    36bc:	df 93       	push	r29
    36be:	cd b7       	in	r28, 0x3d	; 61
    36c0:	de b7       	in	r29, 0x3e	; 62
    36c2:	a0 97       	sbiw	r28, 0x20	; 32
    36c4:	0f b6       	in	r0, 0x3f	; 63
    36c6:	f8 94       	cli
    36c8:	de bf       	out	0x3e, r29	; 62
    36ca:	0f be       	out	0x3f, r0	; 63
    36cc:	cd bf       	out	0x3d, r28	; 61
    36ce:	7c 01       	movw	r14, r24
    36d0:	ca 01       	movw	r24, r20
    36d2:	8e 01       	movw	r16, r28
    36d4:	0f 5f       	subi	r16, 0xFF	; 255
    36d6:	1f 4f       	sbci	r17, 0xFF	; 255
    36d8:	20 e2       	ldi	r18, 0x20	; 32
    36da:	f8 01       	movw	r30, r16
    36dc:	11 92       	st	Z+, r1
    36de:	2a 95       	dec	r18
    36e0:	e9 f7       	brne	.-6      	; 0x36dc <_ZN8HCIClass20setLeAdvertisingDataEhPh+0x2a>
    36e2:	69 83       	std	Y+1, r22	; 0x01
    36e4:	46 2f       	mov	r20, r22
    36e6:	50 e0       	ldi	r21, 0x00	; 0
    36e8:	bc 01       	movw	r22, r24
    36ea:	ce 01       	movw	r24, r28
    36ec:	02 96       	adiw	r24, 0x02	; 2
    36ee:	0e 94 a1 29 	call	0x5342	; 0x5342 <memcpy>
    36f2:	98 01       	movw	r18, r16
    36f4:	40 e2       	ldi	r20, 0x20	; 32
    36f6:	68 e0       	ldi	r22, 0x08	; 8
    36f8:	70 e2       	ldi	r23, 0x20	; 32
    36fa:	c7 01       	movw	r24, r14
    36fc:	d2 de       	rcall	.-604    	; 0x34a2 <_ZN8HCIClass11sendCommandEjhPv>
    36fe:	a0 96       	adiw	r28, 0x20	; 32
    3700:	0f b6       	in	r0, 0x3f	; 63
    3702:	f8 94       	cli
    3704:	de bf       	out	0x3e, r29	; 62
    3706:	0f be       	out	0x3f, r0	; 63
    3708:	cd bf       	out	0x3d, r28	; 61
    370a:	df 91       	pop	r29
    370c:	cf 91       	pop	r28
    370e:	1f 91       	pop	r17
    3710:	0f 91       	pop	r16
    3712:	ff 90       	pop	r15
    3714:	ef 90       	pop	r14
    3716:	08 95       	ret

00003718 <_ZN8HCIClass21setLeScanResponseDataEhPh>:
    3718:	ef 92       	push	r14
    371a:	ff 92       	push	r15
    371c:	0f 93       	push	r16
    371e:	1f 93       	push	r17
    3720:	cf 93       	push	r28
    3722:	df 93       	push	r29
    3724:	cd b7       	in	r28, 0x3d	; 61
    3726:	de b7       	in	r29, 0x3e	; 62
    3728:	a0 97       	sbiw	r28, 0x20	; 32
    372a:	0f b6       	in	r0, 0x3f	; 63
    372c:	f8 94       	cli
    372e:	de bf       	out	0x3e, r29	; 62
    3730:	0f be       	out	0x3f, r0	; 63
    3732:	cd bf       	out	0x3d, r28	; 61
    3734:	7c 01       	movw	r14, r24
    3736:	ca 01       	movw	r24, r20
    3738:	8e 01       	movw	r16, r28
    373a:	0f 5f       	subi	r16, 0xFF	; 255
    373c:	1f 4f       	sbci	r17, 0xFF	; 255
    373e:	20 e2       	ldi	r18, 0x20	; 32
    3740:	f8 01       	movw	r30, r16
    3742:	11 92       	st	Z+, r1
    3744:	2a 95       	dec	r18
    3746:	e9 f7       	brne	.-6      	; 0x3742 <_ZN8HCIClass21setLeScanResponseDataEhPh+0x2a>
    3748:	69 83       	std	Y+1, r22	; 0x01
    374a:	46 2f       	mov	r20, r22
    374c:	50 e0       	ldi	r21, 0x00	; 0
    374e:	bc 01       	movw	r22, r24
    3750:	ce 01       	movw	r24, r28
    3752:	02 96       	adiw	r24, 0x02	; 2
    3754:	0e 94 a1 29 	call	0x5342	; 0x5342 <memcpy>
    3758:	98 01       	movw	r18, r16
    375a:	40 e2       	ldi	r20, 0x20	; 32
    375c:	69 e0       	ldi	r22, 0x09	; 9
    375e:	70 e2       	ldi	r23, 0x20	; 32
    3760:	c7 01       	movw	r24, r14
    3762:	9f de       	rcall	.-706    	; 0x34a2 <_ZN8HCIClass11sendCommandEjhPv>
    3764:	a0 96       	adiw	r28, 0x20	; 32
    3766:	0f b6       	in	r0, 0x3f	; 63
    3768:	f8 94       	cli
    376a:	de bf       	out	0x3e, r29	; 62
    376c:	0f be       	out	0x3f, r0	; 63
    376e:	cd bf       	out	0x3d, r28	; 61
    3770:	df 91       	pop	r29
    3772:	cf 91       	pop	r28
    3774:	1f 91       	pop	r17
    3776:	0f 91       	pop	r16
    3778:	ff 90       	pop	r15
    377a:	ef 90       	pop	r14
    377c:	08 95       	ret

0000377e <_ZN8HCIClass20setLeAdvertiseEnableEh>:
    377e:	cf 93       	push	r28
    3780:	df 93       	push	r29
    3782:	1f 92       	push	r1
    3784:	cd b7       	in	r28, 0x3d	; 61
    3786:	de b7       	in	r29, 0x3e	; 62
    3788:	69 83       	std	Y+1, r22	; 0x01
    378a:	9e 01       	movw	r18, r28
    378c:	2f 5f       	subi	r18, 0xFF	; 255
    378e:	3f 4f       	sbci	r19, 0xFF	; 255
    3790:	41 e0       	ldi	r20, 0x01	; 1
    3792:	6a e0       	ldi	r22, 0x0A	; 10
    3794:	70 e2       	ldi	r23, 0x20	; 32
    3796:	85 de       	rcall	.-758    	; 0x34a2 <_ZN8HCIClass11sendCommandEjhPv>
    3798:	0f 90       	pop	r0
    379a:	df 91       	pop	r29
    379c:	cf 91       	pop	r28
    379e:	08 95       	ret

000037a0 <_ZN8HCIClass18updateLeConnectionEjjjjj>:
    37a0:	ef 92       	push	r14
    37a2:	ff 92       	push	r15
    37a4:	0f 93       	push	r16
    37a6:	1f 93       	push	r17
    37a8:	cf 93       	push	r28
    37aa:	df 93       	push	r29
    37ac:	cd b7       	in	r28, 0x3d	; 61
    37ae:	de b7       	in	r29, 0x3e	; 62
    37b0:	2e 97       	sbiw	r28, 0x0e	; 14
    37b2:	0f b6       	in	r0, 0x3f	; 63
    37b4:	f8 94       	cli
    37b6:	de bf       	out	0x3e, r29	; 62
    37b8:	0f be       	out	0x3f, r0	; 63
    37ba:	cd bf       	out	0x3d, r28	; 61
    37bc:	7a 83       	std	Y+2, r23	; 0x02
    37be:	69 83       	std	Y+1, r22	; 0x01
    37c0:	5c 83       	std	Y+4, r21	; 0x04
    37c2:	4b 83       	std	Y+3, r20	; 0x03
    37c4:	3e 83       	std	Y+6, r19	; 0x06
    37c6:	2d 83       	std	Y+5, r18	; 0x05
    37c8:	18 87       	std	Y+8, r17	; 0x08
    37ca:	0f 83       	std	Y+7, r16	; 0x07
    37cc:	fa 86       	std	Y+10, r15	; 0x0a
    37ce:	e9 86       	std	Y+9, r14	; 0x09
    37d0:	24 e0       	ldi	r18, 0x04	; 4
    37d2:	30 e0       	ldi	r19, 0x00	; 0
    37d4:	3c 87       	std	Y+12, r19	; 0x0c
    37d6:	2b 87       	std	Y+11, r18	; 0x0b
    37d8:	26 e0       	ldi	r18, 0x06	; 6
    37da:	30 e0       	ldi	r19, 0x00	; 0
    37dc:	3e 87       	std	Y+14, r19	; 0x0e
    37de:	2d 87       	std	Y+13, r18	; 0x0d
    37e0:	9e 01       	movw	r18, r28
    37e2:	2f 5f       	subi	r18, 0xFF	; 255
    37e4:	3f 4f       	sbci	r19, 0xFF	; 255
    37e6:	4e e0       	ldi	r20, 0x0E	; 14
    37e8:	63 e1       	ldi	r22, 0x13	; 19
    37ea:	70 e2       	ldi	r23, 0x20	; 32
    37ec:	5a de       	rcall	.-844    	; 0x34a2 <_ZN8HCIClass11sendCommandEjhPv>
    37ee:	2e 96       	adiw	r28, 0x0e	; 14
    37f0:	0f b6       	in	r0, 0x3f	; 63
    37f2:	f8 94       	cli
    37f4:	de bf       	out	0x3e, r29	; 62
    37f6:	0f be       	out	0x3f, r0	; 63
    37f8:	cd bf       	out	0x3d, r28	; 61
    37fa:	df 91       	pop	r29
    37fc:	cf 91       	pop	r28
    37fe:	1f 91       	pop	r17
    3800:	0f 91       	pop	r16
    3802:	ff 90       	pop	r15
    3804:	ef 90       	pop	r14
    3806:	08 95       	ret

00003808 <_ZN8HCIClass10disconnectEj>:
    3808:	cf 93       	push	r28
    380a:	df 93       	push	r29
    380c:	00 d0       	rcall	.+0      	; 0x380e <_ZN8HCIClass10disconnectEj+0x6>
    380e:	1f 92       	push	r1
    3810:	cd b7       	in	r28, 0x3d	; 61
    3812:	de b7       	in	r29, 0x3e	; 62
    3814:	23 e1       	ldi	r18, 0x13	; 19
    3816:	2b 83       	std	Y+3, r18	; 0x03
    3818:	7a 83       	std	Y+2, r23	; 0x02
    381a:	69 83       	std	Y+1, r22	; 0x01
    381c:	9e 01       	movw	r18, r28
    381e:	2f 5f       	subi	r18, 0xFF	; 255
    3820:	3f 4f       	sbci	r19, 0xFF	; 255
    3822:	43 e0       	ldi	r20, 0x03	; 3
    3824:	66 e0       	ldi	r22, 0x06	; 6
    3826:	74 e0       	ldi	r23, 0x04	; 4
    3828:	3c de       	rcall	.-904    	; 0x34a2 <_ZN8HCIClass11sendCommandEjhPv>
    382a:	0f 90       	pop	r0
    382c:	0f 90       	pop	r0
    382e:	0f 90       	pop	r0
    3830:	df 91       	pop	r29
    3832:	cf 91       	pop	r28
    3834:	08 95       	ret

00003836 <_GLOBAL__sub_I__ZN8HCIClassC2Ev>:
#include "protocol/HCITransport.h"
#include "protocol/L2CAPSignaling.h"
#include "protocol/ATT.h"
#include "protocol/HCI.h"

HCIClass::HCIClass() : m_recvIndex(0), m_pendingPacket(0)
    3836:	e7 e6       	ldi	r30, 0x67	; 103
    3838:	f3 e0       	ldi	r31, 0x03	; 3
    383a:	8c ee       	ldi	r24, 0xEC	; 236
    383c:	91 e0       	ldi	r25, 0x01	; 1
    383e:	91 83       	std	Z+1, r25	; 0x01
    3840:	80 83       	st	Z, r24
    3842:	13 82       	std	Z+3, r1	; 0x03
    3844:	12 82       	std	Z+2, r1	; 0x02
    3846:	10 92 75 04 	sts	0x0475, r1	; 0x800475 <g_hci+0x10e>
    384a:	08 95       	ret

0000384c <_ZN21HCIUartTransportClassD1Ev>:

#include "system/XUart.h"
#include "system/XTimer.h"
#include "protocol/HCIUartTransport.h"

HCIUartTransportClass::HCIUartTransportClass(XUart& uart, unsigned long baudrate) : m_uart(&uart), m_baudrate(baudrate)
    384c:	08 95       	ret

0000384e <_ZN21HCIUartTransportClass5beginEv>:
    384e:	fc 01       	movw	r30, r24
    3850:	44 81       	ldd	r20, Z+4	; 0x04
    3852:	55 81       	ldd	r21, Z+5	; 0x05
    3854:	66 81       	ldd	r22, Z+6	; 0x06
    3856:	77 81       	ldd	r23, Z+7	; 0x07
    3858:	82 81       	ldd	r24, Z+2	; 0x02
    385a:	93 81       	ldd	r25, Z+3	; 0x03
    385c:	f5 d3       	rcall	.+2026   	; 0x4048 <_ZN5XUart5beginEm>
    385e:	81 e0       	ldi	r24, 0x01	; 1
    3860:	90 e0       	ldi	r25, 0x00	; 0
    3862:	08 95       	ret

00003864 <_ZN21HCIUartTransportClass3endEv>:
    3864:	fc 01       	movw	r30, r24
    3866:	82 81       	ldd	r24, Z+2	; 0x02
    3868:	93 81       	ldd	r25, Z+3	; 0x03
    386a:	9a c5       	rjmp	.+2868   	; 0x43a0 <_ZN5XUart3endEv>
    386c:	08 95       	ret

0000386e <_ZN21HCIUartTransportClass4waitEm>:
    386e:	8f 92       	push	r8
    3870:	9f 92       	push	r9
    3872:	af 92       	push	r10
    3874:	bf 92       	push	r11
    3876:	cf 92       	push	r12
    3878:	df 92       	push	r13
    387a:	ef 92       	push	r14
    387c:	ff 92       	push	r15
    387e:	cf 93       	push	r28
    3880:	df 93       	push	r29
    3882:	ec 01       	movw	r28, r24
    3884:	4a 01       	movw	r8, r20
    3886:	5b 01       	movw	r10, r22
    3888:	88 e1       	ldi	r24, 0x18	; 24
    388a:	95 e0       	ldi	r25, 0x05	; 5
    388c:	6f d3       	rcall	.+1758   	; 0x3f6c <_ZN6XTimer8millisecEv>
    388e:	6b 01       	movw	r12, r22
    3890:	7c 01       	movw	r14, r24
    3892:	88 e1       	ldi	r24, 0x18	; 24
    3894:	95 e0       	ldi	r25, 0x05	; 5
    3896:	6a d3       	rcall	.+1748   	; 0x3f6c <_ZN6XTimer8millisecEv>
    3898:	dc 01       	movw	r26, r24
    389a:	cb 01       	movw	r24, r22
    389c:	8c 19       	sub	r24, r12
    389e:	9d 09       	sbc	r25, r13
    38a0:	ae 09       	sbc	r26, r14
    38a2:	bf 09       	sbc	r27, r15
    38a4:	88 15       	cp	r24, r8
    38a6:	99 05       	cpc	r25, r9
    38a8:	aa 05       	cpc	r26, r10
    38aa:	bb 05       	cpc	r27, r11
    38ac:	48 f4       	brcc	.+18     	; 0x38c0 <_ZN21HCIUartTransportClass4waitEm+0x52>
    38ae:	e8 81       	ld	r30, Y
    38b0:	f9 81       	ldd	r31, Y+1	; 0x01
    38b2:	06 80       	ldd	r0, Z+6	; 0x06
    38b4:	f7 81       	ldd	r31, Z+7	; 0x07
    38b6:	e0 2d       	mov	r30, r0
    38b8:	ce 01       	movw	r24, r28
    38ba:	09 95       	icall
    38bc:	89 2b       	or	r24, r25
    38be:	49 f3       	breq	.-46     	; 0x3892 <_ZN21HCIUartTransportClass4waitEm+0x24>
    38c0:	df 91       	pop	r29
    38c2:	cf 91       	pop	r28
    38c4:	ff 90       	pop	r15
    38c6:	ef 90       	pop	r14
    38c8:	df 90       	pop	r13
    38ca:	cf 90       	pop	r12
    38cc:	bf 90       	pop	r11
    38ce:	af 90       	pop	r10
    38d0:	9f 90       	pop	r9
    38d2:	8f 90       	pop	r8
    38d4:	08 95       	ret

000038d6 <_ZN21HCIUartTransportClass9availableEv>:
    38d6:	fc 01       	movw	r30, r24
    38d8:	82 81       	ldd	r24, Z+2	; 0x02
    38da:	93 81       	ldd	r25, Z+3	; 0x03
    38dc:	da c3       	rjmp	.+1972   	; 0x4092 <_ZN5XUart9availableEv>
    38de:	08 95       	ret

000038e0 <_ZN21HCIUartTransportClass4peekEv>:
    38e0:	fc 01       	movw	r30, r24
    38e2:	82 81       	ldd	r24, Z+2	; 0x02
    38e4:	93 81       	ldd	r25, Z+3	; 0x03
    38e6:	e7 c3       	rjmp	.+1998   	; 0x40b6 <_ZN5XUart4peekEv>
    38e8:	08 95       	ret

000038ea <_ZN21HCIUartTransportClass4readEv>:
    38ea:	fc 01       	movw	r30, r24
    38ec:	82 81       	ldd	r24, Z+2	; 0x02
    38ee:	93 81       	ldd	r25, Z+3	; 0x03
    38f0:	ef c3       	rjmp	.+2014   	; 0x40d0 <_ZN5XUart4readEv>
    38f2:	08 95       	ret

000038f4 <_ZN21HCIUartTransportClass5writeEPKhj>:
    38f4:	0f 93       	push	r16
    38f6:	1f 93       	push	r17
    38f8:	cf 93       	push	r28
    38fa:	df 93       	push	r29
    38fc:	ec 01       	movw	r28, r24
    38fe:	8a 81       	ldd	r24, Y+2	; 0x02
    3900:	9b 81       	ldd	r25, Y+3	; 0x03
    3902:	f7 d4       	rcall	.+2542   	; 0x42f2 <_ZN5XUart5writeEPKhj>
    3904:	8c 01       	movw	r16, r24
    3906:	8a 81       	ldd	r24, Y+2	; 0x02
    3908:	9b 81       	ldd	r25, Y+3	; 0x03
    390a:	1c d5       	rcall	.+2616   	; 0x4344 <_ZN5XUart5flushEv>
    390c:	c8 01       	movw	r24, r16
    390e:	df 91       	pop	r29
    3910:	cf 91       	pop	r28
    3912:	1f 91       	pop	r17
    3914:	0f 91       	pop	r16
    3916:	08 95       	ret

00003918 <_ZN21HCIUartTransportClassD0Ev>:
    3918:	59 c5       	rjmp	.+2738   	; 0x43cc <_ZdlPv>
    391a:	08 95       	ret

0000391c <_GLOBAL__sub_I__ZN21HCIUartTransportClassC2ER5XUartm>:
    391c:	e6 e7       	ldi	r30, 0x76	; 118
    391e:	f4 e0       	ldi	r31, 0x04	; 4
    3920:	84 ef       	ldi	r24, 0xF4	; 244
    3922:	91 e0       	ldi	r25, 0x01	; 1
    3924:	91 83       	std	Z+1, r25	; 0x01
    3926:	80 83       	st	Z, r24
    3928:	82 e2       	ldi	r24, 0x22	; 34
    392a:	95 e0       	ldi	r25, 0x05	; 5
    392c:	93 83       	std	Z+3, r25	; 0x03
    392e:	82 83       	std	Z+2, r24	; 0x02
    3930:	80 e0       	ldi	r24, 0x00	; 0
    3932:	92 ec       	ldi	r25, 0xC2	; 194
    3934:	a1 e0       	ldi	r26, 0x01	; 1
    3936:	b0 e0       	ldi	r27, 0x00	; 0
    3938:	84 83       	std	Z+4, r24	; 0x04
    393a:	95 83       	std	Z+5, r25	; 0x05
    393c:	a6 83       	std	Z+6, r26	; 0x06
    393e:	b7 83       	std	Z+7, r27	; 0x07
    3940:	08 95       	ret

00003942 <_ZN19L2CAPSignalingClassD1Ev>:
        g_hci.updateLeConnection(handle, request->minInterval, request->maxInterval, request->latency, request->supervisionTimeout);
    }
}

void L2CAPSignalingClass::connParamUpdateRes(uint16_t, uint8_t, uint8_t, uint8_t[])
{
    3942:	08 95       	ret

00003944 <_ZN19L2CAPSignalingClassD0Ev>:
    3944:	43 c5       	rjmp	.+2694   	; 0x43cc <_ZdlPv>
    3946:	08 95       	ret

00003948 <_ZN19L2CAPSignalingClass13addConnectionEjhhPhjjjh>:
    3948:	ef 92       	push	r14
    394a:	ff 92       	push	r15
    394c:	0f 93       	push	r16
    394e:	1f 93       	push	r17
    3950:	cf 93       	push	r28
    3952:	df 93       	push	r29
    3954:	cd b7       	in	r28, 0x3d	; 61
    3956:	de b7       	in	r29, 0x3e	; 62
    3958:	2c 97       	sbiw	r28, 0x0c	; 12
    395a:	0f b6       	in	r0, 0x3f	; 63
    395c:	f8 94       	cli
    395e:	de bf       	out	0x3e, r29	; 62
    3960:	0f be       	out	0x3f, r0	; 63
    3962:	cd bf       	out	0x3d, r28	; 61
    3964:	41 30       	cpi	r20, 0x01	; 1
    3966:	69 f5       	brne	.+90     	; 0x39c2 <_ZN19L2CAPSignalingClass13addConnectionEjhhPhjjjh+0x7a>
    3968:	fc 01       	movw	r30, r24
    396a:	22 81       	ldd	r18, Z+2	; 0x02
    396c:	33 81       	ldd	r19, Z+3	; 0x03
    396e:	21 15       	cp	r18, r1
    3970:	31 05       	cpc	r19, r1
    3972:	39 f1       	breq	.+78     	; 0x39c2 <_ZN19L2CAPSignalingClass13addConnectionEjhhPhjjjh+0x7a>
    3974:	84 81       	ldd	r24, Z+4	; 0x04
    3976:	95 81       	ldd	r25, Z+5	; 0x05
    3978:	00 97       	sbiw	r24, 0x00	; 0
    397a:	19 f1       	breq	.+70     	; 0x39c2 <_ZN19L2CAPSignalingClass13addConnectionEjhhPhjjjh+0x7a>
    397c:	e2 16       	cp	r14, r18
    397e:	f3 06       	cpc	r15, r19
    3980:	18 f0       	brcs	.+6      	; 0x3988 <_ZN19L2CAPSignalingClass13addConnectionEjhhPhjjjh+0x40>
    3982:	8e 15       	cp	r24, r14
    3984:	9f 05       	cpc	r25, r15
    3986:	e8 f4       	brcc	.+58     	; 0x39c2 <_ZN19L2CAPSignalingClass13addConnectionEjhhPhjjjh+0x7a>
    3988:	8e 01       	movw	r16, r28
    398a:	0f 5f       	subi	r16, 0xFF	; 255
    398c:	1f 4f       	sbci	r17, 0xFF	; 255
    398e:	4c e0       	ldi	r20, 0x0C	; 12
    3990:	f8 01       	movw	r30, r16
    3992:	11 92       	st	Z+, r1
    3994:	4a 95       	dec	r20
    3996:	e9 f7       	brne	.-6      	; 0x3992 <_ZN19L2CAPSignalingClass13addConnectionEjhhPhjjjh+0x4a>
    3998:	42 e1       	ldi	r20, 0x12	; 18
    399a:	49 83       	std	Y+1, r20	; 0x01
    399c:	41 e0       	ldi	r20, 0x01	; 1
    399e:	4a 83       	std	Y+2, r20	; 0x02
    39a0:	48 e0       	ldi	r20, 0x08	; 8
    39a2:	50 e0       	ldi	r21, 0x00	; 0
    39a4:	5c 83       	std	Y+4, r21	; 0x04
    39a6:	4b 83       	std	Y+3, r20	; 0x03
    39a8:	48 ec       	ldi	r20, 0xC8	; 200
    39aa:	50 e0       	ldi	r21, 0x00	; 0
    39ac:	5c 87       	std	Y+12, r21	; 0x0c
    39ae:	4b 87       	std	Y+11, r20	; 0x0b
    39b0:	3e 83       	std	Y+6, r19	; 0x06
    39b2:	2d 83       	std	Y+5, r18	; 0x05
    39b4:	98 87       	std	Y+8, r25	; 0x08
    39b6:	8f 83       	std	Y+7, r24	; 0x07
    39b8:	2c e0       	ldi	r18, 0x0C	; 12
    39ba:	45 e0       	ldi	r20, 0x05	; 5
    39bc:	87 e6       	ldi	r24, 0x67	; 103
    39be:	93 e0       	ldi	r25, 0x03	; 3
    39c0:	95 dc       	rcall	.-1750   	; 0x32ec <_ZN8HCIClass13sendAclPacketEjhhPv>
    39c2:	2c 96       	adiw	r28, 0x0c	; 12
    39c4:	0f b6       	in	r0, 0x3f	; 63
    39c6:	f8 94       	cli
    39c8:	de bf       	out	0x3e, r29	; 62
    39ca:	0f be       	out	0x3f, r0	; 63
    39cc:	cd bf       	out	0x3d, r28	; 61
    39ce:	df 91       	pop	r29
    39d0:	cf 91       	pop	r28
    39d2:	1f 91       	pop	r17
    39d4:	0f 91       	pop	r16
    39d6:	ff 90       	pop	r15
    39d8:	ef 90       	pop	r14
    39da:	08 95       	ret

000039dc <_ZN19L2CAPSignalingClass16removeConnectionEjj>:
    39dc:	08 95       	ret

000039de <_ZN19L2CAPSignalingClass18connParamUpdateReqEjhhPh>:
    39de:	af 92       	push	r10
    39e0:	bf 92       	push	r11
    39e2:	cf 92       	push	r12
    39e4:	df 92       	push	r13
    39e6:	ef 92       	push	r14
    39e8:	ff 92       	push	r15
    39ea:	0f 93       	push	r16
    39ec:	1f 93       	push	r17
    39ee:	cf 93       	push	r28
    39f0:	df 93       	push	r29
    39f2:	00 d0       	rcall	.+0      	; 0x39f4 <_ZN19L2CAPSignalingClass18connParamUpdateReqEjhhPh+0x16>
    39f4:	00 d0       	rcall	.+0      	; 0x39f6 <_ZN19L2CAPSignalingClass18connParamUpdateReqEjhhPh+0x18>
    39f6:	00 d0       	rcall	.+0      	; 0x39f8 <_ZN19L2CAPSignalingClass18connParamUpdateReqEjhhPh+0x1a>
    39f8:	cd b7       	in	r28, 0x3d	; 61
    39fa:	de b7       	in	r29, 0x3e	; 62
    39fc:	28 30       	cpi	r18, 0x08	; 8
    39fe:	08 f4       	brcc	.+2      	; 0x3a02 <_ZN19L2CAPSignalingClass18connParamUpdateReqEjhhPh+0x24>
    3a00:	45 c0       	rjmp	.+138    	; 0x3a8c <_ZN19L2CAPSignalingClass18connParamUpdateReqEjhhPh+0xae>
    3a02:	fe 01       	movw	r30, r28
    3a04:	31 96       	adiw	r30, 0x01	; 1
    3a06:	26 e0       	ldi	r18, 0x06	; 6
    3a08:	df 01       	movw	r26, r30
    3a0a:	1d 92       	st	X+, r1
    3a0c:	2a 95       	dec	r18
    3a0e:	e9 f7       	brne	.-6      	; 0x3a0a <_ZN19L2CAPSignalingClass18connParamUpdateReqEjhhPh+0x2c>
    3a10:	23 e1       	ldi	r18, 0x13	; 19
    3a12:	29 83       	std	Y+1, r18	; 0x01
    3a14:	22 e0       	ldi	r18, 0x02	; 2
    3a16:	30 e0       	ldi	r19, 0x00	; 0
    3a18:	3c 83       	std	Y+4, r19	; 0x04
    3a1a:	2b 83       	std	Y+3, r18	; 0x03
    3a1c:	4a 83       	std	Y+2, r20	; 0x02
    3a1e:	fc 01       	movw	r30, r24
    3a20:	22 81       	ldd	r18, Z+2	; 0x02
    3a22:	33 81       	ldd	r19, Z+3	; 0x03
    3a24:	21 15       	cp	r18, r1
    3a26:	31 05       	cpc	r19, r1
    3a28:	b1 f0       	breq	.+44     	; 0x3a56 <_ZN19L2CAPSignalingClass18connParamUpdateReqEjhhPh+0x78>
    3a2a:	84 81       	ldd	r24, Z+4	; 0x04
    3a2c:	95 81       	ldd	r25, Z+5	; 0x05
    3a2e:	00 97       	sbiw	r24, 0x00	; 0
    3a30:	91 f0       	breq	.+36     	; 0x3a56 <_ZN19L2CAPSignalingClass18connParamUpdateReqEjhhPh+0x78>
    3a32:	d8 01       	movw	r26, r16
    3a34:	4d 91       	ld	r20, X+
    3a36:	5c 91       	ld	r21, X
    3a38:	11 97       	sbiw	r26, 0x01	; 1
    3a3a:	42 17       	cp	r20, r18
    3a3c:	53 07       	cpc	r21, r19
    3a3e:	38 f0       	brcs	.+14     	; 0x3a4e <_ZN19L2CAPSignalingClass18connParamUpdateReqEjhhPh+0x70>
    3a40:	12 96       	adiw	r26, 0x02	; 2
    3a42:	2d 91       	ld	r18, X+
    3a44:	3c 91       	ld	r19, X
    3a46:	13 97       	sbiw	r26, 0x03	; 3
    3a48:	82 17       	cp	r24, r18
    3a4a:	93 07       	cpc	r25, r19
    3a4c:	20 f4       	brcc	.+8      	; 0x3a56 <_ZN19L2CAPSignalingClass18connParamUpdateReqEjhhPh+0x78>
    3a4e:	81 e0       	ldi	r24, 0x01	; 1
    3a50:	90 e0       	ldi	r25, 0x00	; 0
    3a52:	9e 83       	std	Y+6, r25	; 0x06
    3a54:	8d 83       	std	Y+5, r24	; 0x05
    3a56:	68 01       	movw	r12, r16
    3a58:	5b 01       	movw	r10, r22
    3a5a:	8e 01       	movw	r16, r28
    3a5c:	0f 5f       	subi	r16, 0xFF	; 255
    3a5e:	1f 4f       	sbci	r17, 0xFF	; 255
    3a60:	26 e0       	ldi	r18, 0x06	; 6
    3a62:	45 e0       	ldi	r20, 0x05	; 5
    3a64:	87 e6       	ldi	r24, 0x67	; 103
    3a66:	93 e0       	ldi	r25, 0x03	; 3
    3a68:	41 dc       	rcall	.-1918   	; 0x32ec <_ZN8HCIClass13sendAclPacketEjhhPv>
    3a6a:	8d 81       	ldd	r24, Y+5	; 0x05
    3a6c:	9e 81       	ldd	r25, Y+6	; 0x06
    3a6e:	89 2b       	or	r24, r25
    3a70:	69 f4       	brne	.+26     	; 0x3a8c <_ZN19L2CAPSignalingClass18connParamUpdateReqEjhhPh+0xae>
    3a72:	f6 01       	movw	r30, r12
    3a74:	e6 80       	ldd	r14, Z+6	; 0x06
    3a76:	f7 80       	ldd	r15, Z+7	; 0x07
    3a78:	04 81       	ldd	r16, Z+4	; 0x04
    3a7a:	15 81       	ldd	r17, Z+5	; 0x05
    3a7c:	22 81       	ldd	r18, Z+2	; 0x02
    3a7e:	33 81       	ldd	r19, Z+3	; 0x03
    3a80:	40 81       	ld	r20, Z
    3a82:	51 81       	ldd	r21, Z+1	; 0x01
    3a84:	b5 01       	movw	r22, r10
    3a86:	87 e6       	ldi	r24, 0x67	; 103
    3a88:	93 e0       	ldi	r25, 0x03	; 3
    3a8a:	8a de       	rcall	.-748    	; 0x37a0 <_ZN8HCIClass18updateLeConnectionEjjjjj>
    3a8c:	26 96       	adiw	r28, 0x06	; 6
    3a8e:	0f b6       	in	r0, 0x3f	; 63
    3a90:	f8 94       	cli
    3a92:	de bf       	out	0x3e, r29	; 62
    3a94:	0f be       	out	0x3f, r0	; 63
    3a96:	cd bf       	out	0x3d, r28	; 61
    3a98:	df 91       	pop	r29
    3a9a:	cf 91       	pop	r28
    3a9c:	1f 91       	pop	r17
    3a9e:	0f 91       	pop	r16
    3aa0:	ff 90       	pop	r15
    3aa2:	ef 90       	pop	r14
    3aa4:	df 90       	pop	r13
    3aa6:	cf 90       	pop	r12
    3aa8:	bf 90       	pop	r11
    3aaa:	af 90       	pop	r10
    3aac:	08 95       	ret

00003aae <_ZN19L2CAPSignalingClass10handleDataEjhPh>:
    3aae:	0f 93       	push	r16
    3ab0:	1f 93       	push	r17
    3ab2:	44 30       	cpi	r20, 0x04	; 4
    3ab4:	98 f0       	brcs	.+38     	; 0x3adc <_ZN19L2CAPSignalingClass10handleDataEjhPh+0x2e>
    3ab6:	f9 01       	movw	r30, r18
    3ab8:	a2 81       	ldd	r26, Z+2	; 0x02
    3aba:	b3 81       	ldd	r27, Z+3	; 0x03
    3abc:	50 e0       	ldi	r21, 0x00	; 0
    3abe:	fd 01       	movw	r30, r26
    3ac0:	34 96       	adiw	r30, 0x04	; 4
    3ac2:	4e 17       	cp	r20, r30
    3ac4:	5f 07       	cpc	r21, r31
    3ac6:	51 f4       	brne	.+20     	; 0x3adc <_ZN19L2CAPSignalingClass10handleDataEjhPh+0x2e>
    3ac8:	f9 01       	movw	r30, r18
    3aca:	40 81       	ld	r20, Z
    3acc:	42 31       	cpi	r20, 0x12	; 18
    3ace:	31 f4       	brne	.+12     	; 0x3adc <_ZN19L2CAPSignalingClass10handleDataEjhPh+0x2e>
    3ad0:	89 01       	movw	r16, r18
    3ad2:	0c 5f       	subi	r16, 0xFC	; 252
    3ad4:	1f 4f       	sbci	r17, 0xFF	; 255
    3ad6:	2a 2f       	mov	r18, r26
    3ad8:	41 81       	ldd	r20, Z+1	; 0x01
    3ada:	81 df       	rcall	.-254    	; 0x39de <_ZN19L2CAPSignalingClass18connParamUpdateReqEjhhPh>
    3adc:	1f 91       	pop	r17
    3ade:	0f 91       	pop	r16
    3ae0:	08 95       	ret

00003ae2 <_GLOBAL__sub_I__ZN19L2CAPSignalingClassC2Ev>:
 */

#include "protocol/HCI.h"
#include "protocol/L2CAPSignaling.h"

L2CAPSignalingClass::L2CAPSignalingClass() : m_minInterval(0), m_maxInterval(0)
    3ae2:	ee e7       	ldi	r30, 0x7E	; 126
    3ae4:	f4 e0       	ldi	r31, 0x04	; 4
    3ae6:	8c e0       	ldi	r24, 0x0C	; 12
    3ae8:	92 e0       	ldi	r25, 0x02	; 2
    3aea:	91 83       	std	Z+1, r25	; 0x01
    3aec:	80 83       	st	Z, r24
    3aee:	13 82       	std	Z+3, r1	; 0x03
    3af0:	12 82       	std	Z+2, r1	; 0x02
    3af2:	15 82       	std	Z+5, r1	; 0x05
    3af4:	14 82       	std	Z+4, r1	; 0x04
    3af6:	08 95       	ret

00003af8 <_ZN8XConsoleD1Ev>:
    cbi(UCSR1B, TXEN1);
    cbi(UCSR1B, RXCIE1);
    cbi(UCSR1B, UDRIE1);
    m_rx_head = 0;
    m_rx_tail = 0;
}
    3af8:	08 95       	ret

00003afa <_ZN8XConsoleD0Ev>:
    3afa:	68 c4       	rjmp	.+2256   	; 0x43cc <_ZdlPv>
    3afc:	08 95       	ret

00003afe <_ZN8XConsole5beginEm>:
    3afe:	cf 93       	push	r28
    3b00:	df 93       	push	r29
    3b02:	ec 01       	movw	r28, r24
    3b04:	9a 01       	movw	r18, r20
    3b06:	ab 01       	movw	r20, r22
    3b08:	60 e8       	ldi	r22, 0x80	; 128
    3b0a:	74 e8       	ldi	r23, 0x84	; 132
    3b0c:	8e e1       	ldi	r24, 0x1E	; 30
    3b0e:	90 e0       	ldi	r25, 0x00	; 0
    3b10:	ea d7       	rcall	.+4052   	; 0x4ae6 <__udivmodsi4>
    3b12:	da 01       	movw	r26, r20
    3b14:	c9 01       	movw	r24, r18
    3b16:	01 97       	sbiw	r24, 0x01	; 1
    3b18:	a1 09       	sbc	r26, r1
    3b1a:	b1 09       	sbc	r27, r1
    3b1c:	ac 01       	movw	r20, r24
    3b1e:	bd 01       	movw	r22, r26
    3b20:	76 95       	lsr	r23
    3b22:	67 95       	ror	r22
    3b24:	57 95       	ror	r21
    3b26:	47 95       	ror	r20
    3b28:	85 2f       	mov	r24, r21
    3b2a:	99 27       	eor	r25, r25
    3b2c:	80 93 98 00 	sts	0x0098, r24	; 0x800098 <__TEXT_REGION_LENGTH__+0x7e0098>
    3b30:	40 93 99 00 	sts	0x0099, r20	; 0x800099 <__TEXT_REGION_LENGTH__+0x7e0099>
    3b34:	ea e9       	ldi	r30, 0x9A	; 154
    3b36:	f0 e0       	ldi	r31, 0x00	; 0
    3b38:	80 81       	ld	r24, Z
    3b3a:	80 61       	ori	r24, 0x10	; 16
    3b3c:	80 83       	st	Z, r24
    3b3e:	80 81       	ld	r24, Z
    3b40:	88 60       	ori	r24, 0x08	; 8
    3b42:	80 83       	st	Z, r24
    3b44:	80 81       	ld	r24, Z
    3b46:	80 68       	ori	r24, 0x80	; 128
    3b48:	80 83       	st	Z, r24
    3b4a:	80 81       	ld	r24, Z
    3b4c:	80 62       	ori	r24, 0x20	; 32
    3b4e:	80 83       	st	Z, r24
    3b50:	1a 82       	std	Y+2, r1	; 0x02
    3b52:	1b 82       	std	Y+3, r1	; 0x03
    3b54:	81 e0       	ldi	r24, 0x01	; 1
    3b56:	90 e0       	ldi	r25, 0x00	; 0
    3b58:	df 91       	pop	r29
    3b5a:	cf 91       	pop	r28
    3b5c:	08 95       	ret

00003b5e <_ZN8XConsole5rxIsrEv>:
    3b5e:	20 91 9b 00 	lds	r18, 0x009B	; 0x80009b <__TEXT_REGION_LENGTH__+0x7e009b>
    3b62:	22 fd       	sbrc	r18, 2
    3b64:	22 c0       	rjmp	.+68     	; 0x3baa <_ZN8XConsole5rxIsrEv+0x4c>
    3b66:	e0 91 9c 00 	lds	r30, 0x009C	; 0x80009c <__TEXT_REGION_LENGTH__+0x7e009c>
    3b6a:	dc 01       	movw	r26, r24
    3b6c:	12 96       	adiw	r26, 0x02	; 2
    3b6e:	4c 91       	ld	r20, X
    3b70:	50 e0       	ldi	r21, 0x00	; 0
    3b72:	9a 01       	movw	r18, r20
    3b74:	2f 5f       	subi	r18, 0xFF	; 255
    3b76:	3f 4f       	sbci	r19, 0xFF	; 255
    3b78:	2f 73       	andi	r18, 0x3F	; 63
    3b7a:	30 78       	andi	r19, 0x80	; 128
    3b7c:	33 23       	and	r19, r19
    3b7e:	34 f4       	brge	.+12     	; 0x3b8c <_ZN8XConsole5rxIsrEv+0x2e>
    3b80:	21 50       	subi	r18, 0x01	; 1
    3b82:	31 09       	sbc	r19, r1
    3b84:	20 6c       	ori	r18, 0xC0	; 192
    3b86:	3f 6f       	ori	r19, 0xFF	; 255
    3b88:	2f 5f       	subi	r18, 0xFF	; 255
    3b8a:	3f 4f       	sbci	r19, 0xFF	; 255
    3b8c:	dc 01       	movw	r26, r24
    3b8e:	13 96       	adiw	r26, 0x03	; 3
    3b90:	6c 91       	ld	r22, X
    3b92:	13 97       	sbiw	r26, 0x03	; 3
    3b94:	70 e0       	ldi	r23, 0x00	; 0
    3b96:	26 17       	cp	r18, r22
    3b98:	37 07       	cpc	r19, r23
    3b9a:	49 f0       	breq	.+18     	; 0x3bae <_ZN8XConsole5rxIsrEv+0x50>
    3b9c:	a4 0f       	add	r26, r20
    3b9e:	b5 1f       	adc	r27, r21
    3ba0:	14 96       	adiw	r26, 0x04	; 4
    3ba2:	ec 93       	st	X, r30
    3ba4:	fc 01       	movw	r30, r24
    3ba6:	22 83       	std	Z+2, r18	; 0x02
    3ba8:	08 95       	ret
    3baa:	80 91 9c 00 	lds	r24, 0x009C	; 0x80009c <__TEXT_REGION_LENGTH__+0x7e009c>
    3bae:	08 95       	ret

00003bb0 <__vector_30>:
    3bb0:	1f 92       	push	r1
    3bb2:	0f 92       	push	r0
    3bb4:	0f b6       	in	r0, 0x3f	; 63
    3bb6:	0f 92       	push	r0
    3bb8:	11 24       	eor	r1, r1
    3bba:	0b b6       	in	r0, 0x3b	; 59
    3bbc:	0f 92       	push	r0
    3bbe:	2f 93       	push	r18
    3bc0:	3f 93       	push	r19
    3bc2:	4f 93       	push	r20
    3bc4:	5f 93       	push	r21
    3bc6:	6f 93       	push	r22
    3bc8:	7f 93       	push	r23
    3bca:	8f 93       	push	r24
    3bcc:	9f 93       	push	r25
    3bce:	af 93       	push	r26
    3bd0:	bf 93       	push	r27
    3bd2:	ef 93       	push	r30
    3bd4:	ff 93       	push	r31
    3bd6:	84 e8       	ldi	r24, 0x84	; 132
    3bd8:	94 e0       	ldi	r25, 0x04	; 4
    3bda:	c1 df       	rcall	.-126    	; 0x3b5e <_ZN8XConsole5rxIsrEv>
    3bdc:	ff 91       	pop	r31
    3bde:	ef 91       	pop	r30
    3be0:	bf 91       	pop	r27
    3be2:	af 91       	pop	r26
    3be4:	9f 91       	pop	r25
    3be6:	8f 91       	pop	r24
    3be8:	7f 91       	pop	r23
    3bea:	6f 91       	pop	r22
    3bec:	5f 91       	pop	r21
    3bee:	4f 91       	pop	r20
    3bf0:	3f 91       	pop	r19
    3bf2:	2f 91       	pop	r18
    3bf4:	0f 90       	pop	r0
    3bf6:	0b be       	out	0x3b, r0	; 59
    3bf8:	0f 90       	pop	r0
    3bfa:	0f be       	out	0x3f, r0	; 63
    3bfc:	0f 90       	pop	r0
    3bfe:	1f 90       	pop	r1
    3c00:	18 95       	reti

00003c02 <_ZN8XConsole5txIsrEv>:
    3c02:	dc 01       	movw	r26, r24
    3c04:	ab 5b       	subi	r26, 0xBB	; 187
    3c06:	bf 4f       	sbci	r27, 0xFF	; 255
    3c08:	2c 91       	ld	r18, X
    3c0a:	30 e0       	ldi	r19, 0x00	; 0
    3c0c:	fc 01       	movw	r30, r24
    3c0e:	e2 0f       	add	r30, r18
    3c10:	f3 1f       	adc	r31, r19
    3c12:	ea 5b       	subi	r30, 0xBA	; 186
    3c14:	ff 4f       	sbci	r31, 0xFF	; 255
    3c16:	40 81       	ld	r20, Z
    3c18:	2f 5f       	subi	r18, 0xFF	; 255
    3c1a:	3f 4f       	sbci	r19, 0xFF	; 255
    3c1c:	2f 73       	andi	r18, 0x3F	; 63
    3c1e:	30 78       	andi	r19, 0x80	; 128
    3c20:	33 23       	and	r19, r19
    3c22:	34 f4       	brge	.+12     	; 0x3c30 <_ZN8XConsole5txIsrEv+0x2e>
    3c24:	21 50       	subi	r18, 0x01	; 1
    3c26:	31 09       	sbc	r19, r1
    3c28:	20 6c       	ori	r18, 0xC0	; 192
    3c2a:	3f 6f       	ori	r19, 0xFF	; 255
    3c2c:	2f 5f       	subi	r18, 0xFF	; 255
    3c2e:	3f 4f       	sbci	r19, 0xFF	; 255
    3c30:	2c 93       	st	X, r18
    3c32:	40 93 9c 00 	sts	0x009C, r20	; 0x80009c <__TEXT_REGION_LENGTH__+0x7e009c>
    3c36:	eb e9       	ldi	r30, 0x9B	; 155
    3c38:	f0 e0       	ldi	r31, 0x00	; 0
    3c3a:	20 81       	ld	r18, Z
    3c3c:	20 74       	andi	r18, 0x40	; 64
    3c3e:	20 83       	st	Z, r18
    3c40:	fc 01       	movw	r30, r24
    3c42:	ec 5b       	subi	r30, 0xBC	; 188
    3c44:	ff 4f       	sbci	r31, 0xFF	; 255
    3c46:	dc 01       	movw	r26, r24
    3c48:	ab 5b       	subi	r26, 0xBB	; 187
    3c4a:	bf 4f       	sbci	r27, 0xFF	; 255
    3c4c:	20 81       	ld	r18, Z
    3c4e:	8c 91       	ld	r24, X
    3c50:	28 13       	cpse	r18, r24
    3c52:	05 c0       	rjmp	.+10     	; 0x3c5e <_ZN8XConsole5txIsrEv+0x5c>
    3c54:	ea e9       	ldi	r30, 0x9A	; 154
    3c56:	f0 e0       	ldi	r31, 0x00	; 0
    3c58:	80 81       	ld	r24, Z
    3c5a:	8f 7d       	andi	r24, 0xDF	; 223
    3c5c:	80 83       	st	Z, r24
    3c5e:	08 95       	ret

00003c60 <__vector_31>:
    3c60:	1f 92       	push	r1
    3c62:	0f 92       	push	r0
    3c64:	0f b6       	in	r0, 0x3f	; 63
    3c66:	0f 92       	push	r0
    3c68:	11 24       	eor	r1, r1
    3c6a:	0b b6       	in	r0, 0x3b	; 59
    3c6c:	0f 92       	push	r0
    3c6e:	2f 93       	push	r18
    3c70:	3f 93       	push	r19
    3c72:	4f 93       	push	r20
    3c74:	5f 93       	push	r21
    3c76:	6f 93       	push	r22
    3c78:	7f 93       	push	r23
    3c7a:	8f 93       	push	r24
    3c7c:	9f 93       	push	r25
    3c7e:	af 93       	push	r26
    3c80:	bf 93       	push	r27
    3c82:	ef 93       	push	r30
    3c84:	ff 93       	push	r31
    3c86:	84 e8       	ldi	r24, 0x84	; 132
    3c88:	94 e0       	ldi	r25, 0x04	; 4
    3c8a:	bb df       	rcall	.-138    	; 0x3c02 <_ZN8XConsole5txIsrEv>
    3c8c:	ff 91       	pop	r31
    3c8e:	ef 91       	pop	r30
    3c90:	bf 91       	pop	r27
    3c92:	af 91       	pop	r26
    3c94:	9f 91       	pop	r25
    3c96:	8f 91       	pop	r24
    3c98:	7f 91       	pop	r23
    3c9a:	6f 91       	pop	r22
    3c9c:	5f 91       	pop	r21
    3c9e:	4f 91       	pop	r20
    3ca0:	3f 91       	pop	r19
    3ca2:	2f 91       	pop	r18
    3ca4:	0f 90       	pop	r0
    3ca6:	0b be       	out	0x3b, r0	; 59
    3ca8:	0f 90       	pop	r0
    3caa:	0f be       	out	0x3f, r0	; 63
    3cac:	0f 90       	pop	r0
    3cae:	1f 90       	pop	r1
    3cb0:	18 95       	reti

00003cb2 <_ZN8XConsole5writeEh>:
    3cb2:	cf 92       	push	r12
    3cb4:	df 92       	push	r13
    3cb6:	ef 92       	push	r14
    3cb8:	ff 92       	push	r15
    3cba:	0f 93       	push	r16
    3cbc:	1f 93       	push	r17
    3cbe:	cf 93       	push	r28
    3cc0:	df 93       	push	r29
    3cc2:	fc 01       	movw	r30, r24
    3cc4:	ea 57       	subi	r30, 0x7A	; 122
    3cc6:	ff 4f       	sbci	r31, 0xFF	; 255
    3cc8:	21 e0       	ldi	r18, 0x01	; 1
    3cca:	20 83       	st	Z, r18
    3ccc:	e2 54       	subi	r30, 0x42	; 66
    3cce:	f1 09       	sbc	r31, r1
    3cd0:	20 81       	ld	r18, Z
    3cd2:	31 96       	adiw	r30, 0x01	; 1
    3cd4:	30 81       	ld	r19, Z
    3cd6:	23 13       	cpse	r18, r19
    3cd8:	26 c0       	rjmp	.+76     	; 0x3d26 <_ZN8XConsole5writeEh+0x74>
    3cda:	30 91 9b 00 	lds	r19, 0x009B	; 0x80009b <__TEXT_REGION_LENGTH__+0x7e009b>
    3cde:	35 fd       	sbrc	r19, 5
    3ce0:	3c c0       	rjmp	.+120    	; 0x3d5a <_ZN8XConsole5writeEh+0xa8>
    3ce2:	21 c0       	rjmp	.+66     	; 0x3d26 <_ZN8XConsole5writeEh+0x74>
    3ce4:	f7 01       	movw	r30, r14
    3ce6:	80 81       	ld	r24, Z
    3ce8:	18 13       	cpse	r17, r24
    3cea:	0a c0       	rjmp	.+20     	; 0x3d00 <_ZN8XConsole5writeEh+0x4e>
    3cec:	0f b6       	in	r0, 0x3f	; 63
    3cee:	07 fc       	sbrc	r0, 7
    3cf0:	fd cf       	rjmp	.-6      	; 0x3cec <_ZN8XConsole5writeEh+0x3a>
    3cf2:	f6 01       	movw	r30, r12
    3cf4:	90 81       	ld	r25, Z
    3cf6:	95 ff       	sbrs	r25, 5
    3cf8:	f7 cf       	rjmp	.-18     	; 0x3ce8 <_ZN8XConsole5writeEh+0x36>
    3cfa:	ce 01       	movw	r24, r28
    3cfc:	82 df       	rcall	.-252    	; 0x3c02 <_ZN8XConsole5txIsrEv>
    3cfe:	f2 cf       	rjmp	.-28     	; 0x3ce4 <_ZN8XConsole5writeEh+0x32>
    3d00:	fe 01       	movw	r30, r28
    3d02:	ec 5b       	subi	r30, 0xBC	; 188
    3d04:	ff 4f       	sbci	r31, 0xFF	; 255
    3d06:	80 81       	ld	r24, Z
    3d08:	c8 0f       	add	r28, r24
    3d0a:	d1 1d       	adc	r29, r1
    3d0c:	ca 5b       	subi	r28, 0xBA	; 186
    3d0e:	df 4f       	sbci	r29, 0xFF	; 255
    3d10:	08 83       	st	Y, r16
    3d12:	9f b7       	in	r25, 0x3f	; 63
    3d14:	f8 94       	cli
    3d16:	10 83       	st	Z, r17
    3d18:	ea e9       	ldi	r30, 0x9A	; 154
    3d1a:	f0 e0       	ldi	r31, 0x00	; 0
    3d1c:	80 81       	ld	r24, Z
    3d1e:	80 62       	ori	r24, 0x20	; 32
    3d20:	80 83       	st	Z, r24
    3d22:	9f bf       	out	0x3f, r25	; 63
    3d24:	24 c0       	rjmp	.+72     	; 0x3d6e <_ZN8XConsole5writeEh+0xbc>
    3d26:	30 e0       	ldi	r19, 0x00	; 0
    3d28:	2f 5f       	subi	r18, 0xFF	; 255
    3d2a:	3f 4f       	sbci	r19, 0xFF	; 255
    3d2c:	2f 73       	andi	r18, 0x3F	; 63
    3d2e:	30 78       	andi	r19, 0x80	; 128
    3d30:	33 23       	and	r19, r19
    3d32:	34 f4       	brge	.+12     	; 0x3d40 <_ZN8XConsole5writeEh+0x8e>
    3d34:	21 50       	subi	r18, 0x01	; 1
    3d36:	31 09       	sbc	r19, r1
    3d38:	20 6c       	ori	r18, 0xC0	; 192
    3d3a:	3f 6f       	ori	r19, 0xFF	; 255
    3d3c:	2f 5f       	subi	r18, 0xFF	; 255
    3d3e:	3f 4f       	sbci	r19, 0xFF	; 255
    3d40:	06 2f       	mov	r16, r22
    3d42:	ec 01       	movw	r28, r24
    3d44:	12 2f       	mov	r17, r18
    3d46:	7c 01       	movw	r14, r24
    3d48:	f5 e4       	ldi	r31, 0x45	; 69
    3d4a:	ef 0e       	add	r14, r31
    3d4c:	f1 1c       	adc	r15, r1
    3d4e:	0f 2e       	mov	r0, r31
    3d50:	fb e9       	ldi	r31, 0x9B	; 155
    3d52:	cf 2e       	mov	r12, r31
    3d54:	d1 2c       	mov	r13, r1
    3d56:	f0 2d       	mov	r31, r0
    3d58:	c5 cf       	rjmp	.-118    	; 0x3ce4 <_ZN8XConsole5writeEh+0x32>
    3d5a:	9f b7       	in	r25, 0x3f	; 63
    3d5c:	f8 94       	cli
    3d5e:	60 93 9c 00 	sts	0x009C, r22	; 0x80009c <__TEXT_REGION_LENGTH__+0x7e009c>
    3d62:	eb e9       	ldi	r30, 0x9B	; 155
    3d64:	f0 e0       	ldi	r31, 0x00	; 0
    3d66:	80 81       	ld	r24, Z
    3d68:	80 74       	andi	r24, 0x40	; 64
    3d6a:	80 83       	st	Z, r24
    3d6c:	9f bf       	out	0x3f, r25	; 63
    3d6e:	81 e0       	ldi	r24, 0x01	; 1
    3d70:	90 e0       	ldi	r25, 0x00	; 0
    3d72:	df 91       	pop	r29
    3d74:	cf 91       	pop	r28
    3d76:	1f 91       	pop	r17
    3d78:	0f 91       	pop	r16
    3d7a:	ff 90       	pop	r15
    3d7c:	ef 90       	pop	r14
    3d7e:	df 90       	pop	r13
    3d80:	cf 90       	pop	r12
    3d82:	08 95       	ret

00003d84 <_ZN8XConsole5writeEPKhj>:
    3d84:	cf 92       	push	r12
    3d86:	df 92       	push	r13
    3d88:	ef 92       	push	r14
    3d8a:	ff 92       	push	r15
    3d8c:	0f 93       	push	r16
    3d8e:	1f 93       	push	r17
    3d90:	cf 93       	push	r28
    3d92:	df 93       	push	r29
    3d94:	41 15       	cp	r20, r1
    3d96:	51 05       	cpc	r21, r1
    3d98:	91 f0       	breq	.+36     	; 0x3dbe <_ZN8XConsole5writeEPKhj+0x3a>
    3d9a:	7a 01       	movw	r14, r20
    3d9c:	6c 01       	movw	r12, r24
    3d9e:	06 2f       	mov	r16, r22
    3da0:	17 2f       	mov	r17, r23
    3da2:	c0 e0       	ldi	r28, 0x00	; 0
    3da4:	d0 e0       	ldi	r29, 0x00	; 0
    3da6:	f8 01       	movw	r30, r16
    3da8:	61 91       	ld	r22, Z+
    3daa:	8f 01       	movw	r16, r30
    3dac:	c6 01       	movw	r24, r12
    3dae:	81 df       	rcall	.-254    	; 0x3cb2 <_ZN8XConsole5writeEh>
    3db0:	89 2b       	or	r24, r25
    3db2:	39 f0       	breq	.+14     	; 0x3dc2 <_ZN8XConsole5writeEPKhj+0x3e>
    3db4:	21 96       	adiw	r28, 0x01	; 1
    3db6:	ec 16       	cp	r14, r28
    3db8:	fd 06       	cpc	r15, r29
    3dba:	a9 f7       	brne	.-22     	; 0x3da6 <_ZN8XConsole5writeEPKhj+0x22>
    3dbc:	02 c0       	rjmp	.+4      	; 0x3dc2 <_ZN8XConsole5writeEPKhj+0x3e>
    3dbe:	c0 e0       	ldi	r28, 0x00	; 0
    3dc0:	d0 e0       	ldi	r29, 0x00	; 0
    3dc2:	ce 01       	movw	r24, r28
    3dc4:	df 91       	pop	r29
    3dc6:	cf 91       	pop	r28
    3dc8:	1f 91       	pop	r17
    3dca:	0f 91       	pop	r16
    3dcc:	ff 90       	pop	r15
    3dce:	ef 90       	pop	r14
    3dd0:	df 90       	pop	r13
    3dd2:	cf 90       	pop	r12
    3dd4:	08 95       	ret

00003dd6 <_ZN8XConsole5writeEPKc>:
    3dd6:	61 15       	cp	r22, r1
    3dd8:	71 05       	cpc	r23, r1
    3dda:	51 f0       	breq	.+20     	; 0x3df0 <_ZN8XConsole5writeEPKc+0x1a>
    3ddc:	fb 01       	movw	r30, r22
    3dde:	01 90       	ld	r0, Z+
    3de0:	00 20       	and	r0, r0
    3de2:	e9 f7       	brne	.-6      	; 0x3dde <_ZN8XConsole5writeEPKc+0x8>
    3de4:	31 97       	sbiw	r30, 0x01	; 1
    3de6:	af 01       	movw	r20, r30
    3de8:	46 1b       	sub	r20, r22
    3dea:	57 0b       	sbc	r21, r23
    3dec:	cb cf       	rjmp	.-106    	; 0x3d84 <_ZN8XConsole5writeEPKhj>
    3dee:	08 95       	ret
    3df0:	80 e0       	ldi	r24, 0x00	; 0
    3df2:	90 e0       	ldi	r25, 0x00	; 0
    3df4:	08 95       	ret

00003df6 <_GLOBAL__sub_I___vector_30>:
ISR(USART1_UDRE_vect)
{
    g_console.txIsr();
}

XConsole::XConsole()
    3df6:	84 e1       	ldi	r24, 0x14	; 20
    3df8:	92 e0       	ldi	r25, 0x02	; 2
    3dfa:	90 93 85 04 	sts	0x0485, r25	; 0x800485 <g_console+0x1>
    3dfe:	80 93 84 04 	sts	0x0484, r24	; 0x800484 <g_console>
    3e02:	08 95       	ret

00003e04 <_ZN9XDistance18calculateMilliVoltEj>:
unsigned int XDistance::calculateCentiMeter(unsigned int millivolt)
{
    unsigned long centimeter = 1000;
    //return (centimeter * 27.61) / (millivolt)
    return (centimeter * 23) / (millivolt + 50);
}
    3e04:	0f 93       	push	r16
    3e06:	1f 93       	push	r17
    3e08:	fc 01       	movw	r30, r24
    3e0a:	cb 01       	movw	r24, r22
    3e0c:	05 81       	ldd	r16, Z+5	; 0x05
    3e0e:	16 81       	ldd	r17, Z+6	; 0x06
    3e10:	43 81       	ldd	r20, Z+3	; 0x03
    3e12:	54 81       	ldd	r21, Z+4	; 0x04
    3e14:	20 e0       	ldi	r18, 0x00	; 0
    3e16:	30 e0       	ldi	r19, 0x00	; 0
    3e18:	60 e0       	ldi	r22, 0x00	; 0
    3e1a:	70 e0       	ldi	r23, 0x00	; 0
    3e1c:	d9 d2       	rcall	.+1458   	; 0x43d0 <_Z3mapjjjjj>
    3e1e:	1f 91       	pop	r17
    3e20:	0f 91       	pop	r16
    3e22:	08 95       	ret

00003e24 <_ZN9XDistance3isrEv>:
    3e24:	cf 93       	push	r28
    3e26:	df 93       	push	r29
    3e28:	ec 01       	movw	r28, r24
    3e2a:	64 b1       	in	r22, 0x04	; 4
    3e2c:	75 b1       	in	r23, 0x05	; 5
    3e2e:	78 87       	std	Y+8, r23	; 0x08
    3e30:	6f 83       	std	Y+7, r22	; 0x07
    3e32:	e8 df       	rcall	.-48     	; 0x3e04 <_ZN9XDistance18calculateMilliVoltEj>
    3e34:	c2 96       	adiw	r24, 0x32	; 50
    3e36:	9c 01       	movw	r18, r24
    3e38:	40 e0       	ldi	r20, 0x00	; 0
    3e3a:	50 e0       	ldi	r21, 0x00	; 0
    3e3c:	68 ed       	ldi	r22, 0xD8	; 216
    3e3e:	79 e5       	ldi	r23, 0x59	; 89
    3e40:	80 e0       	ldi	r24, 0x00	; 0
    3e42:	90 e0       	ldi	r25, 0x00	; 0
    3e44:	50 d6       	rcall	.+3232   	; 0x4ae6 <__udivmodsi4>
    3e46:	3a 83       	std	Y+2, r19	; 0x02
    3e48:	29 83       	std	Y+1, r18	; 0x01
    3e4a:	36 9a       	sbi	0x06, 6	; 6
    3e4c:	df 91       	pop	r29
    3e4e:	cf 91       	pop	r28
    3e50:	08 95       	ret

00003e52 <__vector_21>:
    3e52:	1f 92       	push	r1
    3e54:	0f 92       	push	r0
    3e56:	0f b6       	in	r0, 0x3f	; 63
    3e58:	0f 92       	push	r0
    3e5a:	11 24       	eor	r1, r1
    3e5c:	0b b6       	in	r0, 0x3b	; 59
    3e5e:	0f 92       	push	r0
    3e60:	2f 93       	push	r18
    3e62:	3f 93       	push	r19
    3e64:	4f 93       	push	r20
    3e66:	5f 93       	push	r21
    3e68:	6f 93       	push	r22
    3e6a:	7f 93       	push	r23
    3e6c:	8f 93       	push	r24
    3e6e:	9f 93       	push	r25
    3e70:	af 93       	push	r26
    3e72:	bf 93       	push	r27
    3e74:	ef 93       	push	r30
    3e76:	ff 93       	push	r31
    3e78:	8b e0       	ldi	r24, 0x0B	; 11
    3e7a:	95 e0       	ldi	r25, 0x05	; 5
    3e7c:	d3 df       	rcall	.-90     	; 0x3e24 <_ZN9XDistance3isrEv>
    3e7e:	ff 91       	pop	r31
    3e80:	ef 91       	pop	r30
    3e82:	bf 91       	pop	r27
    3e84:	af 91       	pop	r26
    3e86:	9f 91       	pop	r25
    3e88:	8f 91       	pop	r24
    3e8a:	7f 91       	pop	r23
    3e8c:	6f 91       	pop	r22
    3e8e:	5f 91       	pop	r21
    3e90:	4f 91       	pop	r20
    3e92:	3f 91       	pop	r19
    3e94:	2f 91       	pop	r18
    3e96:	0f 90       	pop	r0
    3e98:	0b be       	out	0x3b, r0	; 59
    3e9a:	0f 90       	pop	r0
    3e9c:	0f be       	out	0x3f, r0	; 63
    3e9e:	0f 90       	pop	r0
    3ea0:	1f 90       	pop	r1
    3ea2:	18 95       	reti

00003ea4 <_GLOBAL__sub_I___vector_21>:

ISR(ADC_vect) {
    g_distance.isr();
}

XDistance::XDistance() : m_channel(0), m_centimeter(0), m_maxValue(1023), m_maxMilliVolt(5000)
    3ea4:	eb e0       	ldi	r30, 0x0B	; 11
    3ea6:	f5 e0       	ldi	r31, 0x05	; 5
    3ea8:	10 82       	st	Z, r1
    3eaa:	12 82       	std	Z+2, r1	; 0x02
    3eac:	11 82       	std	Z+1, r1	; 0x01
    3eae:	8f ef       	ldi	r24, 0xFF	; 255
    3eb0:	93 e0       	ldi	r25, 0x03	; 3
    3eb2:	94 83       	std	Z+4, r25	; 0x04
    3eb4:	83 83       	std	Z+3, r24	; 0x03
    3eb6:	88 e8       	ldi	r24, 0x88	; 136
    3eb8:	93 e1       	ldi	r25, 0x13	; 19
    3eba:	96 83       	std	Z+6, r25	; 0x06
    3ebc:	85 83       	std	Z+5, r24	; 0x05
    3ebe:	08 95       	ret

00003ec0 <_ZN9XRotation3isrEv>:
    return 1;
}

void XRotation::isr()
{
    m_rotation++;
    3ec0:	fc 01       	movw	r30, r24
    3ec2:	40 81       	ld	r20, Z
    3ec4:	51 81       	ldd	r21, Z+1	; 0x01
    3ec6:	62 81       	ldd	r22, Z+2	; 0x02
    3ec8:	73 81       	ldd	r23, Z+3	; 0x03
    3eca:	4f 5f       	subi	r20, 0xFF	; 255
    3ecc:	5f 4f       	sbci	r21, 0xFF	; 255
    3ece:	6f 4f       	sbci	r22, 0xFF	; 255
    3ed0:	7f 4f       	sbci	r23, 0xFF	; 255
    3ed2:	40 83       	st	Z, r20
    3ed4:	51 83       	std	Z+1, r21	; 0x01
    3ed6:	62 83       	std	Z+2, r22	; 0x02
    3ed8:	73 83       	std	Z+3, r23	; 0x03
    g_console.write("R");
    3eda:	68 e1       	ldi	r22, 0x18	; 24
    3edc:	72 e0       	ldi	r23, 0x02	; 2
    3ede:	84 e8       	ldi	r24, 0x84	; 132
    3ee0:	94 e0       	ldi	r25, 0x04	; 4
    3ee2:	79 cf       	rjmp	.-270    	; 0x3dd6 <_ZN8XConsole5writeEPKc>
    3ee4:	08 95       	ret

00003ee6 <__vector_1>:
#include "system/XUtil.h"
#include "system/XConsole.h"
#include "system/XRotation.h"

ISR(INT0_vect)
{
    3ee6:	1f 92       	push	r1
    3ee8:	0f 92       	push	r0
    3eea:	0f b6       	in	r0, 0x3f	; 63
    3eec:	0f 92       	push	r0
    3eee:	11 24       	eor	r1, r1
    3ef0:	0b b6       	in	r0, 0x3b	; 59
    3ef2:	0f 92       	push	r0
    3ef4:	2f 93       	push	r18
    3ef6:	3f 93       	push	r19
    3ef8:	4f 93       	push	r20
    3efa:	5f 93       	push	r21
    3efc:	6f 93       	push	r22
    3efe:	7f 93       	push	r23
    3f00:	8f 93       	push	r24
    3f02:	9f 93       	push	r25
    3f04:	af 93       	push	r26
    3f06:	bf 93       	push	r27
    3f08:	ef 93       	push	r30
    3f0a:	ff 93       	push	r31
    g_rotation.isr();
    3f0c:	84 e1       	ldi	r24, 0x14	; 20
    3f0e:	95 e0       	ldi	r25, 0x05	; 5
    3f10:	d7 df       	rcall	.-82     	; 0x3ec0 <_ZN9XRotation3isrEv>
}
    3f12:	ff 91       	pop	r31
    3f14:	ef 91       	pop	r30
    3f16:	bf 91       	pop	r27
    3f18:	af 91       	pop	r26
    3f1a:	9f 91       	pop	r25
    3f1c:	8f 91       	pop	r24
    3f1e:	7f 91       	pop	r23
    3f20:	6f 91       	pop	r22
    3f22:	5f 91       	pop	r21
    3f24:	4f 91       	pop	r20
    3f26:	3f 91       	pop	r19
    3f28:	2f 91       	pop	r18
    3f2a:	0f 90       	pop	r0
    3f2c:	0b be       	out	0x3b, r0	; 59
    3f2e:	0f 90       	pop	r0
    3f30:	0f be       	out	0x3f, r0	; 63
    3f32:	0f 90       	pop	r0
    3f34:	1f 90       	pop	r1
    3f36:	18 95       	reti

00003f38 <_ZN6XTimer5beginEi>:
}

unsigned long XTimer::sec()
{
    return m_sec;
}
    3f38:	67 2b       	or	r22, r23
    3f3a:	61 f4       	brne	.+24     	; 0x3f54 <_ZN6XTimer5beginEi+0x1c>
    3f3c:	83 b7       	in	r24, 0x33	; 51
    3f3e:	84 60       	ori	r24, 0x04	; 4
    3f40:	83 bf       	out	0x33, r24	; 51
    3f42:	83 b7       	in	r24, 0x33	; 51
    3f44:	88 60       	ori	r24, 0x08	; 8
    3f46:	83 bf       	out	0x33, r24	; 51
    3f48:	12 be       	out	0x32, r1	; 50
    3f4a:	89 ef       	ldi	r24, 0xF9	; 249
    3f4c:	81 bf       	out	0x31, r24	; 49
    3f4e:	87 b7       	in	r24, 0x37	; 55
    3f50:	82 60       	ori	r24, 0x02	; 2
    3f52:	87 bf       	out	0x37, r24	; 55
    3f54:	08 95       	ret

00003f56 <_ZN6XTimer3endEi>:
    3f56:	67 2b       	or	r22, r23
    3f58:	19 f4       	brne	.+6      	; 0x3f60 <_ZN6XTimer3endEi+0xa>
    3f5a:	87 b7       	in	r24, 0x37	; 55
    3f5c:	8d 7f       	andi	r24, 0xFD	; 253
    3f5e:	87 bf       	out	0x37, r24	; 55
    3f60:	08 95       	ret

00003f62 <_ZN6XTimerD1Ev>:
    3f62:	fc 01       	movw	r30, r24
    3f64:	60 85       	ldd	r22, Z+8	; 0x08
    3f66:	71 85       	ldd	r23, Z+9	; 0x09
    3f68:	f6 cf       	rjmp	.-20     	; 0x3f56 <_ZN6XTimer3endEi>
    3f6a:	08 95       	ret

00003f6c <_ZN6XTimer8millisecEv>:
    3f6c:	fc 01       	movw	r30, r24
    3f6e:	60 81       	ld	r22, Z
    3f70:	71 81       	ldd	r23, Z+1	; 0x01
    3f72:	82 81       	ldd	r24, Z+2	; 0x02
    3f74:	93 81       	ldd	r25, Z+3	; 0x03
    3f76:	08 95       	ret

00003f78 <_ZN6XTimer3isrEv>:

void XTimer::isr()
{
    3f78:	cf 93       	push	r28
    3f7a:	df 93       	push	r29
    3f7c:	ec 01       	movw	r28, r24
    m_millisec++;
    3f7e:	88 81       	ld	r24, Y
    3f80:	99 81       	ldd	r25, Y+1	; 0x01
    3f82:	aa 81       	ldd	r26, Y+2	; 0x02
    3f84:	bb 81       	ldd	r27, Y+3	; 0x03
    3f86:	bc 01       	movw	r22, r24
    3f88:	cd 01       	movw	r24, r26
    3f8a:	6f 5f       	subi	r22, 0xFF	; 255
    3f8c:	7f 4f       	sbci	r23, 0xFF	; 255
    3f8e:	8f 4f       	sbci	r24, 0xFF	; 255
    3f90:	9f 4f       	sbci	r25, 0xFF	; 255
    3f92:	68 83       	st	Y, r22
    3f94:	79 83       	std	Y+1, r23	; 0x01
    3f96:	8a 83       	std	Y+2, r24	; 0x02
    3f98:	9b 83       	std	Y+3, r25	; 0x03
    if (!(m_millisec % 1000)) {
    3f9a:	28 ee       	ldi	r18, 0xE8	; 232
    3f9c:	33 e0       	ldi	r19, 0x03	; 3
    3f9e:	40 e0       	ldi	r20, 0x00	; 0
    3fa0:	50 e0       	ldi	r21, 0x00	; 0
    3fa2:	a1 d5       	rcall	.+2882   	; 0x4ae6 <__udivmodsi4>
    3fa4:	67 2b       	or	r22, r23
    3fa6:	68 2b       	or	r22, r24
    3fa8:	69 2b       	or	r22, r25
    3faa:	81 f4       	brne	.+32     	; 0x3fcc <_ZN6XTimer3isrEv+0x54>
        m_sec++;
    3fac:	8c 81       	ldd	r24, Y+4	; 0x04
    3fae:	9d 81       	ldd	r25, Y+5	; 0x05
    3fb0:	ae 81       	ldd	r26, Y+6	; 0x06
    3fb2:	bf 81       	ldd	r27, Y+7	; 0x07
    3fb4:	01 96       	adiw	r24, 0x01	; 1
    3fb6:	a1 1d       	adc	r26, r1
    3fb8:	b1 1d       	adc	r27, r1
    3fba:	8c 83       	std	Y+4, r24	; 0x04
    3fbc:	9d 83       	std	Y+5, r25	; 0x05
    3fbe:	ae 83       	std	Y+6, r26	; 0x06
    3fc0:	bf 83       	std	Y+7, r27	; 0x07
        g_console.write("T");
    3fc2:	6a e1       	ldi	r22, 0x1A	; 26
    3fc4:	72 e0       	ldi	r23, 0x02	; 2
    3fc6:	84 e8       	ldi	r24, 0x84	; 132
    3fc8:	94 e0       	ldi	r25, 0x04	; 4
    3fca:	05 df       	rcall	.-502    	; 0x3dd6 <_ZN8XConsole5writeEPKc>
    }
}
    3fcc:	df 91       	pop	r29
    3fce:	cf 91       	pop	r28
    3fd0:	08 95       	ret

00003fd2 <__vector_15>:
#include <avr/interrupt.h>
#include "system/XUtil.h"
#include "system/XConsole.h"
#include "system/XTimer.h"

ISR(TIMER0_COMP_vect) {
    3fd2:	1f 92       	push	r1
    3fd4:	0f 92       	push	r0
    3fd6:	0f b6       	in	r0, 0x3f	; 63
    3fd8:	0f 92       	push	r0
    3fda:	11 24       	eor	r1, r1
    3fdc:	0b b6       	in	r0, 0x3b	; 59
    3fde:	0f 92       	push	r0
    3fe0:	2f 93       	push	r18
    3fe2:	3f 93       	push	r19
    3fe4:	4f 93       	push	r20
    3fe6:	5f 93       	push	r21
    3fe8:	6f 93       	push	r22
    3fea:	7f 93       	push	r23
    3fec:	8f 93       	push	r24
    3fee:	9f 93       	push	r25
    3ff0:	af 93       	push	r26
    3ff2:	bf 93       	push	r27
    3ff4:	ef 93       	push	r30
    3ff6:	ff 93       	push	r31
    g_timer0.isr();
    3ff8:	88 e1       	ldi	r24, 0x18	; 24
    3ffa:	95 e0       	ldi	r25, 0x05	; 5
    3ffc:	bd df       	rcall	.-134    	; 0x3f78 <_ZN6XTimer3isrEv>
}
    3ffe:	ff 91       	pop	r31
    4000:	ef 91       	pop	r30
    4002:	bf 91       	pop	r27
    4004:	af 91       	pop	r26
    4006:	9f 91       	pop	r25
    4008:	8f 91       	pop	r24
    400a:	7f 91       	pop	r23
    400c:	6f 91       	pop	r22
    400e:	5f 91       	pop	r21
    4010:	4f 91       	pop	r20
    4012:	3f 91       	pop	r19
    4014:	2f 91       	pop	r18
    4016:	0f 90       	pop	r0
    4018:	0b be       	out	0x3b, r0	; 59
    401a:	0f 90       	pop	r0
    401c:	0f be       	out	0x3f, r0	; 63
    401e:	0f 90       	pop	r0
    4020:	1f 90       	pop	r1
    4022:	18 95       	reti

00004024 <_GLOBAL__sub_I___vector_15>:

XTimer::XTimer() : m_millisec(0), m_sec(0)
    4024:	e8 e1       	ldi	r30, 0x18	; 24
    4026:	f5 e0       	ldi	r31, 0x05	; 5
    4028:	10 82       	st	Z, r1
    402a:	11 82       	std	Z+1, r1	; 0x01
    402c:	12 82       	std	Z+2, r1	; 0x02
    402e:	13 82       	std	Z+3, r1	; 0x03
    4030:	14 82       	std	Z+4, r1	; 0x04
    4032:	15 82       	std	Z+5, r1	; 0x05
    4034:	16 82       	std	Z+6, r1	; 0x06
    4036:	17 82       	std	Z+7, r1	; 0x07
    4038:	08 95       	ret

0000403a <_GLOBAL__sub_D___vector_15>:
        m_sec++;
        g_console.write("T");
    }
}

XTimer g_timer0;
    403a:	88 e1       	ldi	r24, 0x18	; 24
    403c:	95 e0       	ldi	r25, 0x05	; 5
    403e:	91 cf       	rjmp	.-222    	; 0x3f62 <_ZN6XTimerD1Ev>
    4040:	08 95       	ret

00004042 <_ZN5XUartD1Ev>:

size_t XUart::write(const char* str)
{
    if (str == NULL) return 0;
    return write((const uint8_t*)str, strlen(str));
}
    4042:	08 95       	ret

00004044 <_ZN5XUartD0Ev>:
    4044:	c3 c1       	rjmp	.+902    	; 0x43cc <_ZdlPv>
    4046:	08 95       	ret

00004048 <_ZN5XUart5beginEm>:
    4048:	cf 93       	push	r28
    404a:	df 93       	push	r29
    404c:	ec 01       	movw	r28, r24
    404e:	9a 01       	movw	r18, r20
    4050:	ab 01       	movw	r20, r22
    4052:	60 e8       	ldi	r22, 0x80	; 128
    4054:	74 e8       	ldi	r23, 0x84	; 132
    4056:	8e e1       	ldi	r24, 0x1E	; 30
    4058:	90 e0       	ldi	r25, 0x00	; 0
    405a:	45 d5       	rcall	.+2698   	; 0x4ae6 <__udivmodsi4>
    405c:	da 01       	movw	r26, r20
    405e:	c9 01       	movw	r24, r18
    4060:	01 97       	sbiw	r24, 0x01	; 1
    4062:	a1 09       	sbc	r26, r1
    4064:	b1 09       	sbc	r27, r1
    4066:	ac 01       	movw	r20, r24
    4068:	bd 01       	movw	r22, r26
    406a:	76 95       	lsr	r23
    406c:	67 95       	ror	r22
    406e:	57 95       	ror	r21
    4070:	47 95       	ror	r20
    4072:	85 2f       	mov	r24, r21
    4074:	99 27       	eor	r25, r25
    4076:	80 93 90 00 	sts	0x0090, r24	; 0x800090 <__TEXT_REGION_LENGTH__+0x7e0090>
    407a:	49 b9       	out	0x09, r20	; 9
    407c:	54 9a       	sbi	0x0a, 4	; 10
    407e:	53 9a       	sbi	0x0a, 3	; 10
    4080:	57 9a       	sbi	0x0a, 7	; 10
    4082:	55 9a       	sbi	0x0a, 5	; 10
    4084:	1a 82       	std	Y+2, r1	; 0x02
    4086:	1b 82       	std	Y+3, r1	; 0x03
    4088:	81 e0       	ldi	r24, 0x01	; 1
    408a:	90 e0       	ldi	r25, 0x00	; 0
    408c:	df 91       	pop	r29
    408e:	cf 91       	pop	r28
    4090:	08 95       	ret

00004092 <_ZN5XUart9availableEv>:
    4092:	fc 01       	movw	r30, r24
    4094:	92 81       	ldd	r25, Z+2	; 0x02
    4096:	89 2f       	mov	r24, r25
    4098:	90 e0       	ldi	r25, 0x00	; 0
    409a:	80 5c       	subi	r24, 0xC0	; 192
    409c:	9f 4f       	sbci	r25, 0xFF	; 255
    409e:	23 81       	ldd	r18, Z+3	; 0x03
    40a0:	82 1b       	sub	r24, r18
    40a2:	91 09       	sbc	r25, r1
    40a4:	8f 73       	andi	r24, 0x3F	; 63
    40a6:	90 78       	andi	r25, 0x80	; 128
    40a8:	99 23       	and	r25, r25
    40aa:	24 f4       	brge	.+8      	; 0x40b4 <_ZN5XUart9availableEv+0x22>
    40ac:	01 97       	sbiw	r24, 0x01	; 1
    40ae:	80 6c       	ori	r24, 0xC0	; 192
    40b0:	9f 6f       	ori	r25, 0xFF	; 255
    40b2:	01 96       	adiw	r24, 0x01	; 1
    40b4:	08 95       	ret

000040b6 <_ZN5XUart4peekEv>:
    40b6:	fc 01       	movw	r30, r24
    40b8:	23 81       	ldd	r18, Z+3	; 0x03
    40ba:	32 81       	ldd	r19, Z+2	; 0x02
    40bc:	32 17       	cp	r19, r18
    40be:	29 f0       	breq	.+10     	; 0x40ca <_ZN5XUart4peekEv+0x14>
    40c0:	e2 0f       	add	r30, r18
    40c2:	f1 1d       	adc	r31, r1
    40c4:	84 81       	ldd	r24, Z+4	; 0x04
    40c6:	90 e0       	ldi	r25, 0x00	; 0
    40c8:	08 95       	ret
    40ca:	8f ef       	ldi	r24, 0xFF	; 255
    40cc:	9f ef       	ldi	r25, 0xFF	; 255
    40ce:	08 95       	ret

000040d0 <_ZN5XUart4readEv>:
    40d0:	fc 01       	movw	r30, r24
    40d2:	23 81       	ldd	r18, Z+3	; 0x03
    40d4:	82 81       	ldd	r24, Z+2	; 0x02
    40d6:	82 17       	cp	r24, r18
    40d8:	a9 f0       	breq	.+42     	; 0x4104 <_ZN5XUart4readEv+0x34>
    40da:	30 e0       	ldi	r19, 0x00	; 0
    40dc:	df 01       	movw	r26, r30
    40de:	a2 0f       	add	r26, r18
    40e0:	b3 1f       	adc	r27, r19
    40e2:	14 96       	adiw	r26, 0x04	; 4
    40e4:	8c 91       	ld	r24, X
    40e6:	2f 5f       	subi	r18, 0xFF	; 255
    40e8:	3f 4f       	sbci	r19, 0xFF	; 255
    40ea:	2f 73       	andi	r18, 0x3F	; 63
    40ec:	30 78       	andi	r19, 0x80	; 128
    40ee:	33 23       	and	r19, r19
    40f0:	34 f4       	brge	.+12     	; 0x40fe <_ZN5XUart4readEv+0x2e>
    40f2:	21 50       	subi	r18, 0x01	; 1
    40f4:	31 09       	sbc	r19, r1
    40f6:	20 6c       	ori	r18, 0xC0	; 192
    40f8:	3f 6f       	ori	r19, 0xFF	; 255
    40fa:	2f 5f       	subi	r18, 0xFF	; 255
    40fc:	3f 4f       	sbci	r19, 0xFF	; 255
    40fe:	23 83       	std	Z+3, r18	; 0x03
    4100:	90 e0       	ldi	r25, 0x00	; 0
    4102:	08 95       	ret
    4104:	8f ef       	ldi	r24, 0xFF	; 255
    4106:	9f ef       	ldi	r25, 0xFF	; 255
    4108:	08 95       	ret

0000410a <_ZN5XUart5rxIsrEv>:
    410a:	5a 99       	sbic	0x0b, 2	; 11
    410c:	21 c0       	rjmp	.+66     	; 0x4150 <_ZN5XUart5rxIsrEv+0x46>
    410e:	ec b1       	in	r30, 0x0c	; 12
    4110:	dc 01       	movw	r26, r24
    4112:	12 96       	adiw	r26, 0x02	; 2
    4114:	4c 91       	ld	r20, X
    4116:	50 e0       	ldi	r21, 0x00	; 0
    4118:	9a 01       	movw	r18, r20
    411a:	2f 5f       	subi	r18, 0xFF	; 255
    411c:	3f 4f       	sbci	r19, 0xFF	; 255
    411e:	2f 73       	andi	r18, 0x3F	; 63
    4120:	30 78       	andi	r19, 0x80	; 128
    4122:	33 23       	and	r19, r19
    4124:	34 f4       	brge	.+12     	; 0x4132 <_ZN5XUart5rxIsrEv+0x28>
    4126:	21 50       	subi	r18, 0x01	; 1
    4128:	31 09       	sbc	r19, r1
    412a:	20 6c       	ori	r18, 0xC0	; 192
    412c:	3f 6f       	ori	r19, 0xFF	; 255
    412e:	2f 5f       	subi	r18, 0xFF	; 255
    4130:	3f 4f       	sbci	r19, 0xFF	; 255
    4132:	dc 01       	movw	r26, r24
    4134:	13 96       	adiw	r26, 0x03	; 3
    4136:	6c 91       	ld	r22, X
    4138:	13 97       	sbiw	r26, 0x03	; 3
    413a:	70 e0       	ldi	r23, 0x00	; 0
    413c:	26 17       	cp	r18, r22
    413e:	37 07       	cpc	r19, r23
    4140:	41 f0       	breq	.+16     	; 0x4152 <_ZN5XUart5rxIsrEv+0x48>
    4142:	a4 0f       	add	r26, r20
    4144:	b5 1f       	adc	r27, r21
    4146:	14 96       	adiw	r26, 0x04	; 4
    4148:	ec 93       	st	X, r30
    414a:	fc 01       	movw	r30, r24
    414c:	22 83       	std	Z+2, r18	; 0x02
    414e:	08 95       	ret
    4150:	8c b1       	in	r24, 0x0c	; 12
    4152:	08 95       	ret

00004154 <__vector_18>:
    4154:	1f 92       	push	r1
    4156:	0f 92       	push	r0
    4158:	0f b6       	in	r0, 0x3f	; 63
    415a:	0f 92       	push	r0
    415c:	11 24       	eor	r1, r1
    415e:	0b b6       	in	r0, 0x3b	; 59
    4160:	0f 92       	push	r0
    4162:	2f 93       	push	r18
    4164:	3f 93       	push	r19
    4166:	4f 93       	push	r20
    4168:	5f 93       	push	r21
    416a:	6f 93       	push	r22
    416c:	7f 93       	push	r23
    416e:	8f 93       	push	r24
    4170:	9f 93       	push	r25
    4172:	af 93       	push	r26
    4174:	bf 93       	push	r27
    4176:	ef 93       	push	r30
    4178:	ff 93       	push	r31
    417a:	82 e2       	ldi	r24, 0x22	; 34
    417c:	95 e0       	ldi	r25, 0x05	; 5
    417e:	c5 df       	rcall	.-118    	; 0x410a <_ZN5XUart5rxIsrEv>
    4180:	ff 91       	pop	r31
    4182:	ef 91       	pop	r30
    4184:	bf 91       	pop	r27
    4186:	af 91       	pop	r26
    4188:	9f 91       	pop	r25
    418a:	8f 91       	pop	r24
    418c:	7f 91       	pop	r23
    418e:	6f 91       	pop	r22
    4190:	5f 91       	pop	r21
    4192:	4f 91       	pop	r20
    4194:	3f 91       	pop	r19
    4196:	2f 91       	pop	r18
    4198:	0f 90       	pop	r0
    419a:	0b be       	out	0x3b, r0	; 59
    419c:	0f 90       	pop	r0
    419e:	0f be       	out	0x3f, r0	; 63
    41a0:	0f 90       	pop	r0
    41a2:	1f 90       	pop	r1
    41a4:	18 95       	reti

000041a6 <_ZN5XUart5txIsrEv>:
    41a6:	dc 01       	movw	r26, r24
    41a8:	ab 5b       	subi	r26, 0xBB	; 187
    41aa:	bf 4f       	sbci	r27, 0xFF	; 255
    41ac:	2c 91       	ld	r18, X
    41ae:	30 e0       	ldi	r19, 0x00	; 0
    41b0:	fc 01       	movw	r30, r24
    41b2:	e2 0f       	add	r30, r18
    41b4:	f3 1f       	adc	r31, r19
    41b6:	ea 5b       	subi	r30, 0xBA	; 186
    41b8:	ff 4f       	sbci	r31, 0xFF	; 255
    41ba:	40 81       	ld	r20, Z
    41bc:	2f 5f       	subi	r18, 0xFF	; 255
    41be:	3f 4f       	sbci	r19, 0xFF	; 255
    41c0:	2f 73       	andi	r18, 0x3F	; 63
    41c2:	30 78       	andi	r19, 0x80	; 128
    41c4:	33 23       	and	r19, r19
    41c6:	34 f4       	brge	.+12     	; 0x41d4 <_ZN5XUart5txIsrEv+0x2e>
    41c8:	21 50       	subi	r18, 0x01	; 1
    41ca:	31 09       	sbc	r19, r1
    41cc:	20 6c       	ori	r18, 0xC0	; 192
    41ce:	3f 6f       	ori	r19, 0xFF	; 255
    41d0:	2f 5f       	subi	r18, 0xFF	; 255
    41d2:	3f 4f       	sbci	r19, 0xFF	; 255
    41d4:	2c 93       	st	X, r18
    41d6:	4c b9       	out	0x0c, r20	; 12
    41d8:	2b b1       	in	r18, 0x0b	; 11
    41da:	20 74       	andi	r18, 0x40	; 64
    41dc:	2b b9       	out	0x0b, r18	; 11
    41de:	fc 01       	movw	r30, r24
    41e0:	ec 5b       	subi	r30, 0xBC	; 188
    41e2:	ff 4f       	sbci	r31, 0xFF	; 255
    41e4:	dc 01       	movw	r26, r24
    41e6:	ab 5b       	subi	r26, 0xBB	; 187
    41e8:	bf 4f       	sbci	r27, 0xFF	; 255
    41ea:	20 81       	ld	r18, Z
    41ec:	8c 91       	ld	r24, X
    41ee:	28 13       	cpse	r18, r24
    41f0:	01 c0       	rjmp	.+2      	; 0x41f4 <_ZN5XUart5txIsrEv+0x4e>
    41f2:	55 98       	cbi	0x0a, 5	; 10
    41f4:	08 95       	ret

000041f6 <__vector_19>:
    41f6:	1f 92       	push	r1
    41f8:	0f 92       	push	r0
    41fa:	0f b6       	in	r0, 0x3f	; 63
    41fc:	0f 92       	push	r0
    41fe:	11 24       	eor	r1, r1
    4200:	0b b6       	in	r0, 0x3b	; 59
    4202:	0f 92       	push	r0
    4204:	2f 93       	push	r18
    4206:	3f 93       	push	r19
    4208:	4f 93       	push	r20
    420a:	5f 93       	push	r21
    420c:	6f 93       	push	r22
    420e:	7f 93       	push	r23
    4210:	8f 93       	push	r24
    4212:	9f 93       	push	r25
    4214:	af 93       	push	r26
    4216:	bf 93       	push	r27
    4218:	ef 93       	push	r30
    421a:	ff 93       	push	r31
    421c:	82 e2       	ldi	r24, 0x22	; 34
    421e:	95 e0       	ldi	r25, 0x05	; 5
    4220:	c2 df       	rcall	.-124    	; 0x41a6 <_ZN5XUart5txIsrEv>
    4222:	ff 91       	pop	r31
    4224:	ef 91       	pop	r30
    4226:	bf 91       	pop	r27
    4228:	af 91       	pop	r26
    422a:	9f 91       	pop	r25
    422c:	8f 91       	pop	r24
    422e:	7f 91       	pop	r23
    4230:	6f 91       	pop	r22
    4232:	5f 91       	pop	r21
    4234:	4f 91       	pop	r20
    4236:	3f 91       	pop	r19
    4238:	2f 91       	pop	r18
    423a:	0f 90       	pop	r0
    423c:	0b be       	out	0x3b, r0	; 59
    423e:	0f 90       	pop	r0
    4240:	0f be       	out	0x3f, r0	; 63
    4242:	0f 90       	pop	r0
    4244:	1f 90       	pop	r1
    4246:	18 95       	reti

00004248 <_ZN5XUart5writeEh>:
    4248:	ef 92       	push	r14
    424a:	ff 92       	push	r15
    424c:	0f 93       	push	r16
    424e:	1f 93       	push	r17
    4250:	cf 93       	push	r28
    4252:	df 93       	push	r29
    4254:	fc 01       	movw	r30, r24
    4256:	ea 57       	subi	r30, 0x7A	; 122
    4258:	ff 4f       	sbci	r31, 0xFF	; 255
    425a:	21 e0       	ldi	r18, 0x01	; 1
    425c:	20 83       	st	Z, r18
    425e:	e2 54       	subi	r30, 0x42	; 66
    4260:	f1 09       	sbc	r31, r1
    4262:	20 81       	ld	r18, Z
    4264:	31 96       	adiw	r30, 0x01	; 1
    4266:	30 81       	ld	r19, Z
    4268:	23 13       	cpse	r18, r19
    426a:	1e c0       	rjmp	.+60     	; 0x42a8 <_ZN5XUart5writeEh+0x60>
    426c:	5d 99       	sbic	0x0b, 5	; 11
    426e:	31 c0       	rjmp	.+98     	; 0x42d2 <_ZN5XUart5writeEh+0x8a>
    4270:	1b c0       	rjmp	.+54     	; 0x42a8 <_ZN5XUart5writeEh+0x60>
    4272:	f7 01       	movw	r30, r14
    4274:	80 81       	ld	r24, Z
    4276:	18 13       	cpse	r17, r24
    4278:	08 c0       	rjmp	.+16     	; 0x428a <_ZN5XUart5writeEh+0x42>
    427a:	0f b6       	in	r0, 0x3f	; 63
    427c:	07 fc       	sbrc	r0, 7
    427e:	fd cf       	rjmp	.-6      	; 0x427a <_ZN5XUart5writeEh+0x32>
    4280:	5d 9b       	sbis	0x0b, 5	; 11
    4282:	f9 cf       	rjmp	.-14     	; 0x4276 <_ZN5XUart5writeEh+0x2e>
    4284:	ce 01       	movw	r24, r28
    4286:	8f df       	rcall	.-226    	; 0x41a6 <_ZN5XUart5txIsrEv>
    4288:	f4 cf       	rjmp	.-24     	; 0x4272 <_ZN5XUart5writeEh+0x2a>
    428a:	fe 01       	movw	r30, r28
    428c:	ec 5b       	subi	r30, 0xBC	; 188
    428e:	ff 4f       	sbci	r31, 0xFF	; 255
    4290:	80 81       	ld	r24, Z
    4292:	c8 0f       	add	r28, r24
    4294:	d1 1d       	adc	r29, r1
    4296:	ca 5b       	subi	r28, 0xBA	; 186
    4298:	df 4f       	sbci	r29, 0xFF	; 255
    429a:	08 83       	st	Y, r16
    429c:	8f b7       	in	r24, 0x3f	; 63
    429e:	f8 94       	cli
    42a0:	10 83       	st	Z, r17
    42a2:	55 9a       	sbi	0x0a, 5	; 10
    42a4:	8f bf       	out	0x3f, r24	; 63
    42a6:	1c c0       	rjmp	.+56     	; 0x42e0 <_ZN5XUart5writeEh+0x98>
    42a8:	30 e0       	ldi	r19, 0x00	; 0
    42aa:	2f 5f       	subi	r18, 0xFF	; 255
    42ac:	3f 4f       	sbci	r19, 0xFF	; 255
    42ae:	2f 73       	andi	r18, 0x3F	; 63
    42b0:	30 78       	andi	r19, 0x80	; 128
    42b2:	33 23       	and	r19, r19
    42b4:	34 f4       	brge	.+12     	; 0x42c2 <_ZN5XUart5writeEh+0x7a>
    42b6:	21 50       	subi	r18, 0x01	; 1
    42b8:	31 09       	sbc	r19, r1
    42ba:	20 6c       	ori	r18, 0xC0	; 192
    42bc:	3f 6f       	ori	r19, 0xFF	; 255
    42be:	2f 5f       	subi	r18, 0xFF	; 255
    42c0:	3f 4f       	sbci	r19, 0xFF	; 255
    42c2:	06 2f       	mov	r16, r22
    42c4:	ec 01       	movw	r28, r24
    42c6:	12 2f       	mov	r17, r18
    42c8:	7c 01       	movw	r14, r24
    42ca:	f5 e4       	ldi	r31, 0x45	; 69
    42cc:	ef 0e       	add	r14, r31
    42ce:	f1 1c       	adc	r15, r1
    42d0:	d0 cf       	rjmp	.-96     	; 0x4272 <_ZN5XUart5writeEh+0x2a>
    42d2:	9f b7       	in	r25, 0x3f	; 63
    42d4:	f8 94       	cli
    42d6:	6c b9       	out	0x0c, r22	; 12
    42d8:	8b b1       	in	r24, 0x0b	; 11
    42da:	80 74       	andi	r24, 0x40	; 64
    42dc:	8b b9       	out	0x0b, r24	; 11
    42de:	9f bf       	out	0x3f, r25	; 63
    42e0:	81 e0       	ldi	r24, 0x01	; 1
    42e2:	90 e0       	ldi	r25, 0x00	; 0
    42e4:	df 91       	pop	r29
    42e6:	cf 91       	pop	r28
    42e8:	1f 91       	pop	r17
    42ea:	0f 91       	pop	r16
    42ec:	ff 90       	pop	r15
    42ee:	ef 90       	pop	r14
    42f0:	08 95       	ret

000042f2 <_ZN5XUart5writeEPKhj>:
    42f2:	cf 92       	push	r12
    42f4:	df 92       	push	r13
    42f6:	ef 92       	push	r14
    42f8:	ff 92       	push	r15
    42fa:	0f 93       	push	r16
    42fc:	1f 93       	push	r17
    42fe:	cf 93       	push	r28
    4300:	df 93       	push	r29
    4302:	41 15       	cp	r20, r1
    4304:	51 05       	cpc	r21, r1
    4306:	91 f0       	breq	.+36     	; 0x432c <_ZN5XUart5writeEPKhj+0x3a>
    4308:	7a 01       	movw	r14, r20
    430a:	6c 01       	movw	r12, r24
    430c:	06 2f       	mov	r16, r22
    430e:	17 2f       	mov	r17, r23
    4310:	c0 e0       	ldi	r28, 0x00	; 0
    4312:	d0 e0       	ldi	r29, 0x00	; 0
    4314:	f8 01       	movw	r30, r16
    4316:	61 91       	ld	r22, Z+
    4318:	8f 01       	movw	r16, r30
    431a:	c6 01       	movw	r24, r12
    431c:	95 df       	rcall	.-214    	; 0x4248 <_ZN5XUart5writeEh>
    431e:	89 2b       	or	r24, r25
    4320:	39 f0       	breq	.+14     	; 0x4330 <_ZN5XUart5writeEPKhj+0x3e>
    4322:	21 96       	adiw	r28, 0x01	; 1
    4324:	ec 16       	cp	r14, r28
    4326:	fd 06       	cpc	r15, r29
    4328:	a9 f7       	brne	.-22     	; 0x4314 <_ZN5XUart5writeEPKhj+0x22>
    432a:	02 c0       	rjmp	.+4      	; 0x4330 <_ZN5XUart5writeEPKhj+0x3e>
    432c:	c0 e0       	ldi	r28, 0x00	; 0
    432e:	d0 e0       	ldi	r29, 0x00	; 0
    4330:	ce 01       	movw	r24, r28
    4332:	df 91       	pop	r29
    4334:	cf 91       	pop	r28
    4336:	1f 91       	pop	r17
    4338:	0f 91       	pop	r16
    433a:	ff 90       	pop	r15
    433c:	ef 90       	pop	r14
    433e:	df 90       	pop	r13
    4340:	cf 90       	pop	r12
    4342:	08 95       	ret

00004344 <_ZN5XUart5flushEv>:

void XUart::flush()
{
    4344:	ef 92       	push	r14
    4346:	ff 92       	push	r15
    4348:	0f 93       	push	r16
    434a:	1f 93       	push	r17
    434c:	cf 93       	push	r28
    434e:	df 93       	push	r29
    if (!m_tx_flag) return;
    4350:	fc 01       	movw	r30, r24
    4352:	ea 57       	subi	r30, 0x7A	; 122
    4354:	ff 4f       	sbci	r31, 0xFF	; 255
    4356:	20 81       	ld	r18, Z
    4358:	22 23       	and	r18, r18
    435a:	d9 f0       	breq	.+54     	; 0x4392 <_ZN5XUart5flushEv+0x4e>
    435c:	7c 01       	movw	r14, r24
    while (bit_is_set(UCSR1B, UDRIE1) || bit_is_clear(UCSR1A, TXC1)) {
    435e:	ca e9       	ldi	r28, 0x9A	; 154
    4360:	d0 e0       	ldi	r29, 0x00	; 0
    4362:	0b e9       	ldi	r16, 0x9B	; 155
    4364:	10 e0       	ldi	r17, 0x00	; 0
    4366:	98 81       	ld	r25, Y
    4368:	95 fd       	sbrc	r25, 5
    436a:	04 c0       	rjmp	.+8      	; 0x4374 <_ZN5XUart5flushEv+0x30>
    436c:	f8 01       	movw	r30, r16
    436e:	80 81       	ld	r24, Z
    4370:	86 fd       	sbrc	r24, 6
    4372:	0f c0       	rjmp	.+30     	; 0x4392 <_ZN5XUart5flushEv+0x4e>
        if (bit_is_clear(SREG, SREG_I) && bit_is_set(UCSR1B, UDRIE1)) {
    4374:	0f b6       	in	r0, 0x3f	; 63
    4376:	07 fc       	sbrc	r0, 7
    4378:	f6 cf       	rjmp	.-20     	; 0x4366 <_ZN5XUart5flushEv+0x22>
    437a:	98 81       	ld	r25, Y
    437c:	95 ff       	sbrs	r25, 5
    437e:	f3 cf       	rjmp	.-26     	; 0x4366 <_ZN5XUart5flushEv+0x22>
    4380:	03 c0       	rjmp	.+6      	; 0x4388 <_ZN5XUart5flushEv+0x44>
            if (bit_is_set(UCSR1A, UDRE1)) {
                txIsr();
    4382:	c7 01       	movw	r24, r14
    4384:	10 df       	rcall	.-480    	; 0x41a6 <_ZN5XUart5txIsrEv>
    4386:	ef cf       	rjmp	.-34     	; 0x4366 <_ZN5XUart5flushEv+0x22>
void XUart::flush()
{
    if (!m_tx_flag) return;
    while (bit_is_set(UCSR1B, UDRIE1) || bit_is_clear(UCSR1A, TXC1)) {
        if (bit_is_clear(SREG, SREG_I) && bit_is_set(UCSR1B, UDRIE1)) {
            if (bit_is_set(UCSR1A, UDRE1)) {
    4388:	f8 01       	movw	r30, r16
    438a:	80 81       	ld	r24, Z
    438c:	85 ff       	sbrs	r24, 5
    438e:	eb cf       	rjmp	.-42     	; 0x4366 <_ZN5XUart5flushEv+0x22>
    4390:	f8 cf       	rjmp	.-16     	; 0x4382 <_ZN5XUart5flushEv+0x3e>
                txIsr();
            }
        }
    }
}
    4392:	df 91       	pop	r29
    4394:	cf 91       	pop	r28
    4396:	1f 91       	pop	r17
    4398:	0f 91       	pop	r16
    439a:	ff 90       	pop	r15
    439c:	ef 90       	pop	r14
    439e:	08 95       	ret

000043a0 <_ZN5XUart3endEv>:
    m_rx_tail = 0;
    return 1;
}

void XUart::end()
{
    43a0:	cf 93       	push	r28
    43a2:	df 93       	push	r29
    43a4:	ec 01       	movw	r28, r24
    flush();
    43a6:	ce df       	rcall	.-100    	; 0x4344 <_ZN5XUart5flushEv>
    cbi(UCSR0B, RXEN0);
    43a8:	54 98       	cbi	0x0a, 4	; 10
    cbi(UCSR0B, TXEN0);
    43aa:	53 98       	cbi	0x0a, 3	; 10
    cbi(UCSR0B, RXCIE0);
    43ac:	57 98       	cbi	0x0a, 7	; 10
    cbi(UCSR0B, UDRIE0);
    43ae:	55 98       	cbi	0x0a, 5	; 10
    m_rx_head = 0;
    43b0:	1a 82       	std	Y+2, r1	; 0x02
    m_rx_tail = 0;
    43b2:	1b 82       	std	Y+3, r1	; 0x03
}
    43b4:	df 91       	pop	r29
    43b6:	cf 91       	pop	r28
    43b8:	08 95       	ret

000043ba <_GLOBAL__sub_I___vector_18>:

ISR(USART0_UDRE_vect) {
    g_uart.txIsr();
}

XUart::XUart()
    43ba:	80 e2       	ldi	r24, 0x20	; 32
    43bc:	92 e0       	ldi	r25, 0x02	; 2
    43be:	90 93 23 05 	sts	0x0523, r25	; 0x800523 <g_uart+0x1>
    43c2:	80 93 22 05 	sts	0x0522, r24	; 0x800522 <g_uart>
    43c6:	08 95       	ret

000043c8 <_Znwj>:

#include "system/XUtil.h"

void* operator new(size_t n)
{
    void* const p = malloc(n);
    43c8:	b9 c3       	rjmp	.+1906   	; 0x4b3c <malloc>
    return p;
}
    43ca:	08 95       	ret

000043cc <_ZdlPv>:

void operator delete(void* p)
{
    free(p);
    43cc:	4f c4       	rjmp	.+2206   	; 0x4c6c <free>
    43ce:	08 95       	ret

000043d0 <_Z3mapjjjjj>:
}

unsigned int map(
unsigned int x, unsigned int x_min, unsigned int x_max, 
unsigned int y_min, unsigned int y_max)
{
    43d0:	c9 01       	movw	r24, r18
    unsigned int y = ((x - x_min) * (y_max - y_max) / (x_max - x_min)) + y_min;
    return y;
}
    43d2:	08 95       	ret

000043d4 <vfprintf>:
    43d4:	2f 92       	push	r2
    43d6:	3f 92       	push	r3
    43d8:	4f 92       	push	r4
    43da:	5f 92       	push	r5
    43dc:	6f 92       	push	r6
    43de:	7f 92       	push	r7
    43e0:	8f 92       	push	r8
    43e2:	9f 92       	push	r9
    43e4:	af 92       	push	r10
    43e6:	bf 92       	push	r11
    43e8:	cf 92       	push	r12
    43ea:	df 92       	push	r13
    43ec:	ef 92       	push	r14
    43ee:	ff 92       	push	r15
    43f0:	0f 93       	push	r16
    43f2:	1f 93       	push	r17
    43f4:	cf 93       	push	r28
    43f6:	df 93       	push	r29
    43f8:	cd b7       	in	r28, 0x3d	; 61
    43fa:	de b7       	in	r29, 0x3e	; 62
    43fc:	60 97       	sbiw	r28, 0x10	; 16
    43fe:	0f b6       	in	r0, 0x3f	; 63
    4400:	f8 94       	cli
    4402:	de bf       	out	0x3e, r29	; 62
    4404:	0f be       	out	0x3f, r0	; 63
    4406:	cd bf       	out	0x3d, r28	; 61
    4408:	7c 01       	movw	r14, r24
    440a:	1b 01       	movw	r2, r22
    440c:	6a 01       	movw	r12, r20
    440e:	fc 01       	movw	r30, r24
    4410:	17 82       	std	Z+7, r1	; 0x07
    4412:	16 82       	std	Z+6, r1	; 0x06
    4414:	83 81       	ldd	r24, Z+3	; 0x03
    4416:	81 ff       	sbrs	r24, 1
    4418:	2a c3       	rjmp	.+1620   	; 0x4a6e <vfprintf+0x69a>
    441a:	9e 01       	movw	r18, r28
    441c:	2f 5f       	subi	r18, 0xFF	; 255
    441e:	3f 4f       	sbci	r19, 0xFF	; 255
    4420:	39 01       	movw	r6, r18
    4422:	f7 01       	movw	r30, r14
    4424:	93 81       	ldd	r25, Z+3	; 0x03
    4426:	f1 01       	movw	r30, r2
    4428:	93 fd       	sbrc	r25, 3
    442a:	85 91       	lpm	r24, Z+
    442c:	93 ff       	sbrs	r25, 3
    442e:	81 91       	ld	r24, Z+
    4430:	1f 01       	movw	r2, r30
    4432:	88 23       	and	r24, r24
    4434:	09 f4       	brne	.+2      	; 0x4438 <vfprintf+0x64>
    4436:	17 c3       	rjmp	.+1582   	; 0x4a66 <vfprintf+0x692>
    4438:	85 32       	cpi	r24, 0x25	; 37
    443a:	39 f4       	brne	.+14     	; 0x444a <vfprintf+0x76>
    443c:	93 fd       	sbrc	r25, 3
    443e:	85 91       	lpm	r24, Z+
    4440:	93 ff       	sbrs	r25, 3
    4442:	81 91       	ld	r24, Z+
    4444:	1f 01       	movw	r2, r30
    4446:	85 32       	cpi	r24, 0x25	; 37
    4448:	31 f4       	brne	.+12     	; 0x4456 <vfprintf+0x82>
    444a:	b7 01       	movw	r22, r14
    444c:	90 e0       	ldi	r25, 0x00	; 0
    444e:	94 d7       	rcall	.+3880   	; 0x5378 <fputc>
    4450:	56 01       	movw	r10, r12
    4452:	65 01       	movw	r12, r10
    4454:	e6 cf       	rjmp	.-52     	; 0x4422 <vfprintf+0x4e>
    4456:	10 e0       	ldi	r17, 0x00	; 0
    4458:	51 2c       	mov	r5, r1
    445a:	91 2c       	mov	r9, r1
    445c:	ff e1       	ldi	r31, 0x1F	; 31
    445e:	f9 15       	cp	r31, r9
    4460:	d8 f0       	brcs	.+54     	; 0x4498 <vfprintf+0xc4>
    4462:	8b 32       	cpi	r24, 0x2B	; 43
    4464:	79 f0       	breq	.+30     	; 0x4484 <vfprintf+0xb0>
    4466:	38 f4       	brcc	.+14     	; 0x4476 <vfprintf+0xa2>
    4468:	80 32       	cpi	r24, 0x20	; 32
    446a:	79 f0       	breq	.+30     	; 0x448a <vfprintf+0xb6>
    446c:	83 32       	cpi	r24, 0x23	; 35
    446e:	a1 f4       	brne	.+40     	; 0x4498 <vfprintf+0xc4>
    4470:	f9 2d       	mov	r31, r9
    4472:	f0 61       	ori	r31, 0x10	; 16
    4474:	2e c0       	rjmp	.+92     	; 0x44d2 <vfprintf+0xfe>
    4476:	8d 32       	cpi	r24, 0x2D	; 45
    4478:	61 f0       	breq	.+24     	; 0x4492 <vfprintf+0xbe>
    447a:	80 33       	cpi	r24, 0x30	; 48
    447c:	69 f4       	brne	.+26     	; 0x4498 <vfprintf+0xc4>
    447e:	29 2d       	mov	r18, r9
    4480:	21 60       	ori	r18, 0x01	; 1
    4482:	2d c0       	rjmp	.+90     	; 0x44de <vfprintf+0x10a>
    4484:	39 2d       	mov	r19, r9
    4486:	32 60       	ori	r19, 0x02	; 2
    4488:	93 2e       	mov	r9, r19
    448a:	89 2d       	mov	r24, r9
    448c:	84 60       	ori	r24, 0x04	; 4
    448e:	98 2e       	mov	r9, r24
    4490:	2a c0       	rjmp	.+84     	; 0x44e6 <vfprintf+0x112>
    4492:	e9 2d       	mov	r30, r9
    4494:	e8 60       	ori	r30, 0x08	; 8
    4496:	15 c0       	rjmp	.+42     	; 0x44c2 <vfprintf+0xee>
    4498:	97 fc       	sbrc	r9, 7
    449a:	2d c0       	rjmp	.+90     	; 0x44f6 <vfprintf+0x122>
    449c:	20 ed       	ldi	r18, 0xD0	; 208
    449e:	28 0f       	add	r18, r24
    44a0:	2a 30       	cpi	r18, 0x0A	; 10
    44a2:	88 f4       	brcc	.+34     	; 0x44c6 <vfprintf+0xf2>
    44a4:	96 fe       	sbrs	r9, 6
    44a6:	06 c0       	rjmp	.+12     	; 0x44b4 <vfprintf+0xe0>
    44a8:	3a e0       	ldi	r19, 0x0A	; 10
    44aa:	13 9f       	mul	r17, r19
    44ac:	20 0d       	add	r18, r0
    44ae:	11 24       	eor	r1, r1
    44b0:	12 2f       	mov	r17, r18
    44b2:	19 c0       	rjmp	.+50     	; 0x44e6 <vfprintf+0x112>
    44b4:	8a e0       	ldi	r24, 0x0A	; 10
    44b6:	58 9e       	mul	r5, r24
    44b8:	20 0d       	add	r18, r0
    44ba:	11 24       	eor	r1, r1
    44bc:	52 2e       	mov	r5, r18
    44be:	e9 2d       	mov	r30, r9
    44c0:	e0 62       	ori	r30, 0x20	; 32
    44c2:	9e 2e       	mov	r9, r30
    44c4:	10 c0       	rjmp	.+32     	; 0x44e6 <vfprintf+0x112>
    44c6:	8e 32       	cpi	r24, 0x2E	; 46
    44c8:	31 f4       	brne	.+12     	; 0x44d6 <vfprintf+0x102>
    44ca:	96 fc       	sbrc	r9, 6
    44cc:	cc c2       	rjmp	.+1432   	; 0x4a66 <vfprintf+0x692>
    44ce:	f9 2d       	mov	r31, r9
    44d0:	f0 64       	ori	r31, 0x40	; 64
    44d2:	9f 2e       	mov	r9, r31
    44d4:	08 c0       	rjmp	.+16     	; 0x44e6 <vfprintf+0x112>
    44d6:	8c 36       	cpi	r24, 0x6C	; 108
    44d8:	21 f4       	brne	.+8      	; 0x44e2 <vfprintf+0x10e>
    44da:	29 2d       	mov	r18, r9
    44dc:	20 68       	ori	r18, 0x80	; 128
    44de:	92 2e       	mov	r9, r18
    44e0:	02 c0       	rjmp	.+4      	; 0x44e6 <vfprintf+0x112>
    44e2:	88 36       	cpi	r24, 0x68	; 104
    44e4:	41 f4       	brne	.+16     	; 0x44f6 <vfprintf+0x122>
    44e6:	f1 01       	movw	r30, r2
    44e8:	93 fd       	sbrc	r25, 3
    44ea:	85 91       	lpm	r24, Z+
    44ec:	93 ff       	sbrs	r25, 3
    44ee:	81 91       	ld	r24, Z+
    44f0:	1f 01       	movw	r2, r30
    44f2:	81 11       	cpse	r24, r1
    44f4:	b3 cf       	rjmp	.-154    	; 0x445c <vfprintf+0x88>
    44f6:	9b eb       	ldi	r25, 0xBB	; 187
    44f8:	98 0f       	add	r25, r24
    44fa:	93 30       	cpi	r25, 0x03	; 3
    44fc:	20 f4       	brcc	.+8      	; 0x4506 <vfprintf+0x132>
    44fe:	99 2d       	mov	r25, r9
    4500:	90 61       	ori	r25, 0x10	; 16
    4502:	80 5e       	subi	r24, 0xE0	; 224
    4504:	07 c0       	rjmp	.+14     	; 0x4514 <vfprintf+0x140>
    4506:	9b e9       	ldi	r25, 0x9B	; 155
    4508:	98 0f       	add	r25, r24
    450a:	93 30       	cpi	r25, 0x03	; 3
    450c:	08 f0       	brcs	.+2      	; 0x4510 <vfprintf+0x13c>
    450e:	59 c1       	rjmp	.+690    	; 0x47c2 <vfprintf+0x3ee>
    4510:	99 2d       	mov	r25, r9
    4512:	9f 7e       	andi	r25, 0xEF	; 239
    4514:	96 ff       	sbrs	r25, 6
    4516:	16 e0       	ldi	r17, 0x06	; 6
    4518:	9f 73       	andi	r25, 0x3F	; 63
    451a:	99 2e       	mov	r9, r25
    451c:	85 36       	cpi	r24, 0x65	; 101
    451e:	19 f4       	brne	.+6      	; 0x4526 <vfprintf+0x152>
    4520:	90 64       	ori	r25, 0x40	; 64
    4522:	99 2e       	mov	r9, r25
    4524:	08 c0       	rjmp	.+16     	; 0x4536 <vfprintf+0x162>
    4526:	86 36       	cpi	r24, 0x66	; 102
    4528:	21 f4       	brne	.+8      	; 0x4532 <vfprintf+0x15e>
    452a:	39 2f       	mov	r19, r25
    452c:	30 68       	ori	r19, 0x80	; 128
    452e:	93 2e       	mov	r9, r19
    4530:	02 c0       	rjmp	.+4      	; 0x4536 <vfprintf+0x162>
    4532:	11 11       	cpse	r17, r1
    4534:	11 50       	subi	r17, 0x01	; 1
    4536:	97 fe       	sbrs	r9, 7
    4538:	07 c0       	rjmp	.+14     	; 0x4548 <vfprintf+0x174>
    453a:	1c 33       	cpi	r17, 0x3C	; 60
    453c:	50 f4       	brcc	.+20     	; 0x4552 <vfprintf+0x17e>
    453e:	44 24       	eor	r4, r4
    4540:	43 94       	inc	r4
    4542:	41 0e       	add	r4, r17
    4544:	27 e0       	ldi	r18, 0x07	; 7
    4546:	0b c0       	rjmp	.+22     	; 0x455e <vfprintf+0x18a>
    4548:	18 30       	cpi	r17, 0x08	; 8
    454a:	38 f0       	brcs	.+14     	; 0x455a <vfprintf+0x186>
    454c:	27 e0       	ldi	r18, 0x07	; 7
    454e:	17 e0       	ldi	r17, 0x07	; 7
    4550:	05 c0       	rjmp	.+10     	; 0x455c <vfprintf+0x188>
    4552:	27 e0       	ldi	r18, 0x07	; 7
    4554:	9c e3       	ldi	r25, 0x3C	; 60
    4556:	49 2e       	mov	r4, r25
    4558:	02 c0       	rjmp	.+4      	; 0x455e <vfprintf+0x18a>
    455a:	21 2f       	mov	r18, r17
    455c:	41 2c       	mov	r4, r1
    455e:	56 01       	movw	r10, r12
    4560:	84 e0       	ldi	r24, 0x04	; 4
    4562:	a8 0e       	add	r10, r24
    4564:	b1 1c       	adc	r11, r1
    4566:	f6 01       	movw	r30, r12
    4568:	60 81       	ld	r22, Z
    456a:	71 81       	ldd	r23, Z+1	; 0x01
    456c:	82 81       	ldd	r24, Z+2	; 0x02
    456e:	93 81       	ldd	r25, Z+3	; 0x03
    4570:	04 2d       	mov	r16, r4
    4572:	a3 01       	movw	r20, r6
    4574:	ee d5       	rcall	.+3036   	; 0x5152 <__ftoa_engine>
    4576:	6c 01       	movw	r12, r24
    4578:	f9 81       	ldd	r31, Y+1	; 0x01
    457a:	fc 87       	std	Y+12, r31	; 0x0c
    457c:	f0 ff       	sbrs	r31, 0
    457e:	02 c0       	rjmp	.+4      	; 0x4584 <vfprintf+0x1b0>
    4580:	f3 ff       	sbrs	r31, 3
    4582:	06 c0       	rjmp	.+12     	; 0x4590 <vfprintf+0x1bc>
    4584:	91 fc       	sbrc	r9, 1
    4586:	06 c0       	rjmp	.+12     	; 0x4594 <vfprintf+0x1c0>
    4588:	92 fe       	sbrs	r9, 2
    458a:	06 c0       	rjmp	.+12     	; 0x4598 <vfprintf+0x1c4>
    458c:	00 e2       	ldi	r16, 0x20	; 32
    458e:	05 c0       	rjmp	.+10     	; 0x459a <vfprintf+0x1c6>
    4590:	0d e2       	ldi	r16, 0x2D	; 45
    4592:	03 c0       	rjmp	.+6      	; 0x459a <vfprintf+0x1c6>
    4594:	0b e2       	ldi	r16, 0x2B	; 43
    4596:	01 c0       	rjmp	.+2      	; 0x459a <vfprintf+0x1c6>
    4598:	00 e0       	ldi	r16, 0x00	; 0
    459a:	8c 85       	ldd	r24, Y+12	; 0x0c
    459c:	8c 70       	andi	r24, 0x0C	; 12
    459e:	19 f0       	breq	.+6      	; 0x45a6 <vfprintf+0x1d2>
    45a0:	01 11       	cpse	r16, r1
    45a2:	43 c2       	rjmp	.+1158   	; 0x4a2a <vfprintf+0x656>
    45a4:	80 c2       	rjmp	.+1280   	; 0x4aa6 <vfprintf+0x6d2>
    45a6:	97 fe       	sbrs	r9, 7
    45a8:	10 c0       	rjmp	.+32     	; 0x45ca <vfprintf+0x1f6>
    45aa:	4c 0c       	add	r4, r12
    45ac:	fc 85       	ldd	r31, Y+12	; 0x0c
    45ae:	f4 ff       	sbrs	r31, 4
    45b0:	04 c0       	rjmp	.+8      	; 0x45ba <vfprintf+0x1e6>
    45b2:	8a 81       	ldd	r24, Y+2	; 0x02
    45b4:	81 33       	cpi	r24, 0x31	; 49
    45b6:	09 f4       	brne	.+2      	; 0x45ba <vfprintf+0x1e6>
    45b8:	4a 94       	dec	r4
    45ba:	14 14       	cp	r1, r4
    45bc:	74 f5       	brge	.+92     	; 0x461a <vfprintf+0x246>
    45be:	28 e0       	ldi	r18, 0x08	; 8
    45c0:	24 15       	cp	r18, r4
    45c2:	78 f5       	brcc	.+94     	; 0x4622 <vfprintf+0x24e>
    45c4:	88 e0       	ldi	r24, 0x08	; 8
    45c6:	48 2e       	mov	r4, r24
    45c8:	2c c0       	rjmp	.+88     	; 0x4622 <vfprintf+0x24e>
    45ca:	96 fc       	sbrc	r9, 6
    45cc:	2a c0       	rjmp	.+84     	; 0x4622 <vfprintf+0x24e>
    45ce:	81 2f       	mov	r24, r17
    45d0:	90 e0       	ldi	r25, 0x00	; 0
    45d2:	8c 15       	cp	r24, r12
    45d4:	9d 05       	cpc	r25, r13
    45d6:	9c f0       	brlt	.+38     	; 0x45fe <vfprintf+0x22a>
    45d8:	3c ef       	ldi	r19, 0xFC	; 252
    45da:	c3 16       	cp	r12, r19
    45dc:	3f ef       	ldi	r19, 0xFF	; 255
    45de:	d3 06       	cpc	r13, r19
    45e0:	74 f0       	brlt	.+28     	; 0x45fe <vfprintf+0x22a>
    45e2:	89 2d       	mov	r24, r9
    45e4:	80 68       	ori	r24, 0x80	; 128
    45e6:	98 2e       	mov	r9, r24
    45e8:	0a c0       	rjmp	.+20     	; 0x45fe <vfprintf+0x22a>
    45ea:	e2 e0       	ldi	r30, 0x02	; 2
    45ec:	f0 e0       	ldi	r31, 0x00	; 0
    45ee:	ec 0f       	add	r30, r28
    45f0:	fd 1f       	adc	r31, r29
    45f2:	e1 0f       	add	r30, r17
    45f4:	f1 1d       	adc	r31, r1
    45f6:	80 81       	ld	r24, Z
    45f8:	80 33       	cpi	r24, 0x30	; 48
    45fa:	19 f4       	brne	.+6      	; 0x4602 <vfprintf+0x22e>
    45fc:	11 50       	subi	r17, 0x01	; 1
    45fe:	11 11       	cpse	r17, r1
    4600:	f4 cf       	rjmp	.-24     	; 0x45ea <vfprintf+0x216>
    4602:	97 fe       	sbrs	r9, 7
    4604:	0e c0       	rjmp	.+28     	; 0x4622 <vfprintf+0x24e>
    4606:	44 24       	eor	r4, r4
    4608:	43 94       	inc	r4
    460a:	41 0e       	add	r4, r17
    460c:	81 2f       	mov	r24, r17
    460e:	90 e0       	ldi	r25, 0x00	; 0
    4610:	c8 16       	cp	r12, r24
    4612:	d9 06       	cpc	r13, r25
    4614:	2c f4       	brge	.+10     	; 0x4620 <vfprintf+0x24c>
    4616:	1c 19       	sub	r17, r12
    4618:	04 c0       	rjmp	.+8      	; 0x4622 <vfprintf+0x24e>
    461a:	44 24       	eor	r4, r4
    461c:	43 94       	inc	r4
    461e:	01 c0       	rjmp	.+2      	; 0x4622 <vfprintf+0x24e>
    4620:	10 e0       	ldi	r17, 0x00	; 0
    4622:	97 fe       	sbrs	r9, 7
    4624:	06 c0       	rjmp	.+12     	; 0x4632 <vfprintf+0x25e>
    4626:	1c 14       	cp	r1, r12
    4628:	1d 04       	cpc	r1, r13
    462a:	34 f4       	brge	.+12     	; 0x4638 <vfprintf+0x264>
    462c:	c6 01       	movw	r24, r12
    462e:	01 96       	adiw	r24, 0x01	; 1
    4630:	05 c0       	rjmp	.+10     	; 0x463c <vfprintf+0x268>
    4632:	85 e0       	ldi	r24, 0x05	; 5
    4634:	90 e0       	ldi	r25, 0x00	; 0
    4636:	02 c0       	rjmp	.+4      	; 0x463c <vfprintf+0x268>
    4638:	81 e0       	ldi	r24, 0x01	; 1
    463a:	90 e0       	ldi	r25, 0x00	; 0
    463c:	01 11       	cpse	r16, r1
    463e:	01 96       	adiw	r24, 0x01	; 1
    4640:	11 23       	and	r17, r17
    4642:	31 f0       	breq	.+12     	; 0x4650 <vfprintf+0x27c>
    4644:	21 2f       	mov	r18, r17
    4646:	30 e0       	ldi	r19, 0x00	; 0
    4648:	2f 5f       	subi	r18, 0xFF	; 255
    464a:	3f 4f       	sbci	r19, 0xFF	; 255
    464c:	82 0f       	add	r24, r18
    464e:	93 1f       	adc	r25, r19
    4650:	25 2d       	mov	r18, r5
    4652:	30 e0       	ldi	r19, 0x00	; 0
    4654:	82 17       	cp	r24, r18
    4656:	93 07       	cpc	r25, r19
    4658:	14 f4       	brge	.+4      	; 0x465e <vfprintf+0x28a>
    465a:	58 1a       	sub	r5, r24
    465c:	01 c0       	rjmp	.+2      	; 0x4660 <vfprintf+0x28c>
    465e:	51 2c       	mov	r5, r1
    4660:	89 2d       	mov	r24, r9
    4662:	89 70       	andi	r24, 0x09	; 9
    4664:	41 f4       	brne	.+16     	; 0x4676 <vfprintf+0x2a2>
    4666:	55 20       	and	r5, r5
    4668:	31 f0       	breq	.+12     	; 0x4676 <vfprintf+0x2a2>
    466a:	b7 01       	movw	r22, r14
    466c:	80 e2       	ldi	r24, 0x20	; 32
    466e:	90 e0       	ldi	r25, 0x00	; 0
    4670:	83 d6       	rcall	.+3334   	; 0x5378 <fputc>
    4672:	5a 94       	dec	r5
    4674:	f8 cf       	rjmp	.-16     	; 0x4666 <vfprintf+0x292>
    4676:	00 23       	and	r16, r16
    4678:	21 f0       	breq	.+8      	; 0x4682 <vfprintf+0x2ae>
    467a:	b7 01       	movw	r22, r14
    467c:	80 2f       	mov	r24, r16
    467e:	90 e0       	ldi	r25, 0x00	; 0
    4680:	7b d6       	rcall	.+3318   	; 0x5378 <fputc>
    4682:	93 fc       	sbrc	r9, 3
    4684:	08 c0       	rjmp	.+16     	; 0x4696 <vfprintf+0x2c2>
    4686:	55 20       	and	r5, r5
    4688:	31 f0       	breq	.+12     	; 0x4696 <vfprintf+0x2c2>
    468a:	b7 01       	movw	r22, r14
    468c:	80 e3       	ldi	r24, 0x30	; 48
    468e:	90 e0       	ldi	r25, 0x00	; 0
    4690:	73 d6       	rcall	.+3302   	; 0x5378 <fputc>
    4692:	5a 94       	dec	r5
    4694:	f8 cf       	rjmp	.-16     	; 0x4686 <vfprintf+0x2b2>
    4696:	97 fe       	sbrs	r9, 7
    4698:	4a c0       	rjmp	.+148    	; 0x472e <vfprintf+0x35a>
    469a:	46 01       	movw	r8, r12
    469c:	d7 fe       	sbrs	r13, 7
    469e:	02 c0       	rjmp	.+4      	; 0x46a4 <vfprintf+0x2d0>
    46a0:	81 2c       	mov	r8, r1
    46a2:	91 2c       	mov	r9, r1
    46a4:	c6 01       	movw	r24, r12
    46a6:	88 19       	sub	r24, r8
    46a8:	99 09       	sbc	r25, r9
    46aa:	f3 01       	movw	r30, r6
    46ac:	e8 0f       	add	r30, r24
    46ae:	f9 1f       	adc	r31, r25
    46b0:	fe 87       	std	Y+14, r31	; 0x0e
    46b2:	ed 87       	std	Y+13, r30	; 0x0d
    46b4:	96 01       	movw	r18, r12
    46b6:	24 19       	sub	r18, r4
    46b8:	31 09       	sbc	r19, r1
    46ba:	38 8b       	std	Y+16, r19	; 0x10
    46bc:	2f 87       	std	Y+15, r18	; 0x0f
    46be:	01 2f       	mov	r16, r17
    46c0:	10 e0       	ldi	r17, 0x00	; 0
    46c2:	11 95       	neg	r17
    46c4:	01 95       	neg	r16
    46c6:	11 09       	sbc	r17, r1
    46c8:	3f ef       	ldi	r19, 0xFF	; 255
    46ca:	83 16       	cp	r8, r19
    46cc:	93 06       	cpc	r9, r19
    46ce:	21 f4       	brne	.+8      	; 0x46d8 <vfprintf+0x304>
    46d0:	b7 01       	movw	r22, r14
    46d2:	8e e2       	ldi	r24, 0x2E	; 46
    46d4:	90 e0       	ldi	r25, 0x00	; 0
    46d6:	50 d6       	rcall	.+3232   	; 0x5378 <fputc>
    46d8:	c8 14       	cp	r12, r8
    46da:	d9 04       	cpc	r13, r9
    46dc:	4c f0       	brlt	.+18     	; 0x46f0 <vfprintf+0x31c>
    46de:	8f 85       	ldd	r24, Y+15	; 0x0f
    46e0:	98 89       	ldd	r25, Y+16	; 0x10
    46e2:	88 15       	cp	r24, r8
    46e4:	99 05       	cpc	r25, r9
    46e6:	24 f4       	brge	.+8      	; 0x46f0 <vfprintf+0x31c>
    46e8:	ed 85       	ldd	r30, Y+13	; 0x0d
    46ea:	fe 85       	ldd	r31, Y+14	; 0x0e
    46ec:	81 81       	ldd	r24, Z+1	; 0x01
    46ee:	01 c0       	rjmp	.+2      	; 0x46f2 <vfprintf+0x31e>
    46f0:	80 e3       	ldi	r24, 0x30	; 48
    46f2:	f1 e0       	ldi	r31, 0x01	; 1
    46f4:	8f 1a       	sub	r8, r31
    46f6:	91 08       	sbc	r9, r1
    46f8:	2d 85       	ldd	r18, Y+13	; 0x0d
    46fa:	3e 85       	ldd	r19, Y+14	; 0x0e
    46fc:	2f 5f       	subi	r18, 0xFF	; 255
    46fe:	3f 4f       	sbci	r19, 0xFF	; 255
    4700:	3e 87       	std	Y+14, r19	; 0x0e
    4702:	2d 87       	std	Y+13, r18	; 0x0d
    4704:	80 16       	cp	r8, r16
    4706:	91 06       	cpc	r9, r17
    4708:	24 f0       	brlt	.+8      	; 0x4712 <vfprintf+0x33e>
    470a:	b7 01       	movw	r22, r14
    470c:	90 e0       	ldi	r25, 0x00	; 0
    470e:	34 d6       	rcall	.+3176   	; 0x5378 <fputc>
    4710:	db cf       	rjmp	.-74     	; 0x46c8 <vfprintf+0x2f4>
    4712:	c8 14       	cp	r12, r8
    4714:	d9 04       	cpc	r13, r9
    4716:	41 f4       	brne	.+16     	; 0x4728 <vfprintf+0x354>
    4718:	9a 81       	ldd	r25, Y+2	; 0x02
    471a:	96 33       	cpi	r25, 0x36	; 54
    471c:	20 f4       	brcc	.+8      	; 0x4726 <vfprintf+0x352>
    471e:	95 33       	cpi	r25, 0x35	; 53
    4720:	19 f4       	brne	.+6      	; 0x4728 <vfprintf+0x354>
    4722:	3c 85       	ldd	r19, Y+12	; 0x0c
    4724:	34 ff       	sbrs	r19, 4
    4726:	81 e3       	ldi	r24, 0x31	; 49
    4728:	b7 01       	movw	r22, r14
    472a:	90 e0       	ldi	r25, 0x00	; 0
    472c:	48 c0       	rjmp	.+144    	; 0x47be <vfprintf+0x3ea>
    472e:	8a 81       	ldd	r24, Y+2	; 0x02
    4730:	81 33       	cpi	r24, 0x31	; 49
    4732:	19 f0       	breq	.+6      	; 0x473a <vfprintf+0x366>
    4734:	9c 85       	ldd	r25, Y+12	; 0x0c
    4736:	9f 7e       	andi	r25, 0xEF	; 239
    4738:	9c 87       	std	Y+12, r25	; 0x0c
    473a:	b7 01       	movw	r22, r14
    473c:	90 e0       	ldi	r25, 0x00	; 0
    473e:	1c d6       	rcall	.+3128   	; 0x5378 <fputc>
    4740:	11 11       	cpse	r17, r1
    4742:	05 c0       	rjmp	.+10     	; 0x474e <vfprintf+0x37a>
    4744:	94 fc       	sbrc	r9, 4
    4746:	16 c0       	rjmp	.+44     	; 0x4774 <vfprintf+0x3a0>
    4748:	85 e6       	ldi	r24, 0x65	; 101
    474a:	90 e0       	ldi	r25, 0x00	; 0
    474c:	15 c0       	rjmp	.+42     	; 0x4778 <vfprintf+0x3a4>
    474e:	b7 01       	movw	r22, r14
    4750:	8e e2       	ldi	r24, 0x2E	; 46
    4752:	90 e0       	ldi	r25, 0x00	; 0
    4754:	11 d6       	rcall	.+3106   	; 0x5378 <fputc>
    4756:	1e 5f       	subi	r17, 0xFE	; 254
    4758:	82 e0       	ldi	r24, 0x02	; 2
    475a:	01 e0       	ldi	r16, 0x01	; 1
    475c:	08 0f       	add	r16, r24
    475e:	f3 01       	movw	r30, r6
    4760:	e8 0f       	add	r30, r24
    4762:	f1 1d       	adc	r31, r1
    4764:	80 81       	ld	r24, Z
    4766:	b7 01       	movw	r22, r14
    4768:	90 e0       	ldi	r25, 0x00	; 0
    476a:	06 d6       	rcall	.+3084   	; 0x5378 <fputc>
    476c:	80 2f       	mov	r24, r16
    476e:	01 13       	cpse	r16, r17
    4770:	f4 cf       	rjmp	.-24     	; 0x475a <vfprintf+0x386>
    4772:	e8 cf       	rjmp	.-48     	; 0x4744 <vfprintf+0x370>
    4774:	85 e4       	ldi	r24, 0x45	; 69
    4776:	90 e0       	ldi	r25, 0x00	; 0
    4778:	b7 01       	movw	r22, r14
    477a:	fe d5       	rcall	.+3068   	; 0x5378 <fputc>
    477c:	d7 fc       	sbrc	r13, 7
    477e:	06 c0       	rjmp	.+12     	; 0x478c <vfprintf+0x3b8>
    4780:	c1 14       	cp	r12, r1
    4782:	d1 04       	cpc	r13, r1
    4784:	41 f4       	brne	.+16     	; 0x4796 <vfprintf+0x3c2>
    4786:	ec 85       	ldd	r30, Y+12	; 0x0c
    4788:	e4 ff       	sbrs	r30, 4
    478a:	05 c0       	rjmp	.+10     	; 0x4796 <vfprintf+0x3c2>
    478c:	d1 94       	neg	r13
    478e:	c1 94       	neg	r12
    4790:	d1 08       	sbc	r13, r1
    4792:	8d e2       	ldi	r24, 0x2D	; 45
    4794:	01 c0       	rjmp	.+2      	; 0x4798 <vfprintf+0x3c4>
    4796:	8b e2       	ldi	r24, 0x2B	; 43
    4798:	b7 01       	movw	r22, r14
    479a:	90 e0       	ldi	r25, 0x00	; 0
    479c:	ed d5       	rcall	.+3034   	; 0x5378 <fputc>
    479e:	80 e3       	ldi	r24, 0x30	; 48
    47a0:	2a e0       	ldi	r18, 0x0A	; 10
    47a2:	c2 16       	cp	r12, r18
    47a4:	d1 04       	cpc	r13, r1
    47a6:	2c f0       	brlt	.+10     	; 0x47b2 <vfprintf+0x3de>
    47a8:	8f 5f       	subi	r24, 0xFF	; 255
    47aa:	fa e0       	ldi	r31, 0x0A	; 10
    47ac:	cf 1a       	sub	r12, r31
    47ae:	d1 08       	sbc	r13, r1
    47b0:	f7 cf       	rjmp	.-18     	; 0x47a0 <vfprintf+0x3cc>
    47b2:	b7 01       	movw	r22, r14
    47b4:	90 e0       	ldi	r25, 0x00	; 0
    47b6:	e0 d5       	rcall	.+3008   	; 0x5378 <fputc>
    47b8:	b7 01       	movw	r22, r14
    47ba:	c6 01       	movw	r24, r12
    47bc:	c0 96       	adiw	r24, 0x30	; 48
    47be:	dc d5       	rcall	.+3000   	; 0x5378 <fputc>
    47c0:	49 c1       	rjmp	.+658    	; 0x4a54 <vfprintf+0x680>
    47c2:	83 36       	cpi	r24, 0x63	; 99
    47c4:	31 f0       	breq	.+12     	; 0x47d2 <vfprintf+0x3fe>
    47c6:	83 37       	cpi	r24, 0x73	; 115
    47c8:	79 f0       	breq	.+30     	; 0x47e8 <vfprintf+0x414>
    47ca:	83 35       	cpi	r24, 0x53	; 83
    47cc:	09 f0       	breq	.+2      	; 0x47d0 <vfprintf+0x3fc>
    47ce:	52 c0       	rjmp	.+164    	; 0x4874 <vfprintf+0x4a0>
    47d0:	1f c0       	rjmp	.+62     	; 0x4810 <vfprintf+0x43c>
    47d2:	56 01       	movw	r10, r12
    47d4:	32 e0       	ldi	r19, 0x02	; 2
    47d6:	a3 0e       	add	r10, r19
    47d8:	b1 1c       	adc	r11, r1
    47da:	f6 01       	movw	r30, r12
    47dc:	80 81       	ld	r24, Z
    47de:	89 83       	std	Y+1, r24	; 0x01
    47e0:	01 e0       	ldi	r16, 0x01	; 1
    47e2:	10 e0       	ldi	r17, 0x00	; 0
    47e4:	63 01       	movw	r12, r6
    47e6:	11 c0       	rjmp	.+34     	; 0x480a <vfprintf+0x436>
    47e8:	56 01       	movw	r10, r12
    47ea:	f2 e0       	ldi	r31, 0x02	; 2
    47ec:	af 0e       	add	r10, r31
    47ee:	b1 1c       	adc	r11, r1
    47f0:	f6 01       	movw	r30, r12
    47f2:	c0 80       	ld	r12, Z
    47f4:	d1 80       	ldd	r13, Z+1	; 0x01
    47f6:	96 fe       	sbrs	r9, 6
    47f8:	03 c0       	rjmp	.+6      	; 0x4800 <vfprintf+0x42c>
    47fa:	61 2f       	mov	r22, r17
    47fc:	70 e0       	ldi	r23, 0x00	; 0
    47fe:	02 c0       	rjmp	.+4      	; 0x4804 <vfprintf+0x430>
    4800:	6f ef       	ldi	r22, 0xFF	; 255
    4802:	7f ef       	ldi	r23, 0xFF	; 255
    4804:	c6 01       	movw	r24, r12
    4806:	ad d5       	rcall	.+2906   	; 0x5362 <strnlen>
    4808:	8c 01       	movw	r16, r24
    480a:	f9 2d       	mov	r31, r9
    480c:	ff 77       	andi	r31, 0x7F	; 127
    480e:	13 c0       	rjmp	.+38     	; 0x4836 <vfprintf+0x462>
    4810:	56 01       	movw	r10, r12
    4812:	22 e0       	ldi	r18, 0x02	; 2
    4814:	a2 0e       	add	r10, r18
    4816:	b1 1c       	adc	r11, r1
    4818:	f6 01       	movw	r30, r12
    481a:	c0 80       	ld	r12, Z
    481c:	d1 80       	ldd	r13, Z+1	; 0x01
    481e:	96 fe       	sbrs	r9, 6
    4820:	03 c0       	rjmp	.+6      	; 0x4828 <vfprintf+0x454>
    4822:	61 2f       	mov	r22, r17
    4824:	70 e0       	ldi	r23, 0x00	; 0
    4826:	02 c0       	rjmp	.+4      	; 0x482c <vfprintf+0x458>
    4828:	6f ef       	ldi	r22, 0xFF	; 255
    482a:	7f ef       	ldi	r23, 0xFF	; 255
    482c:	c6 01       	movw	r24, r12
    482e:	71 d5       	rcall	.+2786   	; 0x5312 <strnlen_P>
    4830:	8c 01       	movw	r16, r24
    4832:	f9 2d       	mov	r31, r9
    4834:	f0 68       	ori	r31, 0x80	; 128
    4836:	9f 2e       	mov	r9, r31
    4838:	f3 fd       	sbrc	r31, 3
    483a:	18 c0       	rjmp	.+48     	; 0x486c <vfprintf+0x498>
    483c:	85 2d       	mov	r24, r5
    483e:	90 e0       	ldi	r25, 0x00	; 0
    4840:	08 17       	cp	r16, r24
    4842:	19 07       	cpc	r17, r25
    4844:	98 f4       	brcc	.+38     	; 0x486c <vfprintf+0x498>
    4846:	b7 01       	movw	r22, r14
    4848:	80 e2       	ldi	r24, 0x20	; 32
    484a:	90 e0       	ldi	r25, 0x00	; 0
    484c:	95 d5       	rcall	.+2858   	; 0x5378 <fputc>
    484e:	5a 94       	dec	r5
    4850:	f5 cf       	rjmp	.-22     	; 0x483c <vfprintf+0x468>
    4852:	f6 01       	movw	r30, r12
    4854:	97 fc       	sbrc	r9, 7
    4856:	85 91       	lpm	r24, Z+
    4858:	97 fe       	sbrs	r9, 7
    485a:	81 91       	ld	r24, Z+
    485c:	6f 01       	movw	r12, r30
    485e:	b7 01       	movw	r22, r14
    4860:	90 e0       	ldi	r25, 0x00	; 0
    4862:	8a d5       	rcall	.+2836   	; 0x5378 <fputc>
    4864:	51 10       	cpse	r5, r1
    4866:	5a 94       	dec	r5
    4868:	01 50       	subi	r16, 0x01	; 1
    486a:	11 09       	sbc	r17, r1
    486c:	01 15       	cp	r16, r1
    486e:	11 05       	cpc	r17, r1
    4870:	81 f7       	brne	.-32     	; 0x4852 <vfprintf+0x47e>
    4872:	f0 c0       	rjmp	.+480    	; 0x4a54 <vfprintf+0x680>
    4874:	84 36       	cpi	r24, 0x64	; 100
    4876:	11 f0       	breq	.+4      	; 0x487c <vfprintf+0x4a8>
    4878:	89 36       	cpi	r24, 0x69	; 105
    487a:	59 f5       	brne	.+86     	; 0x48d2 <vfprintf+0x4fe>
    487c:	56 01       	movw	r10, r12
    487e:	97 fe       	sbrs	r9, 7
    4880:	09 c0       	rjmp	.+18     	; 0x4894 <vfprintf+0x4c0>
    4882:	24 e0       	ldi	r18, 0x04	; 4
    4884:	a2 0e       	add	r10, r18
    4886:	b1 1c       	adc	r11, r1
    4888:	f6 01       	movw	r30, r12
    488a:	60 81       	ld	r22, Z
    488c:	71 81       	ldd	r23, Z+1	; 0x01
    488e:	82 81       	ldd	r24, Z+2	; 0x02
    4890:	93 81       	ldd	r25, Z+3	; 0x03
    4892:	0a c0       	rjmp	.+20     	; 0x48a8 <vfprintf+0x4d4>
    4894:	f2 e0       	ldi	r31, 0x02	; 2
    4896:	af 0e       	add	r10, r31
    4898:	b1 1c       	adc	r11, r1
    489a:	f6 01       	movw	r30, r12
    489c:	60 81       	ld	r22, Z
    489e:	71 81       	ldd	r23, Z+1	; 0x01
    48a0:	07 2e       	mov	r0, r23
    48a2:	00 0c       	add	r0, r0
    48a4:	88 0b       	sbc	r24, r24
    48a6:	99 0b       	sbc	r25, r25
    48a8:	f9 2d       	mov	r31, r9
    48aa:	ff 76       	andi	r31, 0x6F	; 111
    48ac:	9f 2e       	mov	r9, r31
    48ae:	97 ff       	sbrs	r25, 7
    48b0:	09 c0       	rjmp	.+18     	; 0x48c4 <vfprintf+0x4f0>
    48b2:	90 95       	com	r25
    48b4:	80 95       	com	r24
    48b6:	70 95       	com	r23
    48b8:	61 95       	neg	r22
    48ba:	7f 4f       	sbci	r23, 0xFF	; 255
    48bc:	8f 4f       	sbci	r24, 0xFF	; 255
    48be:	9f 4f       	sbci	r25, 0xFF	; 255
    48c0:	f0 68       	ori	r31, 0x80	; 128
    48c2:	9f 2e       	mov	r9, r31
    48c4:	2a e0       	ldi	r18, 0x0A	; 10
    48c6:	30 e0       	ldi	r19, 0x00	; 0
    48c8:	a3 01       	movw	r20, r6
    48ca:	c1 d5       	rcall	.+2946   	; 0x544e <__ultoa_invert>
    48cc:	c8 2e       	mov	r12, r24
    48ce:	c6 18       	sub	r12, r6
    48d0:	3e c0       	rjmp	.+124    	; 0x494e <vfprintf+0x57a>
    48d2:	09 2d       	mov	r16, r9
    48d4:	85 37       	cpi	r24, 0x75	; 117
    48d6:	21 f4       	brne	.+8      	; 0x48e0 <vfprintf+0x50c>
    48d8:	0f 7e       	andi	r16, 0xEF	; 239
    48da:	2a e0       	ldi	r18, 0x0A	; 10
    48dc:	30 e0       	ldi	r19, 0x00	; 0
    48de:	1d c0       	rjmp	.+58     	; 0x491a <vfprintf+0x546>
    48e0:	09 7f       	andi	r16, 0xF9	; 249
    48e2:	8f 36       	cpi	r24, 0x6F	; 111
    48e4:	91 f0       	breq	.+36     	; 0x490a <vfprintf+0x536>
    48e6:	18 f4       	brcc	.+6      	; 0x48ee <vfprintf+0x51a>
    48e8:	88 35       	cpi	r24, 0x58	; 88
    48ea:	59 f0       	breq	.+22     	; 0x4902 <vfprintf+0x52e>
    48ec:	bc c0       	rjmp	.+376    	; 0x4a66 <vfprintf+0x692>
    48ee:	80 37       	cpi	r24, 0x70	; 112
    48f0:	19 f0       	breq	.+6      	; 0x48f8 <vfprintf+0x524>
    48f2:	88 37       	cpi	r24, 0x78	; 120
    48f4:	11 f0       	breq	.+4      	; 0x48fa <vfprintf+0x526>
    48f6:	b7 c0       	rjmp	.+366    	; 0x4a66 <vfprintf+0x692>
    48f8:	00 61       	ori	r16, 0x10	; 16
    48fa:	04 ff       	sbrs	r16, 4
    48fc:	09 c0       	rjmp	.+18     	; 0x4910 <vfprintf+0x53c>
    48fe:	04 60       	ori	r16, 0x04	; 4
    4900:	07 c0       	rjmp	.+14     	; 0x4910 <vfprintf+0x53c>
    4902:	94 fe       	sbrs	r9, 4
    4904:	08 c0       	rjmp	.+16     	; 0x4916 <vfprintf+0x542>
    4906:	06 60       	ori	r16, 0x06	; 6
    4908:	06 c0       	rjmp	.+12     	; 0x4916 <vfprintf+0x542>
    490a:	28 e0       	ldi	r18, 0x08	; 8
    490c:	30 e0       	ldi	r19, 0x00	; 0
    490e:	05 c0       	rjmp	.+10     	; 0x491a <vfprintf+0x546>
    4910:	20 e1       	ldi	r18, 0x10	; 16
    4912:	30 e0       	ldi	r19, 0x00	; 0
    4914:	02 c0       	rjmp	.+4      	; 0x491a <vfprintf+0x546>
    4916:	20 e1       	ldi	r18, 0x10	; 16
    4918:	32 e0       	ldi	r19, 0x02	; 2
    491a:	56 01       	movw	r10, r12
    491c:	07 ff       	sbrs	r16, 7
    491e:	09 c0       	rjmp	.+18     	; 0x4932 <vfprintf+0x55e>
    4920:	84 e0       	ldi	r24, 0x04	; 4
    4922:	a8 0e       	add	r10, r24
    4924:	b1 1c       	adc	r11, r1
    4926:	f6 01       	movw	r30, r12
    4928:	60 81       	ld	r22, Z
    492a:	71 81       	ldd	r23, Z+1	; 0x01
    492c:	82 81       	ldd	r24, Z+2	; 0x02
    492e:	93 81       	ldd	r25, Z+3	; 0x03
    4930:	08 c0       	rjmp	.+16     	; 0x4942 <vfprintf+0x56e>
    4932:	f2 e0       	ldi	r31, 0x02	; 2
    4934:	af 0e       	add	r10, r31
    4936:	b1 1c       	adc	r11, r1
    4938:	f6 01       	movw	r30, r12
    493a:	60 81       	ld	r22, Z
    493c:	71 81       	ldd	r23, Z+1	; 0x01
    493e:	80 e0       	ldi	r24, 0x00	; 0
    4940:	90 e0       	ldi	r25, 0x00	; 0
    4942:	a3 01       	movw	r20, r6
    4944:	84 d5       	rcall	.+2824   	; 0x544e <__ultoa_invert>
    4946:	c8 2e       	mov	r12, r24
    4948:	c6 18       	sub	r12, r6
    494a:	0f 77       	andi	r16, 0x7F	; 127
    494c:	90 2e       	mov	r9, r16
    494e:	96 fe       	sbrs	r9, 6
    4950:	0b c0       	rjmp	.+22     	; 0x4968 <vfprintf+0x594>
    4952:	09 2d       	mov	r16, r9
    4954:	0e 7f       	andi	r16, 0xFE	; 254
    4956:	c1 16       	cp	r12, r17
    4958:	50 f4       	brcc	.+20     	; 0x496e <vfprintf+0x59a>
    495a:	94 fe       	sbrs	r9, 4
    495c:	0a c0       	rjmp	.+20     	; 0x4972 <vfprintf+0x59e>
    495e:	92 fc       	sbrc	r9, 2
    4960:	08 c0       	rjmp	.+16     	; 0x4972 <vfprintf+0x59e>
    4962:	09 2d       	mov	r16, r9
    4964:	0e 7e       	andi	r16, 0xEE	; 238
    4966:	05 c0       	rjmp	.+10     	; 0x4972 <vfprintf+0x59e>
    4968:	dc 2c       	mov	r13, r12
    496a:	09 2d       	mov	r16, r9
    496c:	03 c0       	rjmp	.+6      	; 0x4974 <vfprintf+0x5a0>
    496e:	dc 2c       	mov	r13, r12
    4970:	01 c0       	rjmp	.+2      	; 0x4974 <vfprintf+0x5a0>
    4972:	d1 2e       	mov	r13, r17
    4974:	04 ff       	sbrs	r16, 4
    4976:	0d c0       	rjmp	.+26     	; 0x4992 <vfprintf+0x5be>
    4978:	fe 01       	movw	r30, r28
    497a:	ec 0d       	add	r30, r12
    497c:	f1 1d       	adc	r31, r1
    497e:	80 81       	ld	r24, Z
    4980:	80 33       	cpi	r24, 0x30	; 48
    4982:	11 f4       	brne	.+4      	; 0x4988 <vfprintf+0x5b4>
    4984:	09 7e       	andi	r16, 0xE9	; 233
    4986:	09 c0       	rjmp	.+18     	; 0x499a <vfprintf+0x5c6>
    4988:	02 ff       	sbrs	r16, 2
    498a:	06 c0       	rjmp	.+12     	; 0x4998 <vfprintf+0x5c4>
    498c:	d3 94       	inc	r13
    498e:	d3 94       	inc	r13
    4990:	04 c0       	rjmp	.+8      	; 0x499a <vfprintf+0x5c6>
    4992:	80 2f       	mov	r24, r16
    4994:	86 78       	andi	r24, 0x86	; 134
    4996:	09 f0       	breq	.+2      	; 0x499a <vfprintf+0x5c6>
    4998:	d3 94       	inc	r13
    499a:	03 fd       	sbrc	r16, 3
    499c:	10 c0       	rjmp	.+32     	; 0x49be <vfprintf+0x5ea>
    499e:	00 ff       	sbrs	r16, 0
    49a0:	06 c0       	rjmp	.+12     	; 0x49ae <vfprintf+0x5da>
    49a2:	1c 2d       	mov	r17, r12
    49a4:	d5 14       	cp	r13, r5
    49a6:	78 f4       	brcc	.+30     	; 0x49c6 <vfprintf+0x5f2>
    49a8:	15 0d       	add	r17, r5
    49aa:	1d 19       	sub	r17, r13
    49ac:	0c c0       	rjmp	.+24     	; 0x49c6 <vfprintf+0x5f2>
    49ae:	d5 14       	cp	r13, r5
    49b0:	50 f4       	brcc	.+20     	; 0x49c6 <vfprintf+0x5f2>
    49b2:	b7 01       	movw	r22, r14
    49b4:	80 e2       	ldi	r24, 0x20	; 32
    49b6:	90 e0       	ldi	r25, 0x00	; 0
    49b8:	df d4       	rcall	.+2494   	; 0x5378 <fputc>
    49ba:	d3 94       	inc	r13
    49bc:	f8 cf       	rjmp	.-16     	; 0x49ae <vfprintf+0x5da>
    49be:	d5 14       	cp	r13, r5
    49c0:	10 f4       	brcc	.+4      	; 0x49c6 <vfprintf+0x5f2>
    49c2:	5d 18       	sub	r5, r13
    49c4:	01 c0       	rjmp	.+2      	; 0x49c8 <vfprintf+0x5f4>
    49c6:	51 2c       	mov	r5, r1
    49c8:	04 ff       	sbrs	r16, 4
    49ca:	0f c0       	rjmp	.+30     	; 0x49ea <vfprintf+0x616>
    49cc:	b7 01       	movw	r22, r14
    49ce:	80 e3       	ldi	r24, 0x30	; 48
    49d0:	90 e0       	ldi	r25, 0x00	; 0
    49d2:	d2 d4       	rcall	.+2468   	; 0x5378 <fputc>
    49d4:	02 ff       	sbrs	r16, 2
    49d6:	16 c0       	rjmp	.+44     	; 0x4a04 <vfprintf+0x630>
    49d8:	01 fd       	sbrc	r16, 1
    49da:	03 c0       	rjmp	.+6      	; 0x49e2 <vfprintf+0x60e>
    49dc:	88 e7       	ldi	r24, 0x78	; 120
    49de:	90 e0       	ldi	r25, 0x00	; 0
    49e0:	02 c0       	rjmp	.+4      	; 0x49e6 <vfprintf+0x612>
    49e2:	88 e5       	ldi	r24, 0x58	; 88
    49e4:	90 e0       	ldi	r25, 0x00	; 0
    49e6:	b7 01       	movw	r22, r14
    49e8:	0c c0       	rjmp	.+24     	; 0x4a02 <vfprintf+0x62e>
    49ea:	80 2f       	mov	r24, r16
    49ec:	86 78       	andi	r24, 0x86	; 134
    49ee:	51 f0       	breq	.+20     	; 0x4a04 <vfprintf+0x630>
    49f0:	01 ff       	sbrs	r16, 1
    49f2:	02 c0       	rjmp	.+4      	; 0x49f8 <vfprintf+0x624>
    49f4:	8b e2       	ldi	r24, 0x2B	; 43
    49f6:	01 c0       	rjmp	.+2      	; 0x49fa <vfprintf+0x626>
    49f8:	80 e2       	ldi	r24, 0x20	; 32
    49fa:	07 fd       	sbrc	r16, 7
    49fc:	8d e2       	ldi	r24, 0x2D	; 45
    49fe:	b7 01       	movw	r22, r14
    4a00:	90 e0       	ldi	r25, 0x00	; 0
    4a02:	ba d4       	rcall	.+2420   	; 0x5378 <fputc>
    4a04:	c1 16       	cp	r12, r17
    4a06:	30 f4       	brcc	.+12     	; 0x4a14 <vfprintf+0x640>
    4a08:	b7 01       	movw	r22, r14
    4a0a:	80 e3       	ldi	r24, 0x30	; 48
    4a0c:	90 e0       	ldi	r25, 0x00	; 0
    4a0e:	b4 d4       	rcall	.+2408   	; 0x5378 <fputc>
    4a10:	11 50       	subi	r17, 0x01	; 1
    4a12:	f8 cf       	rjmp	.-16     	; 0x4a04 <vfprintf+0x630>
    4a14:	ca 94       	dec	r12
    4a16:	f3 01       	movw	r30, r6
    4a18:	ec 0d       	add	r30, r12
    4a1a:	f1 1d       	adc	r31, r1
    4a1c:	80 81       	ld	r24, Z
    4a1e:	b7 01       	movw	r22, r14
    4a20:	90 e0       	ldi	r25, 0x00	; 0
    4a22:	aa d4       	rcall	.+2388   	; 0x5378 <fputc>
    4a24:	c1 10       	cpse	r12, r1
    4a26:	f6 cf       	rjmp	.-20     	; 0x4a14 <vfprintf+0x640>
    4a28:	15 c0       	rjmp	.+42     	; 0x4a54 <vfprintf+0x680>
    4a2a:	f4 e0       	ldi	r31, 0x04	; 4
    4a2c:	f5 15       	cp	r31, r5
    4a2e:	50 f5       	brcc	.+84     	; 0x4a84 <vfprintf+0x6b0>
    4a30:	84 e0       	ldi	r24, 0x04	; 4
    4a32:	58 1a       	sub	r5, r24
    4a34:	93 fe       	sbrs	r9, 3
    4a36:	1e c0       	rjmp	.+60     	; 0x4a74 <vfprintf+0x6a0>
    4a38:	01 11       	cpse	r16, r1
    4a3a:	25 c0       	rjmp	.+74     	; 0x4a86 <vfprintf+0x6b2>
    4a3c:	2c 85       	ldd	r18, Y+12	; 0x0c
    4a3e:	23 ff       	sbrs	r18, 3
    4a40:	27 c0       	rjmp	.+78     	; 0x4a90 <vfprintf+0x6bc>
    4a42:	0e e2       	ldi	r16, 0x2E	; 46
    4a44:	11 e0       	ldi	r17, 0x01	; 1
    4a46:	39 2d       	mov	r19, r9
    4a48:	30 71       	andi	r19, 0x10	; 16
    4a4a:	93 2e       	mov	r9, r19
    4a4c:	f8 01       	movw	r30, r16
    4a4e:	84 91       	lpm	r24, Z
    4a50:	81 11       	cpse	r24, r1
    4a52:	21 c0       	rjmp	.+66     	; 0x4a96 <vfprintf+0x6c2>
    4a54:	55 20       	and	r5, r5
    4a56:	09 f4       	brne	.+2      	; 0x4a5a <vfprintf+0x686>
    4a58:	fc cc       	rjmp	.-1544   	; 0x4452 <vfprintf+0x7e>
    4a5a:	b7 01       	movw	r22, r14
    4a5c:	80 e2       	ldi	r24, 0x20	; 32
    4a5e:	90 e0       	ldi	r25, 0x00	; 0
    4a60:	8b d4       	rcall	.+2326   	; 0x5378 <fputc>
    4a62:	5a 94       	dec	r5
    4a64:	f7 cf       	rjmp	.-18     	; 0x4a54 <vfprintf+0x680>
    4a66:	f7 01       	movw	r30, r14
    4a68:	86 81       	ldd	r24, Z+6	; 0x06
    4a6a:	97 81       	ldd	r25, Z+7	; 0x07
    4a6c:	23 c0       	rjmp	.+70     	; 0x4ab4 <vfprintf+0x6e0>
    4a6e:	8f ef       	ldi	r24, 0xFF	; 255
    4a70:	9f ef       	ldi	r25, 0xFF	; 255
    4a72:	20 c0       	rjmp	.+64     	; 0x4ab4 <vfprintf+0x6e0>
    4a74:	b7 01       	movw	r22, r14
    4a76:	80 e2       	ldi	r24, 0x20	; 32
    4a78:	90 e0       	ldi	r25, 0x00	; 0
    4a7a:	7e d4       	rcall	.+2300   	; 0x5378 <fputc>
    4a7c:	5a 94       	dec	r5
    4a7e:	51 10       	cpse	r5, r1
    4a80:	f9 cf       	rjmp	.-14     	; 0x4a74 <vfprintf+0x6a0>
    4a82:	da cf       	rjmp	.-76     	; 0x4a38 <vfprintf+0x664>
    4a84:	51 2c       	mov	r5, r1
    4a86:	b7 01       	movw	r22, r14
    4a88:	80 2f       	mov	r24, r16
    4a8a:	90 e0       	ldi	r25, 0x00	; 0
    4a8c:	75 d4       	rcall	.+2282   	; 0x5378 <fputc>
    4a8e:	d6 cf       	rjmp	.-84     	; 0x4a3c <vfprintf+0x668>
    4a90:	02 e3       	ldi	r16, 0x32	; 50
    4a92:	11 e0       	ldi	r17, 0x01	; 1
    4a94:	d8 cf       	rjmp	.-80     	; 0x4a46 <vfprintf+0x672>
    4a96:	91 10       	cpse	r9, r1
    4a98:	80 52       	subi	r24, 0x20	; 32
    4a9a:	b7 01       	movw	r22, r14
    4a9c:	90 e0       	ldi	r25, 0x00	; 0
    4a9e:	6c d4       	rcall	.+2264   	; 0x5378 <fputc>
    4aa0:	0f 5f       	subi	r16, 0xFF	; 255
    4aa2:	1f 4f       	sbci	r17, 0xFF	; 255
    4aa4:	d3 cf       	rjmp	.-90     	; 0x4a4c <vfprintf+0x678>
    4aa6:	23 e0       	ldi	r18, 0x03	; 3
    4aa8:	25 15       	cp	r18, r5
    4aaa:	10 f4       	brcc	.+4      	; 0x4ab0 <vfprintf+0x6dc>
    4aac:	83 e0       	ldi	r24, 0x03	; 3
    4aae:	c1 cf       	rjmp	.-126    	; 0x4a32 <vfprintf+0x65e>
    4ab0:	51 2c       	mov	r5, r1
    4ab2:	c4 cf       	rjmp	.-120    	; 0x4a3c <vfprintf+0x668>
    4ab4:	60 96       	adiw	r28, 0x10	; 16
    4ab6:	0f b6       	in	r0, 0x3f	; 63
    4ab8:	f8 94       	cli
    4aba:	de bf       	out	0x3e, r29	; 62
    4abc:	0f be       	out	0x3f, r0	; 63
    4abe:	cd bf       	out	0x3d, r28	; 61
    4ac0:	df 91       	pop	r29
    4ac2:	cf 91       	pop	r28
    4ac4:	1f 91       	pop	r17
    4ac6:	0f 91       	pop	r16
    4ac8:	ff 90       	pop	r15
    4aca:	ef 90       	pop	r14
    4acc:	df 90       	pop	r13
    4ace:	cf 90       	pop	r12
    4ad0:	bf 90       	pop	r11
    4ad2:	af 90       	pop	r10
    4ad4:	9f 90       	pop	r9
    4ad6:	8f 90       	pop	r8
    4ad8:	7f 90       	pop	r7
    4ada:	6f 90       	pop	r6
    4adc:	5f 90       	pop	r5
    4ade:	4f 90       	pop	r4
    4ae0:	3f 90       	pop	r3
    4ae2:	2f 90       	pop	r2
    4ae4:	08 95       	ret

00004ae6 <__udivmodsi4>:
    4ae6:	a1 e2       	ldi	r26, 0x21	; 33
    4ae8:	1a 2e       	mov	r1, r26
    4aea:	aa 1b       	sub	r26, r26
    4aec:	bb 1b       	sub	r27, r27
    4aee:	fd 01       	movw	r30, r26
    4af0:	0d c0       	rjmp	.+26     	; 0x4b0c <__udivmodsi4_ep>

00004af2 <__udivmodsi4_loop>:
    4af2:	aa 1f       	adc	r26, r26
    4af4:	bb 1f       	adc	r27, r27
    4af6:	ee 1f       	adc	r30, r30
    4af8:	ff 1f       	adc	r31, r31
    4afa:	a2 17       	cp	r26, r18
    4afc:	b3 07       	cpc	r27, r19
    4afe:	e4 07       	cpc	r30, r20
    4b00:	f5 07       	cpc	r31, r21
    4b02:	20 f0       	brcs	.+8      	; 0x4b0c <__udivmodsi4_ep>
    4b04:	a2 1b       	sub	r26, r18
    4b06:	b3 0b       	sbc	r27, r19
    4b08:	e4 0b       	sbc	r30, r20
    4b0a:	f5 0b       	sbc	r31, r21

00004b0c <__udivmodsi4_ep>:
    4b0c:	66 1f       	adc	r22, r22
    4b0e:	77 1f       	adc	r23, r23
    4b10:	88 1f       	adc	r24, r24
    4b12:	99 1f       	adc	r25, r25
    4b14:	1a 94       	dec	r1
    4b16:	69 f7       	brne	.-38     	; 0x4af2 <__udivmodsi4_loop>
    4b18:	60 95       	com	r22
    4b1a:	70 95       	com	r23
    4b1c:	80 95       	com	r24
    4b1e:	90 95       	com	r25
    4b20:	9b 01       	movw	r18, r22
    4b22:	ac 01       	movw	r20, r24
    4b24:	bd 01       	movw	r22, r26
    4b26:	cf 01       	movw	r24, r30
    4b28:	08 95       	ret

00004b2a <__tablejump2__>:
    4b2a:	ee 0f       	add	r30, r30
    4b2c:	ff 1f       	adc	r31, r31
    4b2e:	00 24       	eor	r0, r0
    4b30:	00 1c       	adc	r0, r0
    4b32:	0b be       	out	0x3b, r0	; 59
    4b34:	07 90       	elpm	r0, Z+
    4b36:	f6 91       	elpm	r31, Z
    4b38:	e0 2d       	mov	r30, r0
    4b3a:	09 94       	ijmp

00004b3c <malloc>:
    4b3c:	0f 93       	push	r16
    4b3e:	1f 93       	push	r17
    4b40:	cf 93       	push	r28
    4b42:	df 93       	push	r29
    4b44:	82 30       	cpi	r24, 0x02	; 2
    4b46:	91 05       	cpc	r25, r1
    4b48:	10 f4       	brcc	.+4      	; 0x4b4e <malloc+0x12>
    4b4a:	82 e0       	ldi	r24, 0x02	; 2
    4b4c:	90 e0       	ldi	r25, 0x00	; 0
    4b4e:	e0 91 ab 05 	lds	r30, 0x05AB	; 0x8005ab <__flp>
    4b52:	f0 91 ac 05 	lds	r31, 0x05AC	; 0x8005ac <__flp+0x1>
    4b56:	20 e0       	ldi	r18, 0x00	; 0
    4b58:	30 e0       	ldi	r19, 0x00	; 0
    4b5a:	a0 e0       	ldi	r26, 0x00	; 0
    4b5c:	b0 e0       	ldi	r27, 0x00	; 0
    4b5e:	30 97       	sbiw	r30, 0x00	; 0
    4b60:	19 f1       	breq	.+70     	; 0x4ba8 <malloc+0x6c>
    4b62:	40 81       	ld	r20, Z
    4b64:	51 81       	ldd	r21, Z+1	; 0x01
    4b66:	02 81       	ldd	r16, Z+2	; 0x02
    4b68:	13 81       	ldd	r17, Z+3	; 0x03
    4b6a:	48 17       	cp	r20, r24
    4b6c:	59 07       	cpc	r21, r25
    4b6e:	c8 f0       	brcs	.+50     	; 0x4ba2 <malloc+0x66>
    4b70:	84 17       	cp	r24, r20
    4b72:	95 07       	cpc	r25, r21
    4b74:	69 f4       	brne	.+26     	; 0x4b90 <malloc+0x54>
    4b76:	10 97       	sbiw	r26, 0x00	; 0
    4b78:	31 f0       	breq	.+12     	; 0x4b86 <malloc+0x4a>
    4b7a:	12 96       	adiw	r26, 0x02	; 2
    4b7c:	0c 93       	st	X, r16
    4b7e:	12 97       	sbiw	r26, 0x02	; 2
    4b80:	13 96       	adiw	r26, 0x03	; 3
    4b82:	1c 93       	st	X, r17
    4b84:	27 c0       	rjmp	.+78     	; 0x4bd4 <malloc+0x98>
    4b86:	00 93 ab 05 	sts	0x05AB, r16	; 0x8005ab <__flp>
    4b8a:	10 93 ac 05 	sts	0x05AC, r17	; 0x8005ac <__flp+0x1>
    4b8e:	22 c0       	rjmp	.+68     	; 0x4bd4 <malloc+0x98>
    4b90:	21 15       	cp	r18, r1
    4b92:	31 05       	cpc	r19, r1
    4b94:	19 f0       	breq	.+6      	; 0x4b9c <malloc+0x60>
    4b96:	42 17       	cp	r20, r18
    4b98:	53 07       	cpc	r21, r19
    4b9a:	18 f4       	brcc	.+6      	; 0x4ba2 <malloc+0x66>
    4b9c:	9a 01       	movw	r18, r20
    4b9e:	bd 01       	movw	r22, r26
    4ba0:	ef 01       	movw	r28, r30
    4ba2:	df 01       	movw	r26, r30
    4ba4:	f8 01       	movw	r30, r16
    4ba6:	db cf       	rjmp	.-74     	; 0x4b5e <malloc+0x22>
    4ba8:	21 15       	cp	r18, r1
    4baa:	31 05       	cpc	r19, r1
    4bac:	f9 f0       	breq	.+62     	; 0x4bec <malloc+0xb0>
    4bae:	28 1b       	sub	r18, r24
    4bb0:	39 0b       	sbc	r19, r25
    4bb2:	24 30       	cpi	r18, 0x04	; 4
    4bb4:	31 05       	cpc	r19, r1
    4bb6:	80 f4       	brcc	.+32     	; 0x4bd8 <malloc+0x9c>
    4bb8:	8a 81       	ldd	r24, Y+2	; 0x02
    4bba:	9b 81       	ldd	r25, Y+3	; 0x03
    4bbc:	61 15       	cp	r22, r1
    4bbe:	71 05       	cpc	r23, r1
    4bc0:	21 f0       	breq	.+8      	; 0x4bca <malloc+0x8e>
    4bc2:	fb 01       	movw	r30, r22
    4bc4:	93 83       	std	Z+3, r25	; 0x03
    4bc6:	82 83       	std	Z+2, r24	; 0x02
    4bc8:	04 c0       	rjmp	.+8      	; 0x4bd2 <malloc+0x96>
    4bca:	90 93 ac 05 	sts	0x05AC, r25	; 0x8005ac <__flp+0x1>
    4bce:	80 93 ab 05 	sts	0x05AB, r24	; 0x8005ab <__flp>
    4bd2:	fe 01       	movw	r30, r28
    4bd4:	32 96       	adiw	r30, 0x02	; 2
    4bd6:	44 c0       	rjmp	.+136    	; 0x4c60 <malloc+0x124>
    4bd8:	fe 01       	movw	r30, r28
    4bda:	e2 0f       	add	r30, r18
    4bdc:	f3 1f       	adc	r31, r19
    4bde:	81 93       	st	Z+, r24
    4be0:	91 93       	st	Z+, r25
    4be2:	22 50       	subi	r18, 0x02	; 2
    4be4:	31 09       	sbc	r19, r1
    4be6:	39 83       	std	Y+1, r19	; 0x01
    4be8:	28 83       	st	Y, r18
    4bea:	3a c0       	rjmp	.+116    	; 0x4c60 <malloc+0x124>
    4bec:	20 91 a9 05 	lds	r18, 0x05A9	; 0x8005a9 <__brkval>
    4bf0:	30 91 aa 05 	lds	r19, 0x05AA	; 0x8005aa <__brkval+0x1>
    4bf4:	23 2b       	or	r18, r19
    4bf6:	41 f4       	brne	.+16     	; 0x4c08 <malloc+0xcc>
    4bf8:	20 91 02 01 	lds	r18, 0x0102	; 0x800102 <__malloc_heap_start>
    4bfc:	30 91 03 01 	lds	r19, 0x0103	; 0x800103 <__malloc_heap_start+0x1>
    4c00:	30 93 aa 05 	sts	0x05AA, r19	; 0x8005aa <__brkval+0x1>
    4c04:	20 93 a9 05 	sts	0x05A9, r18	; 0x8005a9 <__brkval>
    4c08:	20 91 00 01 	lds	r18, 0x0100	; 0x800100 <__data_start>
    4c0c:	30 91 01 01 	lds	r19, 0x0101	; 0x800101 <__data_start+0x1>
    4c10:	21 15       	cp	r18, r1
    4c12:	31 05       	cpc	r19, r1
    4c14:	41 f4       	brne	.+16     	; 0x4c26 <malloc+0xea>
    4c16:	2d b7       	in	r18, 0x3d	; 61
    4c18:	3e b7       	in	r19, 0x3e	; 62
    4c1a:	40 91 04 01 	lds	r20, 0x0104	; 0x800104 <__malloc_margin>
    4c1e:	50 91 05 01 	lds	r21, 0x0105	; 0x800105 <__malloc_margin+0x1>
    4c22:	24 1b       	sub	r18, r20
    4c24:	35 0b       	sbc	r19, r21
    4c26:	e0 91 a9 05 	lds	r30, 0x05A9	; 0x8005a9 <__brkval>
    4c2a:	f0 91 aa 05 	lds	r31, 0x05AA	; 0x8005aa <__brkval+0x1>
    4c2e:	e2 17       	cp	r30, r18
    4c30:	f3 07       	cpc	r31, r19
    4c32:	a0 f4       	brcc	.+40     	; 0x4c5c <malloc+0x120>
    4c34:	2e 1b       	sub	r18, r30
    4c36:	3f 0b       	sbc	r19, r31
    4c38:	28 17       	cp	r18, r24
    4c3a:	39 07       	cpc	r19, r25
    4c3c:	78 f0       	brcs	.+30     	; 0x4c5c <malloc+0x120>
    4c3e:	ac 01       	movw	r20, r24
    4c40:	4e 5f       	subi	r20, 0xFE	; 254
    4c42:	5f 4f       	sbci	r21, 0xFF	; 255
    4c44:	24 17       	cp	r18, r20
    4c46:	35 07       	cpc	r19, r21
    4c48:	48 f0       	brcs	.+18     	; 0x4c5c <malloc+0x120>
    4c4a:	4e 0f       	add	r20, r30
    4c4c:	5f 1f       	adc	r21, r31
    4c4e:	50 93 aa 05 	sts	0x05AA, r21	; 0x8005aa <__brkval+0x1>
    4c52:	40 93 a9 05 	sts	0x05A9, r20	; 0x8005a9 <__brkval>
    4c56:	81 93       	st	Z+, r24
    4c58:	91 93       	st	Z+, r25
    4c5a:	02 c0       	rjmp	.+4      	; 0x4c60 <malloc+0x124>
    4c5c:	e0 e0       	ldi	r30, 0x00	; 0
    4c5e:	f0 e0       	ldi	r31, 0x00	; 0
    4c60:	cf 01       	movw	r24, r30
    4c62:	df 91       	pop	r29
    4c64:	cf 91       	pop	r28
    4c66:	1f 91       	pop	r17
    4c68:	0f 91       	pop	r16
    4c6a:	08 95       	ret

00004c6c <free>:
    4c6c:	cf 93       	push	r28
    4c6e:	df 93       	push	r29
    4c70:	00 97       	sbiw	r24, 0x00	; 0
    4c72:	09 f4       	brne	.+2      	; 0x4c76 <free+0xa>
    4c74:	81 c0       	rjmp	.+258    	; 0x4d78 <free+0x10c>
    4c76:	fc 01       	movw	r30, r24
    4c78:	32 97       	sbiw	r30, 0x02	; 2
    4c7a:	13 82       	std	Z+3, r1	; 0x03
    4c7c:	12 82       	std	Z+2, r1	; 0x02
    4c7e:	a0 91 ab 05 	lds	r26, 0x05AB	; 0x8005ab <__flp>
    4c82:	b0 91 ac 05 	lds	r27, 0x05AC	; 0x8005ac <__flp+0x1>
    4c86:	10 97       	sbiw	r26, 0x00	; 0
    4c88:	81 f4       	brne	.+32     	; 0x4caa <free+0x3e>
    4c8a:	20 81       	ld	r18, Z
    4c8c:	31 81       	ldd	r19, Z+1	; 0x01
    4c8e:	82 0f       	add	r24, r18
    4c90:	93 1f       	adc	r25, r19
    4c92:	20 91 a9 05 	lds	r18, 0x05A9	; 0x8005a9 <__brkval>
    4c96:	30 91 aa 05 	lds	r19, 0x05AA	; 0x8005aa <__brkval+0x1>
    4c9a:	28 17       	cp	r18, r24
    4c9c:	39 07       	cpc	r19, r25
    4c9e:	51 f5       	brne	.+84     	; 0x4cf4 <free+0x88>
    4ca0:	f0 93 aa 05 	sts	0x05AA, r31	; 0x8005aa <__brkval+0x1>
    4ca4:	e0 93 a9 05 	sts	0x05A9, r30	; 0x8005a9 <__brkval>
    4ca8:	67 c0       	rjmp	.+206    	; 0x4d78 <free+0x10c>
    4caa:	ed 01       	movw	r28, r26
    4cac:	20 e0       	ldi	r18, 0x00	; 0
    4cae:	30 e0       	ldi	r19, 0x00	; 0
    4cb0:	ce 17       	cp	r28, r30
    4cb2:	df 07       	cpc	r29, r31
    4cb4:	40 f4       	brcc	.+16     	; 0x4cc6 <free+0x5a>
    4cb6:	4a 81       	ldd	r20, Y+2	; 0x02
    4cb8:	5b 81       	ldd	r21, Y+3	; 0x03
    4cba:	9e 01       	movw	r18, r28
    4cbc:	41 15       	cp	r20, r1
    4cbe:	51 05       	cpc	r21, r1
    4cc0:	f1 f0       	breq	.+60     	; 0x4cfe <free+0x92>
    4cc2:	ea 01       	movw	r28, r20
    4cc4:	f5 cf       	rjmp	.-22     	; 0x4cb0 <free+0x44>
    4cc6:	d3 83       	std	Z+3, r29	; 0x03
    4cc8:	c2 83       	std	Z+2, r28	; 0x02
    4cca:	40 81       	ld	r20, Z
    4ccc:	51 81       	ldd	r21, Z+1	; 0x01
    4cce:	84 0f       	add	r24, r20
    4cd0:	95 1f       	adc	r25, r21
    4cd2:	c8 17       	cp	r28, r24
    4cd4:	d9 07       	cpc	r29, r25
    4cd6:	59 f4       	brne	.+22     	; 0x4cee <free+0x82>
    4cd8:	88 81       	ld	r24, Y
    4cda:	99 81       	ldd	r25, Y+1	; 0x01
    4cdc:	84 0f       	add	r24, r20
    4cde:	95 1f       	adc	r25, r21
    4ce0:	02 96       	adiw	r24, 0x02	; 2
    4ce2:	91 83       	std	Z+1, r25	; 0x01
    4ce4:	80 83       	st	Z, r24
    4ce6:	8a 81       	ldd	r24, Y+2	; 0x02
    4ce8:	9b 81       	ldd	r25, Y+3	; 0x03
    4cea:	93 83       	std	Z+3, r25	; 0x03
    4cec:	82 83       	std	Z+2, r24	; 0x02
    4cee:	21 15       	cp	r18, r1
    4cf0:	31 05       	cpc	r19, r1
    4cf2:	29 f4       	brne	.+10     	; 0x4cfe <free+0x92>
    4cf4:	f0 93 ac 05 	sts	0x05AC, r31	; 0x8005ac <__flp+0x1>
    4cf8:	e0 93 ab 05 	sts	0x05AB, r30	; 0x8005ab <__flp>
    4cfc:	3d c0       	rjmp	.+122    	; 0x4d78 <free+0x10c>
    4cfe:	e9 01       	movw	r28, r18
    4d00:	fb 83       	std	Y+3, r31	; 0x03
    4d02:	ea 83       	std	Y+2, r30	; 0x02
    4d04:	49 91       	ld	r20, Y+
    4d06:	59 91       	ld	r21, Y+
    4d08:	c4 0f       	add	r28, r20
    4d0a:	d5 1f       	adc	r29, r21
    4d0c:	ec 17       	cp	r30, r28
    4d0e:	fd 07       	cpc	r31, r29
    4d10:	61 f4       	brne	.+24     	; 0x4d2a <free+0xbe>
    4d12:	80 81       	ld	r24, Z
    4d14:	91 81       	ldd	r25, Z+1	; 0x01
    4d16:	84 0f       	add	r24, r20
    4d18:	95 1f       	adc	r25, r21
    4d1a:	02 96       	adiw	r24, 0x02	; 2
    4d1c:	e9 01       	movw	r28, r18
    4d1e:	99 83       	std	Y+1, r25	; 0x01
    4d20:	88 83       	st	Y, r24
    4d22:	82 81       	ldd	r24, Z+2	; 0x02
    4d24:	93 81       	ldd	r25, Z+3	; 0x03
    4d26:	9b 83       	std	Y+3, r25	; 0x03
    4d28:	8a 83       	std	Y+2, r24	; 0x02
    4d2a:	e0 e0       	ldi	r30, 0x00	; 0
    4d2c:	f0 e0       	ldi	r31, 0x00	; 0
    4d2e:	12 96       	adiw	r26, 0x02	; 2
    4d30:	8d 91       	ld	r24, X+
    4d32:	9c 91       	ld	r25, X
    4d34:	13 97       	sbiw	r26, 0x03	; 3
    4d36:	00 97       	sbiw	r24, 0x00	; 0
    4d38:	19 f0       	breq	.+6      	; 0x4d40 <free+0xd4>
    4d3a:	fd 01       	movw	r30, r26
    4d3c:	dc 01       	movw	r26, r24
    4d3e:	f7 cf       	rjmp	.-18     	; 0x4d2e <free+0xc2>
    4d40:	8d 91       	ld	r24, X+
    4d42:	9c 91       	ld	r25, X
    4d44:	11 97       	sbiw	r26, 0x01	; 1
    4d46:	9d 01       	movw	r18, r26
    4d48:	2e 5f       	subi	r18, 0xFE	; 254
    4d4a:	3f 4f       	sbci	r19, 0xFF	; 255
    4d4c:	82 0f       	add	r24, r18
    4d4e:	93 1f       	adc	r25, r19
    4d50:	20 91 a9 05 	lds	r18, 0x05A9	; 0x8005a9 <__brkval>
    4d54:	30 91 aa 05 	lds	r19, 0x05AA	; 0x8005aa <__brkval+0x1>
    4d58:	28 17       	cp	r18, r24
    4d5a:	39 07       	cpc	r19, r25
    4d5c:	69 f4       	brne	.+26     	; 0x4d78 <free+0x10c>
    4d5e:	30 97       	sbiw	r30, 0x00	; 0
    4d60:	29 f4       	brne	.+10     	; 0x4d6c <free+0x100>
    4d62:	10 92 ac 05 	sts	0x05AC, r1	; 0x8005ac <__flp+0x1>
    4d66:	10 92 ab 05 	sts	0x05AB, r1	; 0x8005ab <__flp>
    4d6a:	02 c0       	rjmp	.+4      	; 0x4d70 <free+0x104>
    4d6c:	13 82       	std	Z+3, r1	; 0x03
    4d6e:	12 82       	std	Z+2, r1	; 0x02
    4d70:	b0 93 aa 05 	sts	0x05AA, r27	; 0x8005aa <__brkval+0x1>
    4d74:	a0 93 a9 05 	sts	0x05A9, r26	; 0x8005a9 <__brkval>
    4d78:	df 91       	pop	r29
    4d7a:	cf 91       	pop	r28
    4d7c:	08 95       	ret

00004d7e <realloc>:
    4d7e:	6f 92       	push	r6
    4d80:	7f 92       	push	r7
    4d82:	8f 92       	push	r8
    4d84:	9f 92       	push	r9
    4d86:	af 92       	push	r10
    4d88:	bf 92       	push	r11
    4d8a:	cf 92       	push	r12
    4d8c:	df 92       	push	r13
    4d8e:	ef 92       	push	r14
    4d90:	ff 92       	push	r15
    4d92:	0f 93       	push	r16
    4d94:	1f 93       	push	r17
    4d96:	cf 93       	push	r28
    4d98:	df 93       	push	r29
    4d9a:	00 97       	sbiw	r24, 0x00	; 0
    4d9c:	81 f4       	brne	.+32     	; 0x4dbe <realloc+0x40>
    4d9e:	cb 01       	movw	r24, r22
    4da0:	df 91       	pop	r29
    4da2:	cf 91       	pop	r28
    4da4:	1f 91       	pop	r17
    4da6:	0f 91       	pop	r16
    4da8:	ff 90       	pop	r15
    4daa:	ef 90       	pop	r14
    4dac:	df 90       	pop	r13
    4dae:	cf 90       	pop	r12
    4db0:	bf 90       	pop	r11
    4db2:	af 90       	pop	r10
    4db4:	9f 90       	pop	r9
    4db6:	8f 90       	pop	r8
    4db8:	7f 90       	pop	r7
    4dba:	6f 90       	pop	r6
    4dbc:	bf ce       	rjmp	.-642    	; 0x4b3c <malloc>
    4dbe:	fc 01       	movw	r30, r24
    4dc0:	e6 0f       	add	r30, r22
    4dc2:	f7 1f       	adc	r31, r23
    4dc4:	9c 01       	movw	r18, r24
    4dc6:	22 50       	subi	r18, 0x02	; 2
    4dc8:	31 09       	sbc	r19, r1
    4dca:	e2 17       	cp	r30, r18
    4dcc:	f3 07       	cpc	r31, r19
    4dce:	08 f4       	brcc	.+2      	; 0x4dd2 <realloc+0x54>
    4dd0:	a5 c0       	rjmp	.+330    	; 0x4f1c <realloc+0x19e>
    4dd2:	ec 01       	movw	r28, r24
    4dd4:	d9 01       	movw	r26, r18
    4dd6:	0d 91       	ld	r16, X+
    4dd8:	1c 91       	ld	r17, X
    4dda:	11 97       	sbiw	r26, 0x01	; 1
    4ddc:	06 17       	cp	r16, r22
    4dde:	17 07       	cpc	r17, r23
    4de0:	a8 f0       	brcs	.+42     	; 0x4e0c <realloc+0x8e>
    4de2:	05 30       	cpi	r16, 0x05	; 5
    4de4:	11 05       	cpc	r17, r1
    4de6:	08 f4       	brcc	.+2      	; 0x4dea <realloc+0x6c>
    4de8:	97 c0       	rjmp	.+302    	; 0x4f18 <realloc+0x19a>
    4dea:	c8 01       	movw	r24, r16
    4dec:	04 97       	sbiw	r24, 0x04	; 4
    4dee:	86 17       	cp	r24, r22
    4df0:	97 07       	cpc	r25, r23
    4df2:	08 f4       	brcc	.+2      	; 0x4df6 <realloc+0x78>
    4df4:	91 c0       	rjmp	.+290    	; 0x4f18 <realloc+0x19a>
    4df6:	02 50       	subi	r16, 0x02	; 2
    4df8:	11 09       	sbc	r17, r1
    4dfa:	06 1b       	sub	r16, r22
    4dfc:	17 0b       	sbc	r17, r23
    4dfe:	01 93       	st	Z+, r16
    4e00:	11 93       	st	Z+, r17
    4e02:	6d 93       	st	X+, r22
    4e04:	7c 93       	st	X, r23
    4e06:	cf 01       	movw	r24, r30
    4e08:	31 df       	rcall	.-414    	; 0x4c6c <free>
    4e0a:	86 c0       	rjmp	.+268    	; 0x4f18 <realloc+0x19a>
    4e0c:	5b 01       	movw	r10, r22
    4e0e:	a0 1a       	sub	r10, r16
    4e10:	b1 0a       	sbc	r11, r17
    4e12:	4c 01       	movw	r8, r24
    4e14:	80 0e       	add	r8, r16
    4e16:	91 1e       	adc	r9, r17
    4e18:	a0 91 ab 05 	lds	r26, 0x05AB	; 0x8005ab <__flp>
    4e1c:	b0 91 ac 05 	lds	r27, 0x05AC	; 0x8005ac <__flp+0x1>
    4e20:	61 2c       	mov	r6, r1
    4e22:	71 2c       	mov	r7, r1
    4e24:	e1 2c       	mov	r14, r1
    4e26:	f1 2c       	mov	r15, r1
    4e28:	10 97       	sbiw	r26, 0x00	; 0
    4e2a:	09 f4       	brne	.+2      	; 0x4e2e <realloc+0xb0>
    4e2c:	46 c0       	rjmp	.+140    	; 0x4eba <realloc+0x13c>
    4e2e:	8d 91       	ld	r24, X+
    4e30:	9c 91       	ld	r25, X
    4e32:	11 97       	sbiw	r26, 0x01	; 1
    4e34:	a8 15       	cp	r26, r8
    4e36:	b9 05       	cpc	r27, r9
    4e38:	b1 f5       	brne	.+108    	; 0x4ea6 <realloc+0x128>
    4e3a:	6c 01       	movw	r12, r24
    4e3c:	42 e0       	ldi	r20, 0x02	; 2
    4e3e:	c4 0e       	add	r12, r20
    4e40:	d1 1c       	adc	r13, r1
    4e42:	ca 14       	cp	r12, r10
    4e44:	db 04       	cpc	r13, r11
    4e46:	78 f1       	brcs	.+94     	; 0x4ea6 <realloc+0x128>
    4e48:	4c 01       	movw	r8, r24
    4e4a:	8a 18       	sub	r8, r10
    4e4c:	9b 08       	sbc	r9, r11
    4e4e:	64 01       	movw	r12, r8
    4e50:	42 e0       	ldi	r20, 0x02	; 2
    4e52:	c4 0e       	add	r12, r20
    4e54:	d1 1c       	adc	r13, r1
    4e56:	12 96       	adiw	r26, 0x02	; 2
    4e58:	bc 90       	ld	r11, X
    4e5a:	12 97       	sbiw	r26, 0x02	; 2
    4e5c:	13 96       	adiw	r26, 0x03	; 3
    4e5e:	ac 91       	ld	r26, X
    4e60:	b5 e0       	ldi	r27, 0x05	; 5
    4e62:	cb 16       	cp	r12, r27
    4e64:	d1 04       	cpc	r13, r1
    4e66:	40 f0       	brcs	.+16     	; 0x4e78 <realloc+0xfa>
    4e68:	b2 82       	std	Z+2, r11	; 0x02
    4e6a:	a3 83       	std	Z+3, r26	; 0x03
    4e6c:	91 82       	std	Z+1, r9	; 0x01
    4e6e:	80 82       	st	Z, r8
    4e70:	d9 01       	movw	r26, r18
    4e72:	6d 93       	st	X+, r22
    4e74:	7c 93       	st	X, r23
    4e76:	09 c0       	rjmp	.+18     	; 0x4e8a <realloc+0x10c>
    4e78:	0e 5f       	subi	r16, 0xFE	; 254
    4e7a:	1f 4f       	sbci	r17, 0xFF	; 255
    4e7c:	80 0f       	add	r24, r16
    4e7e:	91 1f       	adc	r25, r17
    4e80:	f9 01       	movw	r30, r18
    4e82:	91 83       	std	Z+1, r25	; 0x01
    4e84:	80 83       	st	Z, r24
    4e86:	eb 2d       	mov	r30, r11
    4e88:	fa 2f       	mov	r31, r26
    4e8a:	e1 14       	cp	r14, r1
    4e8c:	f1 04       	cpc	r15, r1
    4e8e:	31 f0       	breq	.+12     	; 0x4e9c <realloc+0x11e>
    4e90:	d7 01       	movw	r26, r14
    4e92:	13 96       	adiw	r26, 0x03	; 3
    4e94:	fc 93       	st	X, r31
    4e96:	ee 93       	st	-X, r30
    4e98:	12 97       	sbiw	r26, 0x02	; 2
    4e9a:	3e c0       	rjmp	.+124    	; 0x4f18 <realloc+0x19a>
    4e9c:	f0 93 ac 05 	sts	0x05AC, r31	; 0x8005ac <__flp+0x1>
    4ea0:	e0 93 ab 05 	sts	0x05AB, r30	; 0x8005ab <__flp>
    4ea4:	39 c0       	rjmp	.+114    	; 0x4f18 <realloc+0x19a>
    4ea6:	68 16       	cp	r6, r24
    4ea8:	79 06       	cpc	r7, r25
    4eaa:	08 f4       	brcc	.+2      	; 0x4eae <realloc+0x130>
    4eac:	3c 01       	movw	r6, r24
    4eae:	7d 01       	movw	r14, r26
    4eb0:	12 96       	adiw	r26, 0x02	; 2
    4eb2:	0d 90       	ld	r0, X+
    4eb4:	bc 91       	ld	r27, X
    4eb6:	a0 2d       	mov	r26, r0
    4eb8:	b7 cf       	rjmp	.-146    	; 0x4e28 <realloc+0xaa>
    4eba:	80 91 a9 05 	lds	r24, 0x05A9	; 0x8005a9 <__brkval>
    4ebe:	90 91 aa 05 	lds	r25, 0x05AA	; 0x8005aa <__brkval+0x1>
    4ec2:	88 16       	cp	r8, r24
    4ec4:	99 06       	cpc	r9, r25
    4ec6:	e1 f4       	brne	.+56     	; 0x4f00 <realloc+0x182>
    4ec8:	66 16       	cp	r6, r22
    4eca:	77 06       	cpc	r7, r23
    4ecc:	c8 f4       	brcc	.+50     	; 0x4f00 <realloc+0x182>
    4ece:	80 91 00 01 	lds	r24, 0x0100	; 0x800100 <__data_start>
    4ed2:	90 91 01 01 	lds	r25, 0x0101	; 0x800101 <__data_start+0x1>
    4ed6:	00 97       	sbiw	r24, 0x00	; 0
    4ed8:	41 f4       	brne	.+16     	; 0x4eea <realloc+0x16c>
    4eda:	8d b7       	in	r24, 0x3d	; 61
    4edc:	9e b7       	in	r25, 0x3e	; 62
    4ede:	40 91 04 01 	lds	r20, 0x0104	; 0x800104 <__malloc_margin>
    4ee2:	50 91 05 01 	lds	r21, 0x0105	; 0x800105 <__malloc_margin+0x1>
    4ee6:	84 1b       	sub	r24, r20
    4ee8:	95 0b       	sbc	r25, r21
    4eea:	e8 17       	cp	r30, r24
    4eec:	f9 07       	cpc	r31, r25
    4eee:	b0 f4       	brcc	.+44     	; 0x4f1c <realloc+0x19e>
    4ef0:	f0 93 aa 05 	sts	0x05AA, r31	; 0x8005aa <__brkval+0x1>
    4ef4:	e0 93 a9 05 	sts	0x05A9, r30	; 0x8005a9 <__brkval>
    4ef8:	f9 01       	movw	r30, r18
    4efa:	71 83       	std	Z+1, r23	; 0x01
    4efc:	60 83       	st	Z, r22
    4efe:	0c c0       	rjmp	.+24     	; 0x4f18 <realloc+0x19a>
    4f00:	cb 01       	movw	r24, r22
    4f02:	1c de       	rcall	.-968    	; 0x4b3c <malloc>
    4f04:	7c 01       	movw	r14, r24
    4f06:	00 97       	sbiw	r24, 0x00	; 0
    4f08:	49 f0       	breq	.+18     	; 0x4f1c <realloc+0x19e>
    4f0a:	a8 01       	movw	r20, r16
    4f0c:	be 01       	movw	r22, r28
    4f0e:	19 d2       	rcall	.+1074   	; 0x5342 <memcpy>
    4f10:	ce 01       	movw	r24, r28
    4f12:	ac de       	rcall	.-680    	; 0x4c6c <free>
    4f14:	c7 01       	movw	r24, r14
    4f16:	04 c0       	rjmp	.+8      	; 0x4f20 <realloc+0x1a2>
    4f18:	ce 01       	movw	r24, r28
    4f1a:	02 c0       	rjmp	.+4      	; 0x4f20 <realloc+0x1a2>
    4f1c:	80 e0       	ldi	r24, 0x00	; 0
    4f1e:	90 e0       	ldi	r25, 0x00	; 0
    4f20:	df 91       	pop	r29
    4f22:	cf 91       	pop	r28
    4f24:	1f 91       	pop	r17
    4f26:	0f 91       	pop	r16
    4f28:	ff 90       	pop	r15
    4f2a:	ef 90       	pop	r14
    4f2c:	df 90       	pop	r13
    4f2e:	cf 90       	pop	r12
    4f30:	bf 90       	pop	r11
    4f32:	af 90       	pop	r10
    4f34:	9f 90       	pop	r9
    4f36:	8f 90       	pop	r8
    4f38:	7f 90       	pop	r7
    4f3a:	6f 90       	pop	r6
    4f3c:	08 95       	ret

00004f3e <strtoul>:
    4f3e:	3f 92       	push	r3
    4f40:	4f 92       	push	r4
    4f42:	5f 92       	push	r5
    4f44:	6f 92       	push	r6
    4f46:	7f 92       	push	r7
    4f48:	8f 92       	push	r8
    4f4a:	9f 92       	push	r9
    4f4c:	af 92       	push	r10
    4f4e:	bf 92       	push	r11
    4f50:	cf 92       	push	r12
    4f52:	df 92       	push	r13
    4f54:	ef 92       	push	r14
    4f56:	ff 92       	push	r15
    4f58:	0f 93       	push	r16
    4f5a:	1f 93       	push	r17
    4f5c:	cf 93       	push	r28
    4f5e:	df 93       	push	r29
    4f60:	5c 01       	movw	r10, r24
    4f62:	6b 01       	movw	r12, r22
    4f64:	7a 01       	movw	r14, r20
    4f66:	61 15       	cp	r22, r1
    4f68:	71 05       	cpc	r23, r1
    4f6a:	19 f0       	breq	.+6      	; 0x4f72 <strtoul+0x34>
    4f6c:	fb 01       	movw	r30, r22
    4f6e:	91 83       	std	Z+1, r25	; 0x01
    4f70:	80 83       	st	Z, r24
    4f72:	e1 14       	cp	r14, r1
    4f74:	f1 04       	cpc	r15, r1
    4f76:	29 f0       	breq	.+10     	; 0x4f82 <strtoul+0x44>
    4f78:	c7 01       	movw	r24, r14
    4f7a:	02 97       	sbiw	r24, 0x02	; 2
    4f7c:	83 97       	sbiw	r24, 0x23	; 35
    4f7e:	08 f0       	brcs	.+2      	; 0x4f82 <strtoul+0x44>
    4f80:	c6 c0       	rjmp	.+396    	; 0x510e <strtoul+0x1d0>
    4f82:	e5 01       	movw	r28, r10
    4f84:	21 96       	adiw	r28, 0x01	; 1
    4f86:	f5 01       	movw	r30, r10
    4f88:	10 81       	ld	r17, Z
    4f8a:	81 2f       	mov	r24, r17
    4f8c:	90 e0       	ldi	r25, 0x00	; 0
    4f8e:	b9 d1       	rcall	.+882    	; 0x5302 <isspace>
    4f90:	89 2b       	or	r24, r25
    4f92:	11 f0       	breq	.+4      	; 0x4f98 <strtoul+0x5a>
    4f94:	5e 01       	movw	r10, r28
    4f96:	f5 cf       	rjmp	.-22     	; 0x4f82 <strtoul+0x44>
    4f98:	1d 32       	cpi	r17, 0x2D	; 45
    4f9a:	29 f4       	brne	.+10     	; 0x4fa6 <strtoul+0x68>
    4f9c:	21 96       	adiw	r28, 0x01	; 1
    4f9e:	f5 01       	movw	r30, r10
    4fa0:	11 81       	ldd	r17, Z+1	; 0x01
    4fa2:	01 e0       	ldi	r16, 0x01	; 1
    4fa4:	07 c0       	rjmp	.+14     	; 0x4fb4 <strtoul+0x76>
    4fa6:	1b 32       	cpi	r17, 0x2B	; 43
    4fa8:	21 f4       	brne	.+8      	; 0x4fb2 <strtoul+0x74>
    4faa:	e5 01       	movw	r28, r10
    4fac:	22 96       	adiw	r28, 0x02	; 2
    4fae:	f5 01       	movw	r30, r10
    4fb0:	11 81       	ldd	r17, Z+1	; 0x01
    4fb2:	00 e0       	ldi	r16, 0x00	; 0
    4fb4:	e1 14       	cp	r14, r1
    4fb6:	f1 04       	cpc	r15, r1
    4fb8:	b1 f0       	breq	.+44     	; 0x4fe6 <strtoul+0xa8>
    4fba:	f0 e1       	ldi	r31, 0x10	; 16
    4fbc:	ef 16       	cp	r14, r31
    4fbe:	f1 04       	cpc	r15, r1
    4fc0:	29 f4       	brne	.+10     	; 0x4fcc <strtoul+0x8e>
    4fc2:	ae c0       	rjmp	.+348    	; 0x5120 <strtoul+0x1e2>
    4fc4:	10 e3       	ldi	r17, 0x30	; 48
    4fc6:	e1 14       	cp	r14, r1
    4fc8:	f1 04       	cpc	r15, r1
    4fca:	01 f1       	breq	.+64     	; 0x500c <strtoul+0xce>
    4fcc:	2a e0       	ldi	r18, 0x0A	; 10
    4fce:	e2 16       	cp	r14, r18
    4fd0:	f1 04       	cpc	r15, r1
    4fd2:	a9 f1       	breq	.+106    	; 0x503e <strtoul+0x100>
    4fd4:	80 e1       	ldi	r24, 0x10	; 16
    4fd6:	e8 16       	cp	r14, r24
    4fd8:	f1 04       	cpc	r15, r1
    4fda:	71 f0       	breq	.+28     	; 0x4ff8 <strtoul+0xba>
    4fdc:	e8 e0       	ldi	r30, 0x08	; 8
    4fde:	ee 16       	cp	r14, r30
    4fe0:	f1 04       	cpc	r15, r1
    4fe2:	f1 f4       	brne	.+60     	; 0x5020 <strtoul+0xe2>
    4fe4:	13 c0       	rjmp	.+38     	; 0x500c <strtoul+0xce>
    4fe6:	10 33       	cpi	r17, 0x30	; 48
    4fe8:	39 f5       	brne	.+78     	; 0x5038 <strtoul+0xfa>
    4fea:	88 81       	ld	r24, Y
    4fec:	8f 7d       	andi	r24, 0xDF	; 223
    4fee:	88 35       	cpi	r24, 0x58	; 88
    4ff0:	49 f7       	brne	.-46     	; 0x4fc4 <strtoul+0x86>
    4ff2:	19 81       	ldd	r17, Y+1	; 0x01
    4ff4:	22 96       	adiw	r28, 0x02	; 2
    4ff6:	02 60       	ori	r16, 0x02	; 2
    4ff8:	f0 e1       	ldi	r31, 0x10	; 16
    4ffa:	ef 2e       	mov	r14, r31
    4ffc:	f1 2c       	mov	r15, r1
    4ffe:	88 24       	eor	r8, r8
    5000:	8a 94       	dec	r8
    5002:	98 2c       	mov	r9, r8
    5004:	a8 2c       	mov	r10, r8
    5006:	af e0       	ldi	r26, 0x0F	; 15
    5008:	ba 2e       	mov	r11, r26
    500a:	1f c0       	rjmp	.+62     	; 0x504a <strtoul+0x10c>
    500c:	78 e0       	ldi	r23, 0x08	; 8
    500e:	e7 2e       	mov	r14, r23
    5010:	f1 2c       	mov	r15, r1
    5012:	88 24       	eor	r8, r8
    5014:	8a 94       	dec	r8
    5016:	98 2c       	mov	r9, r8
    5018:	a8 2c       	mov	r10, r8
    501a:	ef e1       	ldi	r30, 0x1F	; 31
    501c:	be 2e       	mov	r11, r30
    501e:	15 c0       	rjmp	.+42     	; 0x504a <strtoul+0x10c>
    5020:	6f ef       	ldi	r22, 0xFF	; 255
    5022:	7f ef       	ldi	r23, 0xFF	; 255
    5024:	cb 01       	movw	r24, r22
    5026:	97 01       	movw	r18, r14
    5028:	0f 2c       	mov	r0, r15
    502a:	00 0c       	add	r0, r0
    502c:	44 0b       	sbc	r20, r20
    502e:	55 0b       	sbc	r21, r21
    5030:	5a dd       	rcall	.-1356   	; 0x4ae6 <__udivmodsi4>
    5032:	49 01       	movw	r8, r18
    5034:	5a 01       	movw	r10, r20
    5036:	09 c0       	rjmp	.+18     	; 0x504a <strtoul+0x10c>
    5038:	8a e0       	ldi	r24, 0x0A	; 10
    503a:	e8 2e       	mov	r14, r24
    503c:	f1 2c       	mov	r15, r1
    503e:	69 e9       	ldi	r22, 0x99	; 153
    5040:	86 2e       	mov	r8, r22
    5042:	98 2c       	mov	r9, r8
    5044:	a8 2c       	mov	r10, r8
    5046:	69 e1       	ldi	r22, 0x19	; 25
    5048:	b6 2e       	mov	r11, r22
    504a:	40 e0       	ldi	r20, 0x00	; 0
    504c:	60 e0       	ldi	r22, 0x00	; 0
    504e:	70 e0       	ldi	r23, 0x00	; 0
    5050:	cb 01       	movw	r24, r22
    5052:	27 01       	movw	r4, r14
    5054:	0f 2c       	mov	r0, r15
    5056:	00 0c       	add	r0, r0
    5058:	66 08       	sbc	r6, r6
    505a:	77 08       	sbc	r7, r7
    505c:	fe 01       	movw	r30, r28
    505e:	50 ed       	ldi	r21, 0xD0	; 208
    5060:	35 2e       	mov	r3, r21
    5062:	31 0e       	add	r3, r17
    5064:	29 e0       	ldi	r18, 0x09	; 9
    5066:	23 15       	cp	r18, r3
    5068:	70 f4       	brcc	.+28     	; 0x5086 <strtoul+0x148>
    506a:	2f eb       	ldi	r18, 0xBF	; 191
    506c:	21 0f       	add	r18, r17
    506e:	2a 31       	cpi	r18, 0x1A	; 26
    5070:	18 f4       	brcc	.+6      	; 0x5078 <strtoul+0x13a>
    5072:	39 ec       	ldi	r19, 0xC9	; 201
    5074:	33 2e       	mov	r3, r19
    5076:	06 c0       	rjmp	.+12     	; 0x5084 <strtoul+0x146>
    5078:	2f e9       	ldi	r18, 0x9F	; 159
    507a:	21 0f       	add	r18, r17
    507c:	2a 31       	cpi	r18, 0x1A	; 26
    507e:	28 f5       	brcc	.+74     	; 0x50ca <strtoul+0x18c>
    5080:	29 ea       	ldi	r18, 0xA9	; 169
    5082:	32 2e       	mov	r3, r18
    5084:	31 0e       	add	r3, r17
    5086:	23 2d       	mov	r18, r3
    5088:	30 e0       	ldi	r19, 0x00	; 0
    508a:	2e 15       	cp	r18, r14
    508c:	3f 05       	cpc	r19, r15
    508e:	ec f4       	brge	.+58     	; 0x50ca <strtoul+0x18c>
    5090:	4f 3f       	cpi	r20, 0xFF	; 255
    5092:	c1 f0       	breq	.+48     	; 0x50c4 <strtoul+0x186>
    5094:	86 16       	cp	r8, r22
    5096:	97 06       	cpc	r9, r23
    5098:	a8 06       	cpc	r10, r24
    509a:	b9 06       	cpc	r11, r25
    509c:	80 f0       	brcs	.+32     	; 0x50be <strtoul+0x180>
    509e:	a3 01       	movw	r20, r6
    50a0:	92 01       	movw	r18, r4
    50a2:	36 d2       	rcall	.+1132   	; 0x5510 <__mulsi3>
    50a4:	23 2d       	mov	r18, r3
    50a6:	30 e0       	ldi	r19, 0x00	; 0
    50a8:	40 e0       	ldi	r20, 0x00	; 0
    50aa:	50 e0       	ldi	r21, 0x00	; 0
    50ac:	62 0f       	add	r22, r18
    50ae:	73 1f       	adc	r23, r19
    50b0:	84 1f       	adc	r24, r20
    50b2:	95 1f       	adc	r25, r21
    50b4:	62 17       	cp	r22, r18
    50b6:	73 07       	cpc	r23, r19
    50b8:	84 07       	cpc	r24, r20
    50ba:	95 07       	cpc	r25, r21
    50bc:	10 f4       	brcc	.+4      	; 0x50c2 <strtoul+0x184>
    50be:	4f ef       	ldi	r20, 0xFF	; 255
    50c0:	01 c0       	rjmp	.+2      	; 0x50c4 <strtoul+0x186>
    50c2:	41 e0       	ldi	r20, 0x01	; 1
    50c4:	21 96       	adiw	r28, 0x01	; 1
    50c6:	10 81       	ld	r17, Z
    50c8:	c9 cf       	rjmp	.-110    	; 0x505c <strtoul+0x11e>
    50ca:	c1 14       	cp	r12, r1
    50cc:	d1 04       	cpc	r13, r1
    50ce:	51 f0       	breq	.+20     	; 0x50e4 <strtoul+0x1a6>
    50d0:	44 23       	and	r20, r20
    50d2:	11 f0       	breq	.+4      	; 0x50d8 <strtoul+0x19a>
    50d4:	21 97       	sbiw	r28, 0x01	; 1
    50d6:	03 c0       	rjmp	.+6      	; 0x50de <strtoul+0x1a0>
    50d8:	01 ff       	sbrs	r16, 1
    50da:	04 c0       	rjmp	.+8      	; 0x50e4 <strtoul+0x1a6>
    50dc:	22 97       	sbiw	r28, 0x02	; 2
    50de:	f6 01       	movw	r30, r12
    50e0:	d1 83       	std	Z+1, r29	; 0x01
    50e2:	c0 83       	st	Z, r28
    50e4:	00 ff       	sbrs	r16, 0
    50e6:	07 c0       	rjmp	.+14     	; 0x50f6 <strtoul+0x1b8>
    50e8:	90 95       	com	r25
    50ea:	80 95       	com	r24
    50ec:	70 95       	com	r23
    50ee:	61 95       	neg	r22
    50f0:	7f 4f       	sbci	r23, 0xFF	; 255
    50f2:	8f 4f       	sbci	r24, 0xFF	; 255
    50f4:	9f 4f       	sbci	r25, 0xFF	; 255
    50f6:	4f 3f       	cpi	r20, 0xFF	; 255
    50f8:	79 f4       	brne	.+30     	; 0x5118 <strtoul+0x1da>
    50fa:	82 e2       	ldi	r24, 0x22	; 34
    50fc:	90 e0       	ldi	r25, 0x00	; 0
    50fe:	90 93 ae 05 	sts	0x05AE, r25	; 0x8005ae <errno+0x1>
    5102:	80 93 ad 05 	sts	0x05AD, r24	; 0x8005ad <errno>
    5106:	3f ef       	ldi	r19, 0xFF	; 255
    5108:	2f ef       	ldi	r18, 0xFF	; 255
    510a:	9f ef       	ldi	r25, 0xFF	; 255
    510c:	0d c0       	rjmp	.+26     	; 0x5128 <strtoul+0x1ea>
    510e:	40 e0       	ldi	r20, 0x00	; 0
    5110:	30 e0       	ldi	r19, 0x00	; 0
    5112:	20 e0       	ldi	r18, 0x00	; 0
    5114:	90 e0       	ldi	r25, 0x00	; 0
    5116:	08 c0       	rjmp	.+16     	; 0x5128 <strtoul+0x1ea>
    5118:	46 2f       	mov	r20, r22
    511a:	37 2f       	mov	r19, r23
    511c:	28 2f       	mov	r18, r24
    511e:	04 c0       	rjmp	.+8      	; 0x5128 <strtoul+0x1ea>
    5120:	10 33       	cpi	r17, 0x30	; 48
    5122:	09 f0       	breq	.+2      	; 0x5126 <strtoul+0x1e8>
    5124:	69 cf       	rjmp	.-302    	; 0x4ff8 <strtoul+0xba>
    5126:	61 cf       	rjmp	.-318    	; 0x4fea <strtoul+0xac>
    5128:	64 2f       	mov	r22, r20
    512a:	73 2f       	mov	r23, r19
    512c:	82 2f       	mov	r24, r18
    512e:	df 91       	pop	r29
    5130:	cf 91       	pop	r28
    5132:	1f 91       	pop	r17
    5134:	0f 91       	pop	r16
    5136:	ff 90       	pop	r15
    5138:	ef 90       	pop	r14
    513a:	df 90       	pop	r13
    513c:	cf 90       	pop	r12
    513e:	bf 90       	pop	r11
    5140:	af 90       	pop	r10
    5142:	9f 90       	pop	r9
    5144:	8f 90       	pop	r8
    5146:	7f 90       	pop	r7
    5148:	6f 90       	pop	r6
    514a:	5f 90       	pop	r5
    514c:	4f 90       	pop	r4
    514e:	3f 90       	pop	r3
    5150:	08 95       	ret

00005152 <__ftoa_engine>:
    5152:	28 30       	cpi	r18, 0x08	; 8
    5154:	08 f0       	brcs	.+2      	; 0x5158 <__ftoa_engine+0x6>
    5156:	27 e0       	ldi	r18, 0x07	; 7
    5158:	33 27       	eor	r19, r19
    515a:	da 01       	movw	r26, r20
    515c:	99 0f       	add	r25, r25
    515e:	31 1d       	adc	r19, r1
    5160:	87 fd       	sbrc	r24, 7
    5162:	91 60       	ori	r25, 0x01	; 1
    5164:	00 96       	adiw	r24, 0x00	; 0
    5166:	61 05       	cpc	r22, r1
    5168:	71 05       	cpc	r23, r1
    516a:	39 f4       	brne	.+14     	; 0x517a <__ftoa_engine+0x28>
    516c:	32 60       	ori	r19, 0x02	; 2
    516e:	2e 5f       	subi	r18, 0xFE	; 254
    5170:	3d 93       	st	X+, r19
    5172:	30 e3       	ldi	r19, 0x30	; 48
    5174:	2a 95       	dec	r18
    5176:	e1 f7       	brne	.-8      	; 0x5170 <__ftoa_engine+0x1e>
    5178:	08 95       	ret
    517a:	9f 3f       	cpi	r25, 0xFF	; 255
    517c:	30 f0       	brcs	.+12     	; 0x518a <__ftoa_engine+0x38>
    517e:	80 38       	cpi	r24, 0x80	; 128
    5180:	71 05       	cpc	r23, r1
    5182:	61 05       	cpc	r22, r1
    5184:	09 f0       	breq	.+2      	; 0x5188 <__ftoa_engine+0x36>
    5186:	3c 5f       	subi	r19, 0xFC	; 252
    5188:	3c 5f       	subi	r19, 0xFC	; 252
    518a:	3d 93       	st	X+, r19
    518c:	91 30       	cpi	r25, 0x01	; 1
    518e:	08 f0       	brcs	.+2      	; 0x5192 <__ftoa_engine+0x40>
    5190:	80 68       	ori	r24, 0x80	; 128
    5192:	91 1d       	adc	r25, r1
    5194:	df 93       	push	r29
    5196:	cf 93       	push	r28
    5198:	1f 93       	push	r17
    519a:	0f 93       	push	r16
    519c:	ff 92       	push	r15
    519e:	ef 92       	push	r14
    51a0:	19 2f       	mov	r17, r25
    51a2:	98 7f       	andi	r25, 0xF8	; 248
    51a4:	96 95       	lsr	r25
    51a6:	e9 2f       	mov	r30, r25
    51a8:	96 95       	lsr	r25
    51aa:	96 95       	lsr	r25
    51ac:	e9 0f       	add	r30, r25
    51ae:	ff 27       	eor	r31, r31
    51b0:	e0 57       	subi	r30, 0x70	; 112
    51b2:	fe 4f       	sbci	r31, 0xFE	; 254
    51b4:	99 27       	eor	r25, r25
    51b6:	33 27       	eor	r19, r19
    51b8:	ee 24       	eor	r14, r14
    51ba:	ff 24       	eor	r15, r15
    51bc:	a7 01       	movw	r20, r14
    51be:	e7 01       	movw	r28, r14
    51c0:	05 90       	lpm	r0, Z+
    51c2:	08 94       	sec
    51c4:	07 94       	ror	r0
    51c6:	28 f4       	brcc	.+10     	; 0x51d2 <__ftoa_engine+0x80>
    51c8:	36 0f       	add	r19, r22
    51ca:	e7 1e       	adc	r14, r23
    51cc:	f8 1e       	adc	r15, r24
    51ce:	49 1f       	adc	r20, r25
    51d0:	51 1d       	adc	r21, r1
    51d2:	66 0f       	add	r22, r22
    51d4:	77 1f       	adc	r23, r23
    51d6:	88 1f       	adc	r24, r24
    51d8:	99 1f       	adc	r25, r25
    51da:	06 94       	lsr	r0
    51dc:	a1 f7       	brne	.-24     	; 0x51c6 <__ftoa_engine+0x74>
    51de:	05 90       	lpm	r0, Z+
    51e0:	07 94       	ror	r0
    51e2:	28 f4       	brcc	.+10     	; 0x51ee <__ftoa_engine+0x9c>
    51e4:	e7 0e       	add	r14, r23
    51e6:	f8 1e       	adc	r15, r24
    51e8:	49 1f       	adc	r20, r25
    51ea:	56 1f       	adc	r21, r22
    51ec:	c1 1d       	adc	r28, r1
    51ee:	77 0f       	add	r23, r23
    51f0:	88 1f       	adc	r24, r24
    51f2:	99 1f       	adc	r25, r25
    51f4:	66 1f       	adc	r22, r22
    51f6:	06 94       	lsr	r0
    51f8:	a1 f7       	brne	.-24     	; 0x51e2 <__ftoa_engine+0x90>
    51fa:	05 90       	lpm	r0, Z+
    51fc:	07 94       	ror	r0
    51fe:	28 f4       	brcc	.+10     	; 0x520a <__ftoa_engine+0xb8>
    5200:	f8 0e       	add	r15, r24
    5202:	49 1f       	adc	r20, r25
    5204:	56 1f       	adc	r21, r22
    5206:	c7 1f       	adc	r28, r23
    5208:	d1 1d       	adc	r29, r1
    520a:	88 0f       	add	r24, r24
    520c:	99 1f       	adc	r25, r25
    520e:	66 1f       	adc	r22, r22
    5210:	77 1f       	adc	r23, r23
    5212:	06 94       	lsr	r0
    5214:	a1 f7       	brne	.-24     	; 0x51fe <__ftoa_engine+0xac>
    5216:	05 90       	lpm	r0, Z+
    5218:	07 94       	ror	r0
    521a:	20 f4       	brcc	.+8      	; 0x5224 <__ftoa_engine+0xd2>
    521c:	49 0f       	add	r20, r25
    521e:	56 1f       	adc	r21, r22
    5220:	c7 1f       	adc	r28, r23
    5222:	d8 1f       	adc	r29, r24
    5224:	99 0f       	add	r25, r25
    5226:	66 1f       	adc	r22, r22
    5228:	77 1f       	adc	r23, r23
    522a:	88 1f       	adc	r24, r24
    522c:	06 94       	lsr	r0
    522e:	a9 f7       	brne	.-22     	; 0x521a <__ftoa_engine+0xc8>
    5230:	84 91       	lpm	r24, Z
    5232:	10 95       	com	r17
    5234:	17 70       	andi	r17, 0x07	; 7
    5236:	41 f0       	breq	.+16     	; 0x5248 <__ftoa_engine+0xf6>
    5238:	d6 95       	lsr	r29
    523a:	c7 95       	ror	r28
    523c:	57 95       	ror	r21
    523e:	47 95       	ror	r20
    5240:	f7 94       	ror	r15
    5242:	e7 94       	ror	r14
    5244:	1a 95       	dec	r17
    5246:	c1 f7       	brne	.-16     	; 0x5238 <__ftoa_engine+0xe6>
    5248:	e6 e3       	ldi	r30, 0x36	; 54
    524a:	f1 e0       	ldi	r31, 0x01	; 1
    524c:	68 94       	set
    524e:	15 90       	lpm	r1, Z+
    5250:	15 91       	lpm	r17, Z+
    5252:	35 91       	lpm	r19, Z+
    5254:	65 91       	lpm	r22, Z+
    5256:	95 91       	lpm	r25, Z+
    5258:	05 90       	lpm	r0, Z+
    525a:	7f e2       	ldi	r23, 0x2F	; 47
    525c:	73 95       	inc	r23
    525e:	e1 18       	sub	r14, r1
    5260:	f1 0a       	sbc	r15, r17
    5262:	43 0b       	sbc	r20, r19
    5264:	56 0b       	sbc	r21, r22
    5266:	c9 0b       	sbc	r28, r25
    5268:	d0 09       	sbc	r29, r0
    526a:	c0 f7       	brcc	.-16     	; 0x525c <__ftoa_engine+0x10a>
    526c:	e1 0c       	add	r14, r1
    526e:	f1 1e       	adc	r15, r17
    5270:	43 1f       	adc	r20, r19
    5272:	56 1f       	adc	r21, r22
    5274:	c9 1f       	adc	r28, r25
    5276:	d0 1d       	adc	r29, r0
    5278:	7e f4       	brtc	.+30     	; 0x5298 <__ftoa_engine+0x146>
    527a:	70 33       	cpi	r23, 0x30	; 48
    527c:	11 f4       	brne	.+4      	; 0x5282 <__ftoa_engine+0x130>
    527e:	8a 95       	dec	r24
    5280:	e6 cf       	rjmp	.-52     	; 0x524e <__ftoa_engine+0xfc>
    5282:	e8 94       	clt
    5284:	01 50       	subi	r16, 0x01	; 1
    5286:	30 f0       	brcs	.+12     	; 0x5294 <__ftoa_engine+0x142>
    5288:	08 0f       	add	r16, r24
    528a:	0a f4       	brpl	.+2      	; 0x528e <__ftoa_engine+0x13c>
    528c:	00 27       	eor	r16, r16
    528e:	02 17       	cp	r16, r18
    5290:	08 f4       	brcc	.+2      	; 0x5294 <__ftoa_engine+0x142>
    5292:	20 2f       	mov	r18, r16
    5294:	23 95       	inc	r18
    5296:	02 2f       	mov	r16, r18
    5298:	7a 33       	cpi	r23, 0x3A	; 58
    529a:	28 f0       	brcs	.+10     	; 0x52a6 <__ftoa_engine+0x154>
    529c:	79 e3       	ldi	r23, 0x39	; 57
    529e:	7d 93       	st	X+, r23
    52a0:	2a 95       	dec	r18
    52a2:	e9 f7       	brne	.-6      	; 0x529e <__ftoa_engine+0x14c>
    52a4:	10 c0       	rjmp	.+32     	; 0x52c6 <__ftoa_engine+0x174>
    52a6:	7d 93       	st	X+, r23
    52a8:	2a 95       	dec	r18
    52aa:	89 f6       	brne	.-94     	; 0x524e <__ftoa_engine+0xfc>
    52ac:	06 94       	lsr	r0
    52ae:	97 95       	ror	r25
    52b0:	67 95       	ror	r22
    52b2:	37 95       	ror	r19
    52b4:	17 95       	ror	r17
    52b6:	17 94       	ror	r1
    52b8:	e1 18       	sub	r14, r1
    52ba:	f1 0a       	sbc	r15, r17
    52bc:	43 0b       	sbc	r20, r19
    52be:	56 0b       	sbc	r21, r22
    52c0:	c9 0b       	sbc	r28, r25
    52c2:	d0 09       	sbc	r29, r0
    52c4:	98 f0       	brcs	.+38     	; 0x52ec <__ftoa_engine+0x19a>
    52c6:	23 95       	inc	r18
    52c8:	7e 91       	ld	r23, -X
    52ca:	73 95       	inc	r23
    52cc:	7a 33       	cpi	r23, 0x3A	; 58
    52ce:	08 f0       	brcs	.+2      	; 0x52d2 <__ftoa_engine+0x180>
    52d0:	70 e3       	ldi	r23, 0x30	; 48
    52d2:	7c 93       	st	X, r23
    52d4:	20 13       	cpse	r18, r16
    52d6:	b8 f7       	brcc	.-18     	; 0x52c6 <__ftoa_engine+0x174>
    52d8:	7e 91       	ld	r23, -X
    52da:	70 61       	ori	r23, 0x10	; 16
    52dc:	7d 93       	st	X+, r23
    52de:	30 f0       	brcs	.+12     	; 0x52ec <__ftoa_engine+0x19a>
    52e0:	83 95       	inc	r24
    52e2:	71 e3       	ldi	r23, 0x31	; 49
    52e4:	7d 93       	st	X+, r23
    52e6:	70 e3       	ldi	r23, 0x30	; 48
    52e8:	2a 95       	dec	r18
    52ea:	e1 f7       	brne	.-8      	; 0x52e4 <__ftoa_engine+0x192>
    52ec:	11 24       	eor	r1, r1
    52ee:	ef 90       	pop	r14
    52f0:	ff 90       	pop	r15
    52f2:	0f 91       	pop	r16
    52f4:	1f 91       	pop	r17
    52f6:	cf 91       	pop	r28
    52f8:	df 91       	pop	r29
    52fa:	99 27       	eor	r25, r25
    52fc:	87 fd       	sbrc	r24, 7
    52fe:	90 95       	com	r25
    5300:	08 95       	ret

00005302 <isspace>:
    5302:	91 11       	cpse	r25, r1
    5304:	02 c1       	rjmp	.+516    	; 0x550a <__ctype_isfalse>
    5306:	80 32       	cpi	r24, 0x20	; 32
    5308:	19 f0       	breq	.+6      	; 0x5310 <isspace+0xe>
    530a:	89 50       	subi	r24, 0x09	; 9
    530c:	85 50       	subi	r24, 0x05	; 5
    530e:	d0 f7       	brcc	.-12     	; 0x5304 <isspace+0x2>
    5310:	08 95       	ret

00005312 <strnlen_P>:
    5312:	fc 01       	movw	r30, r24
    5314:	05 90       	lpm	r0, Z+
    5316:	61 50       	subi	r22, 0x01	; 1
    5318:	70 40       	sbci	r23, 0x00	; 0
    531a:	01 10       	cpse	r0, r1
    531c:	d8 f7       	brcc	.-10     	; 0x5314 <strnlen_P+0x2>
    531e:	80 95       	com	r24
    5320:	90 95       	com	r25
    5322:	8e 0f       	add	r24, r30
    5324:	9f 1f       	adc	r25, r31
    5326:	08 95       	ret

00005328 <memcmp>:
    5328:	fb 01       	movw	r30, r22
    532a:	dc 01       	movw	r26, r24
    532c:	04 c0       	rjmp	.+8      	; 0x5336 <memcmp+0xe>
    532e:	8d 91       	ld	r24, X+
    5330:	01 90       	ld	r0, Z+
    5332:	80 19       	sub	r24, r0
    5334:	21 f4       	brne	.+8      	; 0x533e <memcmp+0x16>
    5336:	41 50       	subi	r20, 0x01	; 1
    5338:	50 40       	sbci	r21, 0x00	; 0
    533a:	c8 f7       	brcc	.-14     	; 0x532e <memcmp+0x6>
    533c:	88 1b       	sub	r24, r24
    533e:	99 0b       	sbc	r25, r25
    5340:	08 95       	ret

00005342 <memcpy>:
    5342:	fb 01       	movw	r30, r22
    5344:	dc 01       	movw	r26, r24
    5346:	02 c0       	rjmp	.+4      	; 0x534c <memcpy+0xa>
    5348:	01 90       	ld	r0, Z+
    534a:	0d 92       	st	X+, r0
    534c:	41 50       	subi	r20, 0x01	; 1
    534e:	50 40       	sbci	r21, 0x00	; 0
    5350:	d8 f7       	brcc	.-10     	; 0x5348 <memcpy+0x6>
    5352:	08 95       	ret

00005354 <memset>:
    5354:	dc 01       	movw	r26, r24
    5356:	01 c0       	rjmp	.+2      	; 0x535a <memset+0x6>
    5358:	6d 93       	st	X+, r22
    535a:	41 50       	subi	r20, 0x01	; 1
    535c:	50 40       	sbci	r21, 0x00	; 0
    535e:	e0 f7       	brcc	.-8      	; 0x5358 <memset+0x4>
    5360:	08 95       	ret

00005362 <strnlen>:
    5362:	fc 01       	movw	r30, r24
    5364:	61 50       	subi	r22, 0x01	; 1
    5366:	70 40       	sbci	r23, 0x00	; 0
    5368:	01 90       	ld	r0, Z+
    536a:	01 10       	cpse	r0, r1
    536c:	d8 f7       	brcc	.-10     	; 0x5364 <strnlen+0x2>
    536e:	80 95       	com	r24
    5370:	90 95       	com	r25
    5372:	8e 0f       	add	r24, r30
    5374:	9f 1f       	adc	r25, r31
    5376:	08 95       	ret

00005378 <fputc>:
    5378:	0f 93       	push	r16
    537a:	1f 93       	push	r17
    537c:	cf 93       	push	r28
    537e:	df 93       	push	r29
    5380:	fb 01       	movw	r30, r22
    5382:	23 81       	ldd	r18, Z+3	; 0x03
    5384:	21 fd       	sbrc	r18, 1
    5386:	03 c0       	rjmp	.+6      	; 0x538e <fputc+0x16>
    5388:	8f ef       	ldi	r24, 0xFF	; 255
    538a:	9f ef       	ldi	r25, 0xFF	; 255
    538c:	2c c0       	rjmp	.+88     	; 0x53e6 <fputc+0x6e>
    538e:	22 ff       	sbrs	r18, 2
    5390:	16 c0       	rjmp	.+44     	; 0x53be <fputc+0x46>
    5392:	46 81       	ldd	r20, Z+6	; 0x06
    5394:	57 81       	ldd	r21, Z+7	; 0x07
    5396:	24 81       	ldd	r18, Z+4	; 0x04
    5398:	35 81       	ldd	r19, Z+5	; 0x05
    539a:	42 17       	cp	r20, r18
    539c:	53 07       	cpc	r21, r19
    539e:	44 f4       	brge	.+16     	; 0x53b0 <fputc+0x38>
    53a0:	a0 81       	ld	r26, Z
    53a2:	b1 81       	ldd	r27, Z+1	; 0x01
    53a4:	9d 01       	movw	r18, r26
    53a6:	2f 5f       	subi	r18, 0xFF	; 255
    53a8:	3f 4f       	sbci	r19, 0xFF	; 255
    53aa:	31 83       	std	Z+1, r19	; 0x01
    53ac:	20 83       	st	Z, r18
    53ae:	8c 93       	st	X, r24
    53b0:	26 81       	ldd	r18, Z+6	; 0x06
    53b2:	37 81       	ldd	r19, Z+7	; 0x07
    53b4:	2f 5f       	subi	r18, 0xFF	; 255
    53b6:	3f 4f       	sbci	r19, 0xFF	; 255
    53b8:	37 83       	std	Z+7, r19	; 0x07
    53ba:	26 83       	std	Z+6, r18	; 0x06
    53bc:	14 c0       	rjmp	.+40     	; 0x53e6 <fputc+0x6e>
    53be:	8b 01       	movw	r16, r22
    53c0:	ec 01       	movw	r28, r24
    53c2:	fb 01       	movw	r30, r22
    53c4:	00 84       	ldd	r0, Z+8	; 0x08
    53c6:	f1 85       	ldd	r31, Z+9	; 0x09
    53c8:	e0 2d       	mov	r30, r0
    53ca:	09 95       	icall
    53cc:	89 2b       	or	r24, r25
    53ce:	e1 f6       	brne	.-72     	; 0x5388 <fputc+0x10>
    53d0:	d8 01       	movw	r26, r16
    53d2:	16 96       	adiw	r26, 0x06	; 6
    53d4:	8d 91       	ld	r24, X+
    53d6:	9c 91       	ld	r25, X
    53d8:	17 97       	sbiw	r26, 0x07	; 7
    53da:	01 96       	adiw	r24, 0x01	; 1
    53dc:	17 96       	adiw	r26, 0x07	; 7
    53de:	9c 93       	st	X, r25
    53e0:	8e 93       	st	-X, r24
    53e2:	16 97       	sbiw	r26, 0x06	; 6
    53e4:	ce 01       	movw	r24, r28
    53e6:	df 91       	pop	r29
    53e8:	cf 91       	pop	r28
    53ea:	1f 91       	pop	r17
    53ec:	0f 91       	pop	r16
    53ee:	08 95       	ret

000053f0 <sprintf>:
    53f0:	0f 93       	push	r16
    53f2:	1f 93       	push	r17
    53f4:	cf 93       	push	r28
    53f6:	df 93       	push	r29
    53f8:	cd b7       	in	r28, 0x3d	; 61
    53fa:	de b7       	in	r29, 0x3e	; 62
    53fc:	2e 97       	sbiw	r28, 0x0e	; 14
    53fe:	0f b6       	in	r0, 0x3f	; 63
    5400:	f8 94       	cli
    5402:	de bf       	out	0x3e, r29	; 62
    5404:	0f be       	out	0x3f, r0	; 63
    5406:	cd bf       	out	0x3d, r28	; 61
    5408:	0d 89       	ldd	r16, Y+21	; 0x15
    540a:	1e 89       	ldd	r17, Y+22	; 0x16
    540c:	86 e0       	ldi	r24, 0x06	; 6
    540e:	8c 83       	std	Y+4, r24	; 0x04
    5410:	1a 83       	std	Y+2, r17	; 0x02
    5412:	09 83       	std	Y+1, r16	; 0x01
    5414:	8f ef       	ldi	r24, 0xFF	; 255
    5416:	9f e7       	ldi	r25, 0x7F	; 127
    5418:	9e 83       	std	Y+6, r25	; 0x06
    541a:	8d 83       	std	Y+5, r24	; 0x05
    541c:	ae 01       	movw	r20, r28
    541e:	47 5e       	subi	r20, 0xE7	; 231
    5420:	5f 4f       	sbci	r21, 0xFF	; 255
    5422:	6f 89       	ldd	r22, Y+23	; 0x17
    5424:	78 8d       	ldd	r23, Y+24	; 0x18
    5426:	ce 01       	movw	r24, r28
    5428:	01 96       	adiw	r24, 0x01	; 1
    542a:	0e 94 ea 21 	call	0x43d4	; 0x43d4 <vfprintf>
    542e:	ef 81       	ldd	r30, Y+7	; 0x07
    5430:	f8 85       	ldd	r31, Y+8	; 0x08
    5432:	e0 0f       	add	r30, r16
    5434:	f1 1f       	adc	r31, r17
    5436:	10 82       	st	Z, r1
    5438:	2e 96       	adiw	r28, 0x0e	; 14
    543a:	0f b6       	in	r0, 0x3f	; 63
    543c:	f8 94       	cli
    543e:	de bf       	out	0x3e, r29	; 62
    5440:	0f be       	out	0x3f, r0	; 63
    5442:	cd bf       	out	0x3d, r28	; 61
    5444:	df 91       	pop	r29
    5446:	cf 91       	pop	r28
    5448:	1f 91       	pop	r17
    544a:	0f 91       	pop	r16
    544c:	08 95       	ret

0000544e <__ultoa_invert>:
    544e:	fa 01       	movw	r30, r20
    5450:	aa 27       	eor	r26, r26
    5452:	28 30       	cpi	r18, 0x08	; 8
    5454:	51 f1       	breq	.+84     	; 0x54aa <__ultoa_invert+0x5c>
    5456:	20 31       	cpi	r18, 0x10	; 16
    5458:	81 f1       	breq	.+96     	; 0x54ba <__ultoa_invert+0x6c>
    545a:	e8 94       	clt
    545c:	6f 93       	push	r22
    545e:	6e 7f       	andi	r22, 0xFE	; 254
    5460:	6e 5f       	subi	r22, 0xFE	; 254
    5462:	7f 4f       	sbci	r23, 0xFF	; 255
    5464:	8f 4f       	sbci	r24, 0xFF	; 255
    5466:	9f 4f       	sbci	r25, 0xFF	; 255
    5468:	af 4f       	sbci	r26, 0xFF	; 255
    546a:	b1 e0       	ldi	r27, 0x01	; 1
    546c:	3e d0       	rcall	.+124    	; 0x54ea <__ultoa_invert+0x9c>
    546e:	b4 e0       	ldi	r27, 0x04	; 4
    5470:	3c d0       	rcall	.+120    	; 0x54ea <__ultoa_invert+0x9c>
    5472:	67 0f       	add	r22, r23
    5474:	78 1f       	adc	r23, r24
    5476:	89 1f       	adc	r24, r25
    5478:	9a 1f       	adc	r25, r26
    547a:	a1 1d       	adc	r26, r1
    547c:	68 0f       	add	r22, r24
    547e:	79 1f       	adc	r23, r25
    5480:	8a 1f       	adc	r24, r26
    5482:	91 1d       	adc	r25, r1
    5484:	a1 1d       	adc	r26, r1
    5486:	6a 0f       	add	r22, r26
    5488:	71 1d       	adc	r23, r1
    548a:	81 1d       	adc	r24, r1
    548c:	91 1d       	adc	r25, r1
    548e:	a1 1d       	adc	r26, r1
    5490:	20 d0       	rcall	.+64     	; 0x54d2 <__ultoa_invert+0x84>
    5492:	09 f4       	brne	.+2      	; 0x5496 <__ultoa_invert+0x48>
    5494:	68 94       	set
    5496:	3f 91       	pop	r19
    5498:	2a e0       	ldi	r18, 0x0A	; 10
    549a:	26 9f       	mul	r18, r22
    549c:	11 24       	eor	r1, r1
    549e:	30 19       	sub	r19, r0
    54a0:	30 5d       	subi	r19, 0xD0	; 208
    54a2:	31 93       	st	Z+, r19
    54a4:	de f6       	brtc	.-74     	; 0x545c <__ultoa_invert+0xe>
    54a6:	cf 01       	movw	r24, r30
    54a8:	08 95       	ret
    54aa:	46 2f       	mov	r20, r22
    54ac:	47 70       	andi	r20, 0x07	; 7
    54ae:	40 5d       	subi	r20, 0xD0	; 208
    54b0:	41 93       	st	Z+, r20
    54b2:	b3 e0       	ldi	r27, 0x03	; 3
    54b4:	0f d0       	rcall	.+30     	; 0x54d4 <__ultoa_invert+0x86>
    54b6:	c9 f7       	brne	.-14     	; 0x54aa <__ultoa_invert+0x5c>
    54b8:	f6 cf       	rjmp	.-20     	; 0x54a6 <__ultoa_invert+0x58>
    54ba:	46 2f       	mov	r20, r22
    54bc:	4f 70       	andi	r20, 0x0F	; 15
    54be:	40 5d       	subi	r20, 0xD0	; 208
    54c0:	4a 33       	cpi	r20, 0x3A	; 58
    54c2:	18 f0       	brcs	.+6      	; 0x54ca <__ultoa_invert+0x7c>
    54c4:	49 5d       	subi	r20, 0xD9	; 217
    54c6:	31 fd       	sbrc	r19, 1
    54c8:	40 52       	subi	r20, 0x20	; 32
    54ca:	41 93       	st	Z+, r20
    54cc:	02 d0       	rcall	.+4      	; 0x54d2 <__ultoa_invert+0x84>
    54ce:	a9 f7       	brne	.-22     	; 0x54ba <__ultoa_invert+0x6c>
    54d0:	ea cf       	rjmp	.-44     	; 0x54a6 <__ultoa_invert+0x58>
    54d2:	b4 e0       	ldi	r27, 0x04	; 4
    54d4:	a6 95       	lsr	r26
    54d6:	97 95       	ror	r25
    54d8:	87 95       	ror	r24
    54da:	77 95       	ror	r23
    54dc:	67 95       	ror	r22
    54de:	ba 95       	dec	r27
    54e0:	c9 f7       	brne	.-14     	; 0x54d4 <__ultoa_invert+0x86>
    54e2:	00 97       	sbiw	r24, 0x00	; 0
    54e4:	61 05       	cpc	r22, r1
    54e6:	71 05       	cpc	r23, r1
    54e8:	08 95       	ret
    54ea:	9b 01       	movw	r18, r22
    54ec:	ac 01       	movw	r20, r24
    54ee:	0a 2e       	mov	r0, r26
    54f0:	06 94       	lsr	r0
    54f2:	57 95       	ror	r21
    54f4:	47 95       	ror	r20
    54f6:	37 95       	ror	r19
    54f8:	27 95       	ror	r18
    54fa:	ba 95       	dec	r27
    54fc:	c9 f7       	brne	.-14     	; 0x54f0 <__ultoa_invert+0xa2>
    54fe:	62 0f       	add	r22, r18
    5500:	73 1f       	adc	r23, r19
    5502:	84 1f       	adc	r24, r20
    5504:	95 1f       	adc	r25, r21
    5506:	a0 1d       	adc	r26, r0
    5508:	08 95       	ret

0000550a <__ctype_isfalse>:
    550a:	99 27       	eor	r25, r25
    550c:	88 27       	eor	r24, r24

0000550e <__ctype_istrue>:
    550e:	08 95       	ret

00005510 <__mulsi3>:
    5510:	db 01       	movw	r26, r22
    5512:	8f 93       	push	r24
    5514:	9f 93       	push	r25
    5516:	0b d0       	rcall	.+22     	; 0x552e <__muluhisi3>
    5518:	bf 91       	pop	r27
    551a:	af 91       	pop	r26
    551c:	a2 9f       	mul	r26, r18
    551e:	80 0d       	add	r24, r0
    5520:	91 1d       	adc	r25, r1
    5522:	a3 9f       	mul	r26, r19
    5524:	90 0d       	add	r25, r0
    5526:	b2 9f       	mul	r27, r18
    5528:	90 0d       	add	r25, r0
    552a:	11 24       	eor	r1, r1
    552c:	08 95       	ret

0000552e <__muluhisi3>:
    552e:	09 d0       	rcall	.+18     	; 0x5542 <__umulhisi3>
    5530:	a5 9f       	mul	r26, r21
    5532:	90 0d       	add	r25, r0
    5534:	b4 9f       	mul	r27, r20
    5536:	90 0d       	add	r25, r0
    5538:	a4 9f       	mul	r26, r20
    553a:	80 0d       	add	r24, r0
    553c:	91 1d       	adc	r25, r1
    553e:	11 24       	eor	r1, r1
    5540:	08 95       	ret

00005542 <__umulhisi3>:
    5542:	a2 9f       	mul	r26, r18
    5544:	b0 01       	movw	r22, r0
    5546:	b3 9f       	mul	r27, r19
    5548:	c0 01       	movw	r24, r0
    554a:	a3 9f       	mul	r26, r19
    554c:	70 0d       	add	r23, r0
    554e:	81 1d       	adc	r24, r1
    5550:	11 24       	eor	r1, r1
    5552:	91 1d       	adc	r25, r1
    5554:	b2 9f       	mul	r27, r18
    5556:	70 0d       	add	r23, r0
    5558:	81 1d       	adc	r24, r1
    555a:	11 24       	eor	r1, r1
    555c:	91 1d       	adc	r25, r1
    555e:	08 95       	ret

00005560 <__do_global_dtors>:
    5560:	11 e0       	ldi	r17, 0x01	; 1
    5562:	c4 e2       	ldi	r28, 0x24	; 36
    5564:	d1 e0       	ldi	r29, 0x01	; 1
    5566:	03 c0       	rjmp	.+6      	; 0x556e <__do_global_dtors+0xe>
    5568:	fe 01       	movw	r30, r28
    556a:	df da       	rcall	.-2626   	; 0x4b2a <__tablejump2__>
    556c:	21 96       	adiw	r28, 0x01	; 1
    556e:	c9 32       	cpi	r28, 0x29	; 41
    5570:	d1 07       	cpc	r29, r17
    5572:	d1 f7       	brne	.-12     	; 0x5568 <__do_global_dtors+0x8>
    5574:	f8 94       	cli

00005576 <__stop_program>:
    5576:	ff cf       	rjmp	.-2      	; 0x5576 <__stop_program>
